
rtthread.bin:     file format binary


Disassembly of section .data:

0000000000000000 <.data>:
       0:	f14022f3          	csrr	t0,mhartid
       4:	00a29293          	slli	t0,t0,0xa
       8:	f1402573          	csrr	a0,mhartid
       c:	02051e63          	bnez	a0,0x48
      10:	30405073          	csrwi	mie,0
      14:	34405073          	csrwi	mip,0
      18:	00005297          	auipc	t0,0x5
      1c:	24828293          	addi	t0,t0,584 # 0x5260
      20:	30529073          	csrw	mtvec,t0
      24:	000062b7          	lui	t0,0x6
      28:	3002b073          	csrc	mstatus,t0
      2c:	00012197          	auipc	gp,0x12
      30:	99c18193          	addi	gp,gp,-1636 # 0x119c8
      34:	83818113          	addi	sp,gp,-1992
      38:	000042b7          	lui	t0,0x4
      3c:	00510133          	add	sp,sp,t0
      40:	34011073          	csrw	mscratch,sp
      44:	4740006f          	j	0x4b8
      48:	10500073          	wfi
      4c:	ffdff06f          	j	0x48
      50:	00050613          	mv	a2,a0
      54:	00000513          	li	a0,0
      58:	0015f693          	andi	a3,a1,1
      5c:	00068463          	beqz	a3,0x64
      60:	00c50533          	add	a0,a0,a2
      64:	0015d593          	srli	a1,a1,0x1
      68:	00161613          	slli	a2,a2,0x1
      6c:	fe0596e3          	bnez	a1,0x58
      70:	00008067          	ret
      74:	30047573          	csrrci	a0,mstatus,8
      78:	00008067          	ret
      7c:	30051073          	csrw	mstatus,a0
      80:	00008067          	ret
      84:	00053103          	ld	sp,0(a0)
      88:	01013503          	ld	a0,16(sp)
      8c:	30051073          	csrw	mstatus,a0
      90:	0a00006f          	j	0x130
      94:	f0010113          	addi	sp,sp,-256
      98:	00253023          	sd	sp,0(a0)
      9c:	00113023          	sd	ra,0(sp)
      a0:	00113423          	sd	ra,8(sp)
      a4:	30002573          	csrr	a0,mstatus
      a8:	00857513          	andi	a0,a0,8
      ac:	00050463          	beqz	a0,0xb4
      b0:	08000513          	li	a0,128
      b4:	00a13823          	sd	a0,16(sp)
      b8:	02413023          	sd	tp,32(sp)
      bc:	02513423          	sd	t0,40(sp)
      c0:	02613823          	sd	t1,48(sp)
      c4:	02713c23          	sd	t2,56(sp)
      c8:	04813023          	sd	s0,64(sp)
      cc:	04913423          	sd	s1,72(sp)
      d0:	04a13823          	sd	a0,80(sp)
      d4:	04b13c23          	sd	a1,88(sp)
      d8:	06c13023          	sd	a2,96(sp)
      dc:	06d13423          	sd	a3,104(sp)
      e0:	06e13823          	sd	a4,112(sp)
      e4:	06f13c23          	sd	a5,120(sp)
      e8:	09013023          	sd	a6,128(sp)
      ec:	09113423          	sd	a7,136(sp)
      f0:	09213823          	sd	s2,144(sp)
      f4:	09313c23          	sd	s3,152(sp)
      f8:	0b413023          	sd	s4,160(sp)
      fc:	0b513423          	sd	s5,168(sp)
     100:	0b613823          	sd	s6,176(sp)
     104:	0b713c23          	sd	s7,184(sp)
     108:	0d813023          	sd	s8,192(sp)
     10c:	0d913423          	sd	s9,200(sp)
     110:	0da13823          	sd	s10,208(sp)
     114:	0db13c23          	sd	s11,216(sp)
     118:	0fc13023          	sd	t3,224(sp)
     11c:	0fd13423          	sd	t4,232(sp)
     120:	0fe13823          	sd	t5,240(sp)
     124:	0ff13c23          	sd	t6,248(sp)
     128:	0005b103          	ld	sp,0(a1)
     12c:	0040006f          	j	0x130
     130:	00013503          	ld	a0,0(sp)
     134:	34151073          	csrw	mepc,a0
     138:	00813083          	ld	ra,8(sp)
     13c:	000082b7          	lui	t0,0x8
     140:	8002829b          	addiw	t0,t0,-2048
     144:	30029073          	csrw	mstatus,t0
     148:	01013503          	ld	a0,16(sp)
     14c:	30052073          	csrs	mstatus,a0
     150:	02013203          	ld	tp,32(sp)
     154:	02813283          	ld	t0,40(sp)
     158:	03013303          	ld	t1,48(sp)
     15c:	03813383          	ld	t2,56(sp)
     160:	04013403          	ld	s0,64(sp)
     164:	04813483          	ld	s1,72(sp)
     168:	05013503          	ld	a0,80(sp)
     16c:	05813583          	ld	a1,88(sp)
     170:	06013603          	ld	a2,96(sp)
     174:	06813683          	ld	a3,104(sp)
     178:	07013703          	ld	a4,112(sp)
     17c:	07813783          	ld	a5,120(sp)
     180:	08013803          	ld	a6,128(sp)
     184:	08813883          	ld	a7,136(sp)
     188:	09013903          	ld	s2,144(sp)
     18c:	09813983          	ld	s3,152(sp)
     190:	0a013a03          	ld	s4,160(sp)
     194:	0a813a83          	ld	s5,168(sp)
     198:	0b013b03          	ld	s6,176(sp)
     19c:	0b813b83          	ld	s7,184(sp)
     1a0:	0c013c03          	ld	s8,192(sp)
     1a4:	0c813c83          	ld	s9,200(sp)
     1a8:	0d013d03          	ld	s10,208(sp)
     1ac:	0d813d83          	ld	s11,216(sp)
     1b0:	0e013e03          	ld	t3,224(sp)
     1b4:	0e813e83          	ld	t4,232(sp)
     1b8:	0f013f03          	ld	t5,240(sp)
     1bc:	0f813f83          	ld	t6,248(sp)
     1c0:	10010113          	addi	sp,sp,256
     1c4:	30200073          	mret
     1c8:	02051513          	slli	a0,a0,0x20
     1cc:	02059593          	slli	a1,a1,0x20
     1d0:	00008293          	mv	t0,ra
     1d4:	03c000ef          	jal	ra,0x210
     1d8:	0005051b          	sext.w	a0,a0
     1dc:	00028067          	jr	t0 # 0x8000
     1e0:	02051513          	slli	a0,a0,0x20
     1e4:	02059593          	slli	a1,a1,0x20
     1e8:	02055513          	srli	a0,a0,0x20
     1ec:	0205d593          	srli	a1,a1,0x20
     1f0:	00008293          	mv	t0,ra
     1f4:	01c000ef          	jal	ra,0x210
     1f8:	0005851b          	sext.w	a0,a1
     1fc:	00028067          	jr	t0
     200:	fff00293          	li	t0,-1
     204:	0a558c63          	beq	a1,t0,0x2bc
     208:	06054063          	bltz	a0,0x268
     20c:	0605c663          	bltz	a1,0x278
     210:	00058613          	mv	a2,a1
     214:	00050593          	mv	a1,a0
     218:	fff00513          	li	a0,-1
     21c:	02060c63          	beqz	a2,0x254
     220:	00100693          	li	a3,1
     224:	00b67a63          	bgeu	a2,a1,0x238
     228:	00c05863          	blez	a2,0x238
     22c:	00161613          	slli	a2,a2,0x1
     230:	00169693          	slli	a3,a3,0x1
     234:	feb66ae3          	bltu	a2,a1,0x228
     238:	00000513          	li	a0,0
     23c:	00c5e663          	bltu	a1,a2,0x248
     240:	40c585b3          	sub	a1,a1,a2
     244:	00d56533          	or	a0,a0,a3
     248:	0016d693          	srli	a3,a3,0x1
     24c:	00165613          	srli	a2,a2,0x1
     250:	fe0696e3          	bnez	a3,0x23c
     254:	00008067          	ret
     258:	00008293          	mv	t0,ra
     25c:	fb5ff0ef          	jal	ra,0x210
     260:	00058513          	mv	a0,a1
     264:	00028067          	jr	t0
     268:	40a00533          	neg	a0,a0
     26c:	00b04863          	bgtz	a1,0x27c
     270:	40b005b3          	neg	a1,a1
     274:	f9dff06f          	j	0x210
     278:	40b005b3          	neg	a1,a1
     27c:	00008293          	mv	t0,ra
     280:	f91ff0ef          	jal	ra,0x210
     284:	40a00533          	neg	a0,a0
     288:	00028067          	jr	t0
     28c:	00008293          	mv	t0,ra
     290:	0005ca63          	bltz	a1,0x2a4
     294:	00054c63          	bltz	a0,0x2ac
     298:	f79ff0ef          	jal	ra,0x210
     29c:	00058513          	mv	a0,a1
     2a0:	00028067          	jr	t0
     2a4:	40b005b3          	neg	a1,a1
     2a8:	fe0558e3          	bgez	a0,0x298
     2ac:	40a00533          	neg	a0,a0
     2b0:	f61ff0ef          	jal	ra,0x210
     2b4:	40b00533          	neg	a0,a1
     2b8:	00028067          	jr	t0
     2bc:	01f29293          	slli	t0,t0,0x1f
     2c0:	f45514e3          	bne	a0,t0,0x208
     2c4:	00008067          	ret
     2c8:	ff010113          	addi	sp,sp,-16
     2cc:	0000d517          	auipc	a0,0xd
     2d0:	d1450513          	addi	a0,a0,-748 # 0xcfe0
     2d4:	00113423          	sd	ra,8(sp)
     2d8:	260040ef          	jal	ra,0x4538
     2dc:	0000d517          	auipc	a0,0xd
     2e0:	d1450513          	addi	a0,a0,-748 # 0xcff0
     2e4:	254040ef          	jal	ra,0x4538
     2e8:	00813083          	ld	ra,8(sp)
     2ec:	00000513          	li	a0,0
     2f0:	01010113          	addi	sp,sp,16
     2f4:	00008067          	ret
     2f8:	ff010113          	addi	sp,sp,-16
     2fc:	00813023          	sd	s0,0(sp)
     300:	00113423          	sd	ra,8(sp)
     304:	00a00793          	li	a5,10
     308:	00058413          	mv	s0,a1
     30c:	00f59663          	bne	a1,a5,0x318
     310:	00d00593          	li	a1,13
     314:	fe5ff0ef          	jal	ra,0x2f8
     318:	40600737          	lui	a4,0x40600
     31c:	00874783          	lbu	a5,8(a4) # 0x40600008
     320:	0087f793          	andi	a5,a5,8
     324:	fe079ce3          	bnez	a5,0x31c
     328:	00870223          	sb	s0,4(a4)
     32c:	00813083          	ld	ra,8(sp)
     330:	00040513          	mv	a0,s0
     334:	00013403          	ld	s0,0(sp)
     338:	01010113          	addi	sp,sp,16
     33c:	00008067          	ret
     340:	40600737          	lui	a4,0x40600
     344:	00874783          	lbu	a5,8(a4) # 0x40600008
     348:	fff00513          	li	a0,-1
     34c:	0017f793          	andi	a5,a5,1
     350:	00078663          	beqz	a5,0x35c
     354:	00074503          	lbu	a0,0(a4)
     358:	0ff57513          	andi	a0,a0,255
     35c:	00008067          	ret
     360:	fe010113          	addi	sp,sp,-32
     364:	00813823          	sd	s0,16(sp)
     368:	00913423          	sd	s1,8(sp)
     36c:	00113c23          	sd	ra,24(sp)
     370:	00050413          	mv	s0,a0
     374:	00058493          	mv	s1,a1
     378:	00051e63          	bnez	a0,0x394
     37c:	03a00613          	li	a2,58
     380:	0000d597          	auipc	a1,0xd
     384:	ce058593          	addi	a1,a1,-800 # 0xd060
     388:	0000d517          	auipc	a0,0xd
     38c:	ca850513          	addi	a0,a0,-856 # 0xd030
     390:	334040ef          	jal	ra,0x46c4
     394:	0004a783          	lw	a5,0(s1)
     398:	01813083          	ld	ra,24(sp)
     39c:	00000513          	li	a0,0
     3a0:	08f42423          	sw	a5,136(s0)
     3a4:	0044a783          	lw	a5,4(s1)
     3a8:	00813483          	ld	s1,8(sp)
     3ac:	08f42623          	sw	a5,140(s0)
     3b0:	01013403          	ld	s0,16(sp)
     3b4:	02010113          	addi	sp,sp,32
     3b8:	00008067          	ret
     3bc:	07853783          	ld	a5,120(a0)
     3c0:	02079a63          	bnez	a5,0x3f4
     3c4:	ff010113          	addi	sp,sp,-16
     3c8:	0000d517          	auipc	a0,0xd
     3cc:	c8050513          	addi	a0,a0,-896 # 0xd048
     3d0:	04700613          	li	a2,71
     3d4:	0000d597          	auipc	a1,0xd
     3d8:	ca458593          	addi	a1,a1,-860 # 0xd078
     3dc:	00113423          	sd	ra,8(sp)
     3e0:	2e4040ef          	jal	ra,0x46c4
     3e4:	00813083          	ld	ra,8(sp)
     3e8:	00000513          	li	a0,0
     3ec:	01010113          	addi	sp,sp,16
     3f0:	00008067          	ret
     3f4:	00000513          	li	a0,0
     3f8:	00008067          	ret
     3fc:	ff010113          	addi	sp,sp,-16
     400:	00113423          	sd	ra,8(sp)
     404:	00019517          	auipc	a0,0x19
     408:	f4450513          	addi	a0,a0,-188 # 0x19348
     40c:	0000d797          	auipc	a5,0xd
     410:	c7c78793          	addi	a5,a5,-900 # 0xd088
     414:	08f53023          	sd	a5,128(a0)
     418:	00011797          	auipc	a5,0x11
     41c:	b687b783          	ld	a5,-1176(a5) # 0x10f80
     420:	08f53423          	sd	a5,136(a0)
     424:	00019697          	auipc	a3,0x19
     428:	fc468693          	addi	a3,a3,-60 # 0x193e8
     42c:	406007b7          	lui	a5,0x40600
     430:	00a00713          	li	a4,10
     434:	00e6a423          	sw	a4,8(a3)
     438:	00f6b023          	sd	a5,0(a3)
     43c:	00300713          	li	a4,3
     440:	00e78623          	sb	a4,12(a5) # 0x4060000c
     444:	04300613          	li	a2,67
     448:	0000d597          	auipc	a1,0xd
     44c:	c1058593          	addi	a1,a1,-1008 # 0xd058
     450:	178060ef          	jal	ra,0x65c8
     454:	00813083          	ld	ra,8(sp)
     458:	00000513          	li	a0,0
     45c:	01010113          	addi	sp,sp,16
     460:	00008067          	ret
     464:	f14027f3          	csrr	a5,mhartid
     468:	00c7971b          	slliw	a4,a5,0xc
     46c:	3c2007b7          	lui	a5,0x3c200
     470:	00e787b3          	add	a5,a5,a4
     474:	0047a503          	lw	a0,4(a5) # 0x3c200004
     478:	00008067          	ret
     47c:	f14027f3          	csrr	a5,mhartid
     480:	00c7971b          	slliw	a4,a5,0xc
     484:	3c2007b7          	lui	a5,0x3c200
     488:	00e787b3          	add	a5,a5,a4
     48c:	00a7a223          	sw	a0,4(a5) # 0x3c200004
     490:	00008067          	ret
     494:	00000513          	li	a0,0
     498:	00000593          	li	a1,0
     49c:	00000613          	li	a2,0
     4a0:	00000693          	li	a3,0
     4a4:	00000713          	li	a4,0
     4a8:	00000813          	li	a6,0
     4ac:	00800893          	li	a7,8
     4b0:	00000073          	ecall
     4b4:	0000006f          	j	0x4b4
     4b8:	00019517          	auipc	a0,0x19
     4bc:	d4850513          	addi	a0,a0,-696 # 0x19200
     4c0:	00022617          	auipc	a2,0x22
     4c4:	00960613          	addi	a2,a2,9 # 0x224c9
     4c8:	ff010113          	addi	sp,sp,-16
     4cc:	40a60633          	sub	a2,a2,a0
     4d0:	00000593          	li	a1,0
     4d4:	00113423          	sd	ra,8(sp)
     4d8:	690030ef          	jal	ra,0x3b68
     4dc:	b99ff0ef          	jal	ra,0x74
     4e0:	00813083          	ld	ra,8(sp)
     4e4:	01010113          	addi	sp,sp,16
     4e8:	56d0206f          	j	0x3254
     4ec:	ff010113          	addi	sp,sp,-16
     4f0:	00113423          	sd	ra,8(sp)
     4f4:	00813023          	sd	s0,0(sp)
     4f8:	699040ef          	jal	ra,0x5390
     4fc:	f01ff0ef          	jal	ra,0x3fc
     500:	06422617          	auipc	a2,0x6422
     504:	fc960613          	addi	a2,a2,-55 # 0x64224c9
     508:	00022417          	auipc	s0,0x22
     50c:	fc140413          	addi	s0,s0,-63 # 0x224c9
     510:	00060593          	mv	a1,a2
     514:	00040513          	mv	a0,s0
     518:	584000ef          	jal	ra,0xa9c
     51c:	0000d517          	auipc	a0,0xd
     520:	b3c50513          	addi	a0,a0,-1220 # 0xd058
     524:	7a1030ef          	jal	ra,0x44c4
     528:	4f1040ef          	jal	ra,0x5218
     52c:	00040593          	mv	a1,s0
     530:	06422617          	auipc	a2,0x6422
     534:	f9960613          	addi	a2,a2,-103 # 0x64224c9
     538:	0000d517          	auipc	a0,0xd
     53c:	b7850513          	addi	a0,a0,-1160 # 0xd0b0
     540:	7f9030ef          	jal	ra,0x4538
     544:	00013403          	ld	s0,0(sp)
     548:	00813083          	ld	ra,8(sp)
     54c:	01010113          	addi	sp,sp,16
     550:	3bd0206f          	j	0x310c
     554:	0dd0306f          	j	0x3e30
     558:	00050793          	mv	a5,a0
     55c:	0005c703          	lbu	a4,0(a1)
     560:	00071663          	bnez	a4,0x56c
     564:	00078023          	sb	zero,0(a5)
     568:	00008067          	ret
     56c:	00e78023          	sb	a4,0(a5)
     570:	00158593          	addi	a1,a1,1
     574:	00178793          	addi	a5,a5,1
     578:	fe5ff06f          	j	0x55c
     57c:	00d0306f          	j	0x3d88
     580:	fe010113          	addi	sp,sp,-32
     584:	00113c23          	sd	ra,24(sp)
     588:	00813823          	sd	s0,16(sp)
     58c:	00b13423          	sd	a1,8(sp)
     590:	00050413          	mv	s0,a0
     594:	09d030ef          	jal	ra,0x3e30
     598:	00813583          	ld	a1,8(sp)
     59c:	00a40533          	add	a0,s0,a0
     5a0:	fb9ff0ef          	jal	ra,0x558
     5a4:	01813083          	ld	ra,24(sp)
     5a8:	00040513          	mv	a0,s0
     5ac:	01013403          	ld	s0,16(sp)
     5b0:	02010113          	addi	sp,sp,32
     5b4:	00008067          	ret
     5b8:	0550306f          	j	0x3e0c
     5bc:	0110306f          	j	0x3dcc
     5c0:	5a80306f          	j	0x3b68
     5c4:	6500306f          	j	0x3c14
     5c8:	78c0306f          	j	0x3d54
     5cc:	0810306f          	j	0x3e4c
     5d0:	00050c63          	beqz	a0,0x5e8
     5d4:	00050793          	mv	a5,a0
     5d8:	0ff5f593          	andi	a1,a1,255
     5dc:	00000513          	li	a0,0
     5e0:	0007c703          	lbu	a4,0(a5)
     5e4:	00071463          	bnez	a4,0x5ec
     5e8:	00008067          	ret
     5ec:	00e59463          	bne	a1,a4,0x5f4
     5f0:	00078513          	mv	a0,a5
     5f4:	00178793          	addi	a5,a5,1
     5f8:	fe9ff06f          	j	0x5e0
     5fc:	00050793          	mv	a5,a0
     600:	02000713          	li	a4,32
     604:	0007c683          	lbu	a3,0(a5)
     608:	02e68063          	beq	a3,a4,0x628
     60c:	00000513          	li	a0,0
     610:	00900593          	li	a1,9
     614:	0007c603          	lbu	a2,0(a5)
     618:	fd06069b          	addiw	a3,a2,-48
     61c:	0ff6f693          	andi	a3,a3,255
     620:	00d5f863          	bgeu	a1,a3,0x630
     624:	00008067          	ret
     628:	00178793          	addi	a5,a5,1
     62c:	fd9ff06f          	j	0x604
     630:	0025171b          	slliw	a4,a0,0x2
     634:	00a7053b          	addw	a0,a4,a0
     638:	0015151b          	slliw	a0,a0,0x1
     63c:	00c5053b          	addw	a0,a0,a2
     640:	fd05051b          	addiw	a0,a0,-48
     644:	00178793          	addi	a5,a5,1
     648:	fcdff06f          	j	0x614
     64c:	00000713          	li	a4,0
     650:	00800613          	li	a2,8
     654:	00e586b3          	add	a3,a1,a4
     658:	0006c683          	lbu	a3,0(a3)
     65c:	0007079b          	sext.w	a5,a4
     660:	00069c63          	bnez	a3,0x678
     664:	00700713          	li	a4,7
     668:	02000613          	li	a2,32
     66c:	0007869b          	sext.w	a3,a5
     670:	00d75e63          	bge	a4,a3,0x68c
     674:	00008067          	ret
     678:	00e507b3          	add	a5,a0,a4
     67c:	00d78c23          	sb	a3,24(a5)
     680:	00170713          	addi	a4,a4,1
     684:	fcc718e3          	bne	a4,a2,0x654
     688:	00008067          	ret
     68c:	00f506b3          	add	a3,a0,a5
     690:	00c68c23          	sb	a2,24(a3)
     694:	00178793          	addi	a5,a5,1
     698:	fd5ff06f          	j	0x66c
     69c:	ff010113          	addi	sp,sp,-16
     6a0:	00019597          	auipc	a1,0x19
     6a4:	b805b583          	ld	a1,-1152(a1) # 0x19220
     6a8:	0000d517          	auipc	a0,0xd
     6ac:	a4850513          	addi	a0,a0,-1464 # 0xd0f0
     6b0:	00113423          	sd	ra,8(sp)
     6b4:	685030ef          	jal	ra,0x4538
     6b8:	00019597          	auipc	a1,0x19
     6bc:	b805b583          	ld	a1,-1152(a1) # 0x19238
     6c0:	0000d517          	auipc	a0,0xd
     6c4:	a4850513          	addi	a0,a0,-1464 # 0xd108
     6c8:	671030ef          	jal	ra,0x4538
     6cc:	00813083          	ld	ra,8(sp)
     6d0:	00019597          	auipc	a1,0x19
     6d4:	b485b583          	ld	a1,-1208(a1) # 0x19218
     6d8:	0000d517          	auipc	a0,0xd
     6dc:	a4850513          	addi	a0,a0,-1464 # 0xd120
     6e0:	01010113          	addi	sp,sp,16
     6e4:	6550306f          	j	0x4538
     6e8:	fa010113          	addi	sp,sp,-96
     6ec:	04113c23          	sd	ra,88(sp)
     6f0:	04813823          	sd	s0,80(sp)
     6f4:	04913423          	sd	s1,72(sp)
     6f8:	05213023          	sd	s2,64(sp)
     6fc:	03313c23          	sd	s3,56(sp)
     700:	03413823          	sd	s4,48(sp)
     704:	03513423          	sd	s5,40(sp)
     708:	03613023          	sd	s6,32(sp)
     70c:	01713c23          	sd	s7,24(sp)
     710:	01813823          	sd	s8,16(sp)
     714:	01913423          	sd	s9,8(sp)
     718:	01a13023          	sd	s10,0(sp)
     71c:	f81ff0ef          	jal	ra,0x69c
     720:	0000d517          	auipc	a0,0xd
     724:	a2050513          	addi	a0,a0,-1504 # 0xd140
     728:	611030ef          	jal	ra,0x4538
     72c:	00019497          	auipc	s1,0x19
     730:	adc48493          	addi	s1,s1,-1316 # 0x19208
     734:	0004b583          	ld	a1,0(s1)
     738:	0000d517          	auipc	a0,0xd
     73c:	a2050513          	addi	a0,a0,-1504 # 0xd158
     740:	00019917          	auipc	s2,0x19
     744:	ac090913          	addi	s2,s2,-1344 # 0x19200
     748:	5f1030ef          	jal	ra,0x4538
     74c:	00019597          	auipc	a1,0x19
     750:	ac45b583          	ld	a1,-1340(a1) # 0x19210
     754:	0000d517          	auipc	a0,0xd
     758:	a1c50513          	addi	a0,a0,-1508 # 0xd170
     75c:	5dd030ef          	jal	ra,0x4538
     760:	00093583          	ld	a1,0(s2)
     764:	0000d517          	auipc	a0,0xd
     768:	a2450513          	addi	a0,a0,-1500 # 0xd188
     76c:	000029b7          	lui	s3,0x2
     770:	5c9030ef          	jal	ra,0x4538
     774:	0000d517          	auipc	a0,0xd
     778:	a2c50513          	addi	a0,a0,-1492 # 0xd1a0
     77c:	5bd030ef          	jal	ra,0x4538
     780:	0004b403          	ld	s0,0(s1)
     784:	0000da17          	auipc	s4,0xd
     788:	a3ca0a13          	addi	s4,s4,-1476 # 0xd1c0
     78c:	3ff00a93          	li	s5,1023
     790:	00100b37          	lui	s6,0x100
     794:	0000db97          	auipc	s7,0xd
     798:	a4cb8b93          	addi	s7,s7,-1460 # 0xd1e0
     79c:	0000dc17          	auipc	s8,0xd
     7a0:	a3cc0c13          	addi	s8,s8,-1476 # 0xd1d8
     7a4:	0000dc97          	auipc	s9,0xd
     7a8:	a2cc8c93          	addi	s9,s9,-1492 # 0xd1d0
     7ac:	ea098993          	addi	s3,s3,-352 # 0x1ea0
     7b0:	00093783          	ld	a5,0(s2)
     7b4:	04879063          	bne	a5,s0,0x7f4
     7b8:	05813083          	ld	ra,88(sp)
     7bc:	05013403          	ld	s0,80(sp)
     7c0:	04813483          	ld	s1,72(sp)
     7c4:	04013903          	ld	s2,64(sp)
     7c8:	03813983          	ld	s3,56(sp)
     7cc:	03013a03          	ld	s4,48(sp)
     7d0:	02813a83          	ld	s5,40(sp)
     7d4:	02013b03          	ld	s6,32(sp)
     7d8:	01813b83          	ld	s7,24(sp)
     7dc:	01013c03          	ld	s8,16(sp)
     7e0:	00813c83          	ld	s9,8(sp)
     7e4:	00013d03          	ld	s10,0(sp)
     7e8:	00000513          	li	a0,0
     7ec:	06010113          	addi	sp,sp,96
     7f0:	00008067          	ret
     7f4:	0004b783          	ld	a5,0(s1)
     7f8:	00040593          	mv	a1,s0
     7fc:	000a0513          	mv	a0,s4
     800:	40f40d33          	sub	s10,s0,a5
     804:	535030ef          	jal	ra,0x4538
     808:	00843783          	ld	a5,8(s0)
     80c:	000c8513          	mv	a0,s9
     810:	fe07879b          	addiw	a5,a5,-32
     814:	41a785bb          	subw	a1,a5,s10
     818:	00bad863          	bge	s5,a1,0x828
     81c:	0565dc63          	bge	a1,s6,0x874
     820:	40a5d59b          	sraiw	a1,a1,0xa
     824:	000c0513          	mv	a0,s8
     828:	511030ef          	jal	ra,0x4538
     82c:	01b44703          	lbu	a4,27(s0)
     830:	01a44683          	lbu	a3,26(s0)
     834:	01944603          	lbu	a2,25(s0)
     838:	01844583          	lbu	a1,24(s0)
     83c:	0000d517          	auipc	a0,0xd
     840:	9ac50513          	addi	a0,a0,-1620 # 0xd1e8
     844:	4f5030ef          	jal	ra,0x4538
     848:	00045783          	lhu	a5,0(s0)
     84c:	0000d517          	auipc	a0,0xd
     850:	9ac50513          	addi	a0,a0,-1620 # 0xd1f8
     854:	01379663          	bne	a5,s3,0x860
     858:	0000f517          	auipc	a0,0xf
     85c:	5e050513          	addi	a0,a0,1504 # 0xfe38
     860:	4d9030ef          	jal	ra,0x4538
     864:	00843783          	ld	a5,8(s0)
     868:	0004b403          	ld	s0,0(s1)
     86c:	00f40433          	add	s0,s0,a5
     870:	f41ff06f          	j	0x7b0
     874:	4145d59b          	sraiw	a1,a1,0x14
     878:	000b8513          	mv	a0,s7
     87c:	fadff06f          	j	0x828
     880:	00019797          	auipc	a5,0x19
     884:	98878793          	addi	a5,a5,-1656 # 0x19208
     888:	0007b703          	ld	a4,0(a5)
     88c:	fe010113          	addi	sp,sp,-32
     890:	00813823          	sd	s0,16(sp)
     894:	01213023          	sd	s2,0(sp)
     898:	00113c23          	sd	ra,24(sp)
     89c:	00913423          	sd	s1,8(sp)
     8a0:	00050413          	mv	s0,a0
     8a4:	00078913          	mv	s2,a5
     8a8:	00e57e63          	bgeu	a0,a4,0x8c4
     8ac:	0a100613          	li	a2,161
     8b0:	0000d597          	auipc	a1,0xd
     8b4:	c8058593          	addi	a1,a1,-896 # 0xd530
     8b8:	0000d517          	auipc	a0,0xd
     8bc:	94850513          	addi	a0,a0,-1720 # 0xd200
     8c0:	605030ef          	jal	ra,0x46c4
     8c4:	00019797          	auipc	a5,0x19
     8c8:	93c78793          	addi	a5,a5,-1732 # 0x19200
     8cc:	0007b703          	ld	a4,0(a5)
     8d0:	00078493          	mv	s1,a5
     8d4:	00e46e63          	bltu	s0,a4,0x8f0
     8d8:	0a200613          	li	a2,162
     8dc:	0000d597          	auipc	a1,0xd
     8e0:	c5458593          	addi	a1,a1,-940 # 0xd530
     8e4:	0000d517          	auipc	a0,0xd
     8e8:	93c50513          	addi	a0,a0,-1732 # 0xd220
     8ec:	5d9030ef          	jal	ra,0x46c4
     8f0:	00245783          	lhu	a5,2(s0)
     8f4:	00078e63          	beqz	a5,0x910
     8f8:	0a300613          	li	a2,163
     8fc:	0000d597          	auipc	a1,0xd
     900:	c3458593          	addi	a1,a1,-972 # 0xd530
     904:	0000d517          	auipc	a0,0xd
     908:	94c50513          	addi	a0,a0,-1716 # 0xd250
     90c:	5b9030ef          	jal	ra,0x46c4
     910:	00093703          	ld	a4,0(s2)
     914:	00843783          	ld	a5,8(s0)
     918:	00f707b3          	add	a5,a4,a5
     91c:	04f40063          	beq	s0,a5,0x95c
     920:	0027d683          	lhu	a3,2(a5)
     924:	02069c63          	bnez	a3,0x95c
     928:	0004b683          	ld	a3,0(s1)
     92c:	02f68863          	beq	a3,a5,0x95c
     930:	00019697          	auipc	a3,0x19
     934:	8e068693          	addi	a3,a3,-1824 # 0x19210
     938:	0006b603          	ld	a2,0(a3)
     93c:	00f61463          	bne	a2,a5,0x944
     940:	0086b023          	sd	s0,0(a3)
     944:	0087b683          	ld	a3,8(a5)
     948:	00d43423          	sd	a3,8(s0)
     94c:	0087b783          	ld	a5,8(a5)
     950:	40e406b3          	sub	a3,s0,a4
     954:	00f707b3          	add	a5,a4,a5
     958:	00d7b823          	sd	a3,16(a5)
     95c:	01043683          	ld	a3,16(s0)
     960:	00d707b3          	add	a5,a4,a3
     964:	02f40a63          	beq	s0,a5,0x998
     968:	0027d603          	lhu	a2,2(a5)
     96c:	02061663          	bnez	a2,0x998
     970:	00019617          	auipc	a2,0x19
     974:	8a060613          	addi	a2,a2,-1888 # 0x19210
     978:	00063583          	ld	a1,0(a2)
     97c:	00859463          	bne	a1,s0,0x984
     980:	00f63023          	sd	a5,0(a2)
     984:	00843603          	ld	a2,8(s0)
     988:	00c7b423          	sd	a2,8(a5)
     98c:	00843783          	ld	a5,8(s0)
     990:	00f70733          	add	a4,a4,a5
     994:	00d73823          	sd	a3,16(a4)
     998:	01813083          	ld	ra,24(sp)
     99c:	01013403          	ld	s0,16(sp)
     9a0:	00813483          	ld	s1,8(sp)
     9a4:	00013903          	ld	s2,0(sp)
     9a8:	02010113          	addi	sp,sp,32
     9ac:	00008067          	ret
     9b0:	fe010113          	addi	sp,sp,-32
     9b4:	00813823          	sd	s0,16(sp)
     9b8:	00913423          	sd	s1,8(sp)
     9bc:	00113c23          	sd	ra,24(sp)
     9c0:	01213023          	sd	s2,0(sp)
     9c4:	eb0ff0ef          	jal	ra,0x74
     9c8:	00019797          	auipc	a5,0x19
     9cc:	8407b783          	ld	a5,-1984(a5) # 0x19208
     9d0:	00002737          	lui	a4,0x2
     9d4:	00050493          	mv	s1,a0
     9d8:	00019697          	auipc	a3,0x19
     9dc:	8286b683          	ld	a3,-2008(a3) # 0x19200
     9e0:	00019617          	auipc	a2,0x19
     9e4:	84062603          	lw	a2,-1984(a2) # 0x19220
     9e8:	00078413          	mv	s0,a5
     9ec:	ea070713          	addi	a4,a4,-352 # 0x1ea0
     9f0:	00100593          	li	a1,1
     9f4:	02869463          	bne	a3,s0,0xa1c
     9f8:	00048513          	mv	a0,s1
     9fc:	e80ff0ef          	jal	ra,0x7c
     a00:	01813083          	ld	ra,24(sp)
     a04:	01013403          	ld	s0,16(sp)
     a08:	00813483          	ld	s1,8(sp)
     a0c:	00013903          	ld	s2,0(sp)
     a10:	00000513          	li	a0,0
     a14:	02010113          	addi	sp,sp,32
     a18:	00008067          	ret
     a1c:	40f4093b          	subw	s2,s0,a5
     a20:	02094263          	bltz	s2,0xa44
     a24:	03264063          	blt	a2,s2,0xa44
     a28:	00045503          	lhu	a0,0(s0)
     a2c:	00e51c63          	bne	a0,a4,0xa44
     a30:	00245503          	lhu	a0,2(s0)
     a34:	00a5e863          	bltu	a1,a0,0xa44
     a38:	00843403          	ld	s0,8(s0)
     a3c:	00878433          	add	s0,a5,s0
     a40:	fb5ff06f          	j	0x9f4
     a44:	0000d517          	auipc	a0,0xd
     a48:	81c50513          	addi	a0,a0,-2020 # 0xd260
     a4c:	2ed030ef          	jal	ra,0x4538
     a50:	00040593          	mv	a1,s0
     a54:	0000d517          	auipc	a0,0xd
     a58:	82450513          	addi	a0,a0,-2012 # 0xd278
     a5c:	2dd030ef          	jal	ra,0x4538
     a60:	00045583          	lhu	a1,0(s0)
     a64:	0000d517          	auipc	a0,0xd
     a68:	82c50513          	addi	a0,a0,-2004 # 0xd290
     a6c:	2cd030ef          	jal	ra,0x4538
     a70:	00245583          	lhu	a1,2(s0)
     a74:	0000d517          	auipc	a0,0xd
     a78:	83450513          	addi	a0,a0,-1996 # 0xd2a8
     a7c:	2bd030ef          	jal	ra,0x4538
     a80:	00843583          	ld	a1,8(s0)
     a84:	0000d517          	auipc	a0,0xd
     a88:	83450513          	addi	a0,a0,-1996 # 0xd2b8
     a8c:	fe058593          	addi	a1,a1,-32
     a90:	412585b3          	sub	a1,a1,s2
     a94:	2a5030ef          	jal	ra,0x4538
     a98:	f61ff06f          	j	0x9f8
     a9c:	fd010113          	addi	sp,sp,-48
     aa0:	02813023          	sd	s0,32(sp)
     aa4:	00913c23          	sd	s1,24(sp)
     aa8:	01213823          	sd	s2,16(sp)
     aac:	01313423          	sd	s3,8(sp)
     ab0:	01413023          	sd	s4,0(sp)
     ab4:	02113423          	sd	ra,40(sp)
     ab8:	00750413          	addi	s0,a0,7
     abc:	00050913          	mv	s2,a0
     ac0:	00058993          	mv	s3,a1
     ac4:	ff85f493          	andi	s1,a1,-8
     ac8:	dacff0ef          	jal	ra,0x74
     acc:	ff847413          	andi	s0,s0,-8
     ad0:	00050a13          	mv	s4,a0
     ad4:	1d0010ef          	jal	ra,0x1ca4
     ad8:	02050863          	beqz	a0,0xb08
     adc:	0000d597          	auipc	a1,0xd
     ae0:	a6458593          	addi	a1,a1,-1436 # 0xd540
     ae4:	0000c517          	auipc	a0,0xc
     ae8:	7e450513          	addi	a0,a0,2020 # 0xd2c8
     aec:	24d030ef          	jal	ra,0x4538
     af0:	0d200613          	li	a2,210
     af4:	0000d597          	auipc	a1,0xd
     af8:	a4c58593          	addi	a1,a1,-1460 # 0xd540
     afc:	0000c517          	auipc	a0,0xc
     b00:	7f450513          	addi	a0,a0,2036 # 0xd2f0
     b04:	3c1030ef          	jal	ra,0x46c4
     b08:	000a0513          	mv	a0,s4
     b0c:	d70ff0ef          	jal	ra,0x7c
     b10:	04000793          	li	a5,64
     b14:	0c97f463          	bgeu	a5,s1,0xbdc
     b18:	fc048793          	addi	a5,s1,-64
     b1c:	0c87e063          	bltu	a5,s0,0xbdc
     b20:	408484b3          	sub	s1,s1,s0
     b24:	fc048793          	addi	a5,s1,-64
     b28:	00018717          	auipc	a4,0x18
     b2c:	6ef73c23          	sd	a5,1784(a4) # 0x19220
     b30:	000027b7          	lui	a5,0x2
     b34:	fe048493          	addi	s1,s1,-32
     b38:	ea07879b          	addiw	a5,a5,-352
     b3c:	00f42023          	sw	a5,0(s0)
     b40:	00018917          	auipc	s2,0x18
     b44:	6c890913          	addi	s2,s2,1736 # 0x19208
     b48:	00943423          	sd	s1,8(s0)
     b4c:	00040513          	mv	a0,s0
     b50:	00043823          	sd	zero,16(s0)
     b54:	0000c597          	auipc	a1,0xc
     b58:	7a458593          	addi	a1,a1,1956 # 0xd2f8
     b5c:	00893023          	sd	s0,0(s2)
     b60:	aedff0ef          	jal	ra,0x64c
     b64:	00843503          	ld	a0,8(s0)
     b68:	0000c597          	auipc	a1,0xc
     b6c:	79058593          	addi	a1,a1,1936 # 0xd2f8
     b70:	00a40533          	add	a0,s0,a0
     b74:	00018797          	auipc	a5,0x18
     b78:	68a7b623          	sd	a0,1676(a5) # 0x19200
     b7c:	000127b7          	lui	a5,0x12
     b80:	ea07879b          	addiw	a5,a5,-352
     b84:	00f52023          	sw	a5,0(a0)
     b88:	00953423          	sd	s1,8(a0)
     b8c:	00953823          	sd	s1,16(a0)
     b90:	abdff0ef          	jal	ra,0x64c
     b94:	00100693          	li	a3,1
     b98:	00100613          	li	a2,1
     b9c:	0000c597          	auipc	a1,0xc
     ba0:	76458593          	addi	a1,a1,1892 # 0xd300
     ba4:	00019517          	auipc	a0,0x19
     ba8:	85450513          	addi	a0,a0,-1964 # 0x193f8
     bac:	625030ef          	jal	ra,0x49d0
     bb0:	00093783          	ld	a5,0(s2)
     bb4:	02813083          	ld	ra,40(sp)
     bb8:	02013403          	ld	s0,32(sp)
     bbc:	00018717          	auipc	a4,0x18
     bc0:	64f73a23          	sd	a5,1620(a4) # 0x19210
     bc4:	01813483          	ld	s1,24(sp)
     bc8:	01013903          	ld	s2,16(sp)
     bcc:	00813983          	ld	s3,8(sp)
     bd0:	00013a03          	ld	s4,0(sp)
     bd4:	03010113          	addi	sp,sp,48
     bd8:	00008067          	ret
     bdc:	02013403          	ld	s0,32(sp)
     be0:	02813083          	ld	ra,40(sp)
     be4:	01813483          	ld	s1,24(sp)
     be8:	00013a03          	ld	s4,0(sp)
     bec:	00098613          	mv	a2,s3
     bf0:	00090593          	mv	a1,s2
     bf4:	00813983          	ld	s3,8(sp)
     bf8:	01013903          	ld	s2,16(sp)
     bfc:	0000c517          	auipc	a0,0xc
     c00:	70c50513          	addi	a0,a0,1804 # 0xd308
     c04:	03010113          	addi	sp,sp,48
     c08:	1310306f          	j	0x4538
     c0c:	f9010113          	addi	sp,sp,-112
     c10:	06113423          	sd	ra,104(sp)
     c14:	06813023          	sd	s0,96(sp)
     c18:	04913c23          	sd	s1,88(sp)
     c1c:	05213823          	sd	s2,80(sp)
     c20:	05313423          	sd	s3,72(sp)
     c24:	05413023          	sd	s4,64(sp)
     c28:	03513c23          	sd	s5,56(sp)
     c2c:	03613823          	sd	s6,48(sp)
     c30:	03713423          	sd	s7,40(sp)
     c34:	03813023          	sd	s8,32(sp)
     c38:	01913c23          	sd	s9,24(sp)
     c3c:	01a13823          	sd	s10,16(sp)
     c40:	01b13423          	sd	s11,8(sp)
     c44:	00051663          	bnez	a0,0xc50
     c48:	00000913          	li	s2,0
     c4c:	24c0006f          	j	0xe98
     c50:	00050413          	mv	s0,a0
     c54:	c20ff0ef          	jal	ra,0x74
     c58:	00050493          	mv	s1,a0
     c5c:	048010ef          	jal	ra,0x1ca4
     c60:	02050863          	beqz	a0,0xc90
     c64:	0000d597          	auipc	a1,0xd
     c68:	8f458593          	addi	a1,a1,-1804 # 0xd558
     c6c:	0000c517          	auipc	a0,0xc
     c70:	65c50513          	addi	a0,a0,1628 # 0xd2c8
     c74:	0c5030ef          	jal	ra,0x4538
     c78:	11800613          	li	a2,280
     c7c:	0000d597          	auipc	a1,0xd
     c80:	8dc58593          	addi	a1,a1,-1828 # 0xd558
     c84:	0000c517          	auipc	a0,0xc
     c88:	66c50513          	addi	a0,a0,1644 # 0xd2f0
     c8c:	239030ef          	jal	ra,0x46c4
     c90:	00048513          	mv	a0,s1
     c94:	be8ff0ef          	jal	ra,0x7c
     c98:	00018797          	auipc	a5,0x18
     c9c:	58878793          	addi	a5,a5,1416 # 0x19220
     ca0:	0007b703          	ld	a4,0(a5)
     ca4:	00740413          	addi	s0,s0,7
     ca8:	ff847413          	andi	s0,s0,-8
     cac:	00078493          	mv	s1,a5
     cb0:	f8876ce3          	bltu	a4,s0,0xc48
     cb4:	01800793          	li	a5,24
     cb8:	00f47463          	bgeu	s0,a5,0xcc0
     cbc:	01800413          	li	s0,24
     cc0:	fff00593          	li	a1,-1
     cc4:	00018517          	auipc	a0,0x18
     cc8:	73450513          	addi	a0,a0,1844 # 0x193f8
     ccc:	5ad030ef          	jal	ra,0x4a78
     cd0:	00018a97          	auipc	s5,0x18
     cd4:	538a8a93          	addi	s5,s5,1336 # 0x19208
     cd8:	00018997          	auipc	s3,0x18
     cdc:	53898993          	addi	s3,s3,1336 # 0x19210
     ce0:	000abb83          	ld	s7,0(s5)
     ce4:	0009b783          	ld	a5,0(s3)
     ce8:	0004bc03          	ld	s8,0(s1)
     cec:	417787b3          	sub	a5,a5,s7
     cf0:	408c0633          	sub	a2,s8,s0
     cf4:	00c7ea63          	bltu	a5,a2,0xd08
     cf8:	00018517          	auipc	a0,0x18
     cfc:	70050513          	addi	a0,a0,1792 # 0x193f8
     d00:	739030ef          	jal	ra,0x4c38
     d04:	f45ff06f          	j	0xc48
     d08:	00fb84b3          	add	s1,s7,a5
     d0c:	0024d703          	lhu	a4,2(s1)
     d10:	0084b683          	ld	a3,8(s1)
     d14:	20071063          	bnez	a4,0xf14
     d18:	40f68733          	sub	a4,a3,a5
     d1c:	fe070893          	addi	a7,a4,-32
     d20:	1e88ea63          	bltu	a7,s0,0xf14
     d24:	00018617          	auipc	a2,0x18
     d28:	4f460613          	addi	a2,a2,1268 # 0x19218
     d2c:	00018597          	auipc	a1,0x18
     d30:	50c58593          	addi	a1,a1,1292 # 0x19238
     d34:	03840513          	addi	a0,s0,56
     d38:	0005b903          	ld	s2,0(a1)
     d3c:	00063d03          	ld	s10,0(a2)
     d40:	02040a13          	addi	s4,s0,32
     d44:	00060d93          	mv	s11,a2
     d48:	18a8e863          	bltu	a7,a0,0xed8
     d4c:	01478cb3          	add	s9,a5,s4
     d50:	00002737          	lui	a4,0x2
     d54:	019b8b33          	add	s6,s7,s9
     d58:	ea07071b          	addiw	a4,a4,-352
     d5c:	00fb3823          	sd	a5,16(s6) # 0x100010
     d60:	00eb2023          	sw	a4,0(s6)
     d64:	00db3423          	sd	a3,8(s6)
     d68:	0000c597          	auipc	a1,0xc
     d6c:	5e058593          	addi	a1,a1,1504 # 0xd348
     d70:	000b0513          	mv	a0,s6
     d74:	8d9ff0ef          	jal	ra,0x64c
     d78:	00100793          	li	a5,1
     d7c:	0194b423          	sd	s9,8(s1)
     d80:	00f49123          	sh	a5,2(s1)
     d84:	008b3783          	ld	a5,8(s6)
     d88:	020c0c13          	addi	s8,s8,32
     d8c:	00018817          	auipc	a6,0x18
     d90:	4ac80813          	addi	a6,a6,1196 # 0x19238
     d94:	01878663          	beq	a5,s8,0xda0
     d98:	00fb8bb3          	add	s7,s7,a5
     d9c:	019bb823          	sd	s9,16(s7)
     da0:	02090793          	addi	a5,s2,32
     da4:	008787b3          	add	a5,a5,s0
     da8:	00f83023          	sd	a5,0(a6)
     dac:	00fd7463          	bgeu	s10,a5,0xdb4
     db0:	00fdb023          	sd	a5,0(s11)
     db4:	000027b7          	lui	a5,0x2
     db8:	ea07879b          	addiw	a5,a5,-352
     dbc:	00f49023          	sh	a5,0(s1)
     dc0:	294010ef          	jal	ra,0x2054
     dc4:	0000c597          	auipc	a1,0xc
     dc8:	58c58593          	addi	a1,a1,1420 # 0xd350
     dcc:	00050663          	beqz	a0,0xdd8
     dd0:	284010ef          	jal	ra,0x2054
     dd4:	00050593          	mv	a1,a0
     dd8:	00048513          	mv	a0,s1
     ddc:	871ff0ef          	jal	ra,0x64c
     de0:	0009b783          	ld	a5,0(s3)
     de4:	00018917          	auipc	s2,0x18
     de8:	41c90913          	addi	s2,s2,1052 # 0x19200
     dec:	02979063          	bne	a5,s1,0xe0c
     df0:	00093683          	ld	a3,0(s2)
     df4:	000ab603          	ld	a2,0(s5)
     df8:	00000713          	li	a4,0
     dfc:	0027d583          	lhu	a1,2(a5) # 0x2002
     e00:	10059263          	bnez	a1,0xf04
     e04:	00070463          	beqz	a4,0xe0c
     e08:	00f9b023          	sd	a5,0(s3)
     e0c:	00018517          	auipc	a0,0x18
     e10:	5ec50513          	addi	a0,a0,1516 # 0x193f8
     e14:	625030ef          	jal	ra,0x4c38
     e18:	00093783          	ld	a5,0(s2)
     e1c:	01448a33          	add	s4,s1,s4
     e20:	0147fe63          	bgeu	a5,s4,0xe3c
     e24:	18600613          	li	a2,390
     e28:	0000c597          	auipc	a1,0xc
     e2c:	73058593          	addi	a1,a1,1840 # 0xd558
     e30:	0000c517          	auipc	a0,0xc
     e34:	52850513          	addi	a0,a0,1320 # 0xd358
     e38:	08d030ef          	jal	ra,0x46c4
     e3c:	0074f793          	andi	a5,s1,7
     e40:	02048913          	addi	s2,s1,32
     e44:	00078e63          	beqz	a5,0xe60
     e48:	18700613          	li	a2,391
     e4c:	0000c597          	auipc	a1,0xc
     e50:	70c58593          	addi	a1,a1,1804 # 0xd558
     e54:	0000c517          	auipc	a0,0xc
     e58:	54c50513          	addi	a0,a0,1356 # 0xd3a0
     e5c:	069030ef          	jal	ra,0x46c4
     e60:	0074f493          	andi	s1,s1,7
     e64:	00048e63          	beqz	s1,0xe80
     e68:	18800613          	li	a2,392
     e6c:	0000c597          	auipc	a1,0xc
     e70:	6ec58593          	addi	a1,a1,1772 # 0xd558
     e74:	0000c517          	auipc	a0,0xc
     e78:	57c50513          	addi	a0,a0,1404 # 0xd3f0
     e7c:	049030ef          	jal	ra,0x46c4
     e80:	00018797          	auipc	a5,0x18
     e84:	3b07b783          	ld	a5,944(a5) # 0x19230
     e88:	00078863          	beqz	a5,0xe98
     e8c:	00040593          	mv	a1,s0
     e90:	00090513          	mv	a0,s2
     e94:	000780e7          	jalr	a5
     e98:	06813083          	ld	ra,104(sp)
     e9c:	06013403          	ld	s0,96(sp)
     ea0:	05813483          	ld	s1,88(sp)
     ea4:	04813983          	ld	s3,72(sp)
     ea8:	04013a03          	ld	s4,64(sp)
     eac:	03813a83          	ld	s5,56(sp)
     eb0:	03013b03          	ld	s6,48(sp)
     eb4:	02813b83          	ld	s7,40(sp)
     eb8:	02013c03          	ld	s8,32(sp)
     ebc:	01813c83          	ld	s9,24(sp)
     ec0:	01013d03          	ld	s10,16(sp)
     ec4:	00813d83          	ld	s11,8(sp)
     ec8:	00090513          	mv	a0,s2
     ecc:	05013903          	ld	s2,80(sp)
     ed0:	07010113          	addi	sp,sp,112
     ed4:	00008067          	ret
     ed8:	00100793          	li	a5,1
     edc:	00f49123          	sh	a5,2(s1)
     ee0:	012707b3          	add	a5,a4,s2
     ee4:	00f5b023          	sd	a5,0(a1)
     ee8:	ecfd76e3          	bgeu	s10,a5,0xdb4
     eec:	00f63023          	sd	a5,0(a2)
     ef0:	ec5ff06f          	j	0xdb4
     ef4:	0087b783          	ld	a5,8(a5)
     ef8:	00100713          	li	a4,1
     efc:	00f607b3          	add	a5,a2,a5
     f00:	efdff06f          	j	0xdfc
     f04:	fef698e3          	bne	a3,a5,0xef4
     f08:	f00702e3          	beqz	a4,0xe0c
     f0c:	00d9b023          	sd	a3,0(s3)
     f10:	efdff06f          	j	0xe0c
     f14:	00068793          	mv	a5,a3
     f18:	dddff06f          	j	0xcf4
     f1c:	fe010113          	addi	sp,sp,-32
     f20:	00113c23          	sd	ra,24(sp)
     f24:	00813823          	sd	s0,16(sp)
     f28:	928ff0ef          	jal	ra,0x50
     f2c:	00a13423          	sd	a0,8(sp)
     f30:	cddff0ef          	jal	ra,0xc0c
     f34:	00050413          	mv	s0,a0
     f38:	00050863          	beqz	a0,0xf48
     f3c:	00813603          	ld	a2,8(sp)
     f40:	00000593          	li	a1,0
     f44:	425020ef          	jal	ra,0x3b68
     f48:	01813083          	ld	ra,24(sp)
     f4c:	00040513          	mv	a0,s0
     f50:	01013403          	ld	s0,16(sp)
     f54:	02010113          	addi	sp,sp,32
     f58:	00008067          	ret
     f5c:	20050663          	beqz	a0,0x1168
     f60:	fe010113          	addi	sp,sp,-32
     f64:	00813823          	sd	s0,16(sp)
     f68:	00913423          	sd	s1,8(sp)
     f6c:	00113c23          	sd	ra,24(sp)
     f70:	01213023          	sd	s2,0(sp)
     f74:	00050413          	mv	s0,a0
     f78:	8fcff0ef          	jal	ra,0x74
     f7c:	00050493          	mv	s1,a0
     f80:	525000ef          	jal	ra,0x1ca4
     f84:	02050863          	beqz	a0,0xfb4
     f88:	00010597          	auipc	a1,0x10
     f8c:	00058593          	mv	a1,a1
     f90:	0000c517          	auipc	a0,0xc
     f94:	33850513          	addi	a0,a0,824 # 0xd2c8
     f98:	5a0030ef          	jal	ra,0x4538
     f9c:	22f00613          	li	a2,559
     fa0:	00010597          	auipc	a1,0x10
     fa4:	fe858593          	addi	a1,a1,-24 # 0x10f88
     fa8:	0000c517          	auipc	a0,0xc
     fac:	34850513          	addi	a0,a0,840 # 0xd2f0
     fb0:	714030ef          	jal	ra,0x46c4
     fb4:	00048513          	mv	a0,s1
     fb8:	8c4ff0ef          	jal	ra,0x7c
     fbc:	00747793          	andi	a5,s0,7
     fc0:	00078e63          	beqz	a5,0xfdc
     fc4:	23100613          	li	a2,561
     fc8:	00010597          	auipc	a1,0x10
     fcc:	fc058593          	addi	a1,a1,-64 # 0x10f88
     fd0:	0000c517          	auipc	a0,0xc
     fd4:	45050513          	addi	a0,a0,1104 # 0xd420
     fd8:	6ec030ef          	jal	ra,0x46c4
     fdc:	00018917          	auipc	s2,0x18
     fe0:	22c90913          	addi	s2,s2,556 # 0x19208
     fe4:	00093783          	ld	a5,0(s2)
     fe8:	00f46863          	bltu	s0,a5,0xff8
     fec:	00018797          	auipc	a5,0x18
     ff0:	2147b783          	ld	a5,532(a5) # 0x19200
     ff4:	00f46e63          	bltu	s0,a5,0x1010
     ff8:	23200613          	li	a2,562
     ffc:	00010597          	auipc	a1,0x10
    1000:	f8c58593          	addi	a1,a1,-116 # 0x10f88
    1004:	0000c517          	auipc	a0,0xc
    1008:	44c50513          	addi	a0,a0,1100 # 0xd450
    100c:	6b8030ef          	jal	ra,0x46c4
    1010:	00018797          	auipc	a5,0x18
    1014:	2187b783          	ld	a5,536(a5) # 0x19228
    1018:	00078663          	beqz	a5,0x1024
    101c:	00040513          	mv	a0,s0
    1020:	000780e7          	jalr	a5
    1024:	00093783          	ld	a5,0(s2)
    1028:	12f46463          	bltu	s0,a5,0x1150
    102c:	00018797          	auipc	a5,0x18
    1030:	1d47b783          	ld	a5,468(a5) # 0x19200
    1034:	10f47e63          	bgeu	s0,a5,0x1150
    1038:	fff00593          	li	a1,-1
    103c:	00018517          	auipc	a0,0x18
    1040:	3bc50513          	addi	a0,a0,956 # 0x193f8
    1044:	235030ef          	jal	ra,0x4a78
    1048:	fe245783          	lhu	a5,-30(s0)
    104c:	fe040493          	addi	s1,s0,-32
    1050:	00078a63          	beqz	a5,0x1064
    1054:	fe045703          	lhu	a4,-32(s0)
    1058:	000027b7          	lui	a5,0x2
    105c:	ea078793          	addi	a5,a5,-352 # 0x1ea0
    1060:	06f70863          	beq	a4,a5,0x10d0
    1064:	0000c517          	auipc	a0,0xc
    1068:	44c50513          	addi	a0,a0,1100 # 0xd4b0
    106c:	4cc030ef          	jal	ra,0x4538
    1070:	fe045683          	lhu	a3,-32(s0)
    1074:	fe245603          	lhu	a2,-30(s0)
    1078:	00048593          	mv	a1,s1
    107c:	0000c517          	auipc	a0,0xc
    1080:	45450513          	addi	a0,a0,1108 # 0xd4d0
    1084:	4b4030ef          	jal	ra,0x4538
    1088:	fe245783          	lhu	a5,-30(s0)
    108c:	00079e63          	bnez	a5,0x10a8
    1090:	25100613          	li	a2,593
    1094:	00010597          	auipc	a1,0x10
    1098:	ef458593          	addi	a1,a1,-268 # 0x10f88
    109c:	0000c517          	auipc	a0,0xc
    10a0:	46450513          	addi	a0,a0,1124 # 0xd500
    10a4:	620030ef          	jal	ra,0x46c4
    10a8:	fe045703          	lhu	a4,-32(s0)
    10ac:	000027b7          	lui	a5,0x2
    10b0:	ea078793          	addi	a5,a5,-352 # 0x1ea0
    10b4:	00f70e63          	beq	a4,a5,0x10d0
    10b8:	25200613          	li	a2,594
    10bc:	00010597          	auipc	a1,0x10
    10c0:	ecc58593          	addi	a1,a1,-308 # 0x10f88
    10c4:	0000c517          	auipc	a0,0xc
    10c8:	44c50513          	addi	a0,a0,1100 # 0xd510
    10cc:	5f8030ef          	jal	ra,0x46c4
    10d0:	000027b7          	lui	a5,0x2
    10d4:	ea07879b          	addiw	a5,a5,-352
    10d8:	fef41023          	sh	a5,-32(s0)
    10dc:	fe041123          	sh	zero,-30(s0)
    10e0:	0000c597          	auipc	a1,0xc
    10e4:	26858593          	addi	a1,a1,616 # 0xd348
    10e8:	00048513          	mv	a0,s1
    10ec:	d60ff0ef          	jal	ra,0x64c
    10f0:	00018797          	auipc	a5,0x18
    10f4:	12078793          	addi	a5,a5,288 # 0x19210
    10f8:	0007b703          	ld	a4,0(a5)
    10fc:	00e4f463          	bgeu	s1,a4,0x1104
    1100:	0097b023          	sd	s1,0(a5)
    1104:	00018697          	auipc	a3,0x18
    1108:	13468693          	addi	a3,a3,308 # 0x19238
    110c:	fe843703          	ld	a4,-24(s0)
    1110:	0006b783          	ld	a5,0(a3)
    1114:	00048513          	mv	a0,s1
    1118:	40e787b3          	sub	a5,a5,a4
    111c:	00093703          	ld	a4,0(s2)
    1120:	40e48733          	sub	a4,s1,a4
    1124:	00e787b3          	add	a5,a5,a4
    1128:	00f6b023          	sd	a5,0(a3)
    112c:	f54ff0ef          	jal	ra,0x880
    1130:	01013403          	ld	s0,16(sp)
    1134:	01813083          	ld	ra,24(sp)
    1138:	00813483          	ld	s1,8(sp)
    113c:	00013903          	ld	s2,0(sp)
    1140:	00018517          	auipc	a0,0x18
    1144:	2b850513          	addi	a0,a0,696 # 0x193f8
    1148:	02010113          	addi	sp,sp,32
    114c:	2ed0306f          	j	0x4c38
    1150:	01813083          	ld	ra,24(sp)
    1154:	01013403          	ld	s0,16(sp)
    1158:	00813483          	ld	s1,8(sp)
    115c:	00013903          	ld	s2,0(sp)
    1160:	02010113          	addi	sp,sp,32
    1164:	00008067          	ret
    1168:	00008067          	ret
    116c:	fc010113          	addi	sp,sp,-64
    1170:	02813823          	sd	s0,48(sp)
    1174:	02913423          	sd	s1,40(sp)
    1178:	03213023          	sd	s2,32(sp)
    117c:	02113c23          	sd	ra,56(sp)
    1180:	01313c23          	sd	s3,24(sp)
    1184:	01413823          	sd	s4,16(sp)
    1188:	00050493          	mv	s1,a0
    118c:	00058413          	mv	s0,a1
    1190:	ee5fe0ef          	jal	ra,0x74
    1194:	00050913          	mv	s2,a0
    1198:	30d000ef          	jal	ra,0x1ca4
    119c:	02050863          	beqz	a0,0x11cc
    11a0:	0000c597          	auipc	a1,0xc
    11a4:	3c858593          	addi	a1,a1,968 # 0xd568
    11a8:	0000c517          	auipc	a0,0xc
    11ac:	12050513          	addi	a0,a0,288 # 0xd2c8
    11b0:	388030ef          	jal	ra,0x4538
    11b4:	1ac00613          	li	a2,428
    11b8:	0000c597          	auipc	a1,0xc
    11bc:	3b058593          	addi	a1,a1,944 # 0xd568
    11c0:	0000c517          	auipc	a0,0xc
    11c4:	13050513          	addi	a0,a0,304 # 0xd2f0
    11c8:	4fc030ef          	jal	ra,0x46c4
    11cc:	00090513          	mv	a0,s2
    11d0:	eadfe0ef          	jal	ra,0x7c
    11d4:	00018a17          	auipc	s4,0x18
    11d8:	04ca0a13          	addi	s4,s4,76 # 0x19220
    11dc:	000a3783          	ld	a5,0(s4)
    11e0:	00740413          	addi	s0,s0,7
    11e4:	ff847413          	andi	s0,s0,-8
    11e8:	0087e863          	bltu	a5,s0,0x11f8
    11ec:	00041a63          	bnez	s0,0x1200
    11f0:	00048513          	mv	a0,s1
    11f4:	d69ff0ef          	jal	ra,0xf5c
    11f8:	00000913          	li	s2,0
    11fc:	0640006f          	j	0x1260
    1200:	02049463          	bnez	s1,0x1228
    1204:	00040513          	mv	a0,s0
    1208:	03013403          	ld	s0,48(sp)
    120c:	03813083          	ld	ra,56(sp)
    1210:	02813483          	ld	s1,40(sp)
    1214:	02013903          	ld	s2,32(sp)
    1218:	01813983          	ld	s3,24(sp)
    121c:	01013a03          	ld	s4,16(sp)
    1220:	04010113          	addi	sp,sp,64
    1224:	9e9ff06f          	j	0xc0c
    1228:	fff00593          	li	a1,-1
    122c:	00018517          	auipc	a0,0x18
    1230:	1cc50513          	addi	a0,a0,460 # 0x193f8
    1234:	045030ef          	jal	ra,0x4a78
    1238:	00018917          	auipc	s2,0x18
    123c:	fd093903          	ld	s2,-48(s2) # 0x19208
    1240:	0124e863          	bltu	s1,s2,0x1250
    1244:	00018797          	auipc	a5,0x18
    1248:	fbc7b783          	ld	a5,-68(a5) # 0x19200
    124c:	02f4ec63          	bltu	s1,a5,0x1284
    1250:	00018517          	auipc	a0,0x18
    1254:	1a850513          	addi	a0,a0,424 # 0x193f8
    1258:	1e1030ef          	jal	ra,0x4c38
    125c:	00048913          	mv	s2,s1
    1260:	03813083          	ld	ra,56(sp)
    1264:	03013403          	ld	s0,48(sp)
    1268:	02813483          	ld	s1,40(sp)
    126c:	01813983          	ld	s3,24(sp)
    1270:	01013a03          	ld	s4,16(sp)
    1274:	00090513          	mv	a0,s2
    1278:	02013903          	ld	s2,32(sp)
    127c:	04010113          	addi	sp,sp,64
    1280:	00008067          	ret
    1284:	fe84b683          	ld	a3,-24(s1)
    1288:	fe048793          	addi	a5,s1,-32
    128c:	412787b3          	sub	a5,a5,s2
    1290:	fe068593          	addi	a1,a3,-32
    1294:	40f589b3          	sub	s3,a1,a5
    1298:	fb340ce3          	beq	s0,s3,0x1250
    129c:	03840713          	addi	a4,s0,56
    12a0:	09377463          	bgeu	a4,s3,0x1328
    12a4:	00018617          	auipc	a2,0x18
    12a8:	f9460613          	addi	a2,a2,-108 # 0x19238
    12ac:	00063703          	ld	a4,0(a2)
    12b0:	00f40433          	add	s0,s0,a5
    12b4:	00e40733          	add	a4,s0,a4
    12b8:	40b70733          	sub	a4,a4,a1
    12bc:	00e63023          	sd	a4,0(a2)
    12c0:	02040413          	addi	s0,s0,32
    12c4:	00002737          	lui	a4,0x2
    12c8:	00890533          	add	a0,s2,s0
    12cc:	ea07071b          	addiw	a4,a4,-352
    12d0:	00e52023          	sw	a4,0(a0)
    12d4:	00f53823          	sd	a5,16(a0)
    12d8:	00d53423          	sd	a3,8(a0)
    12dc:	0000c597          	auipc	a1,0xc
    12e0:	06c58593          	addi	a1,a1,108 # 0xd348
    12e4:	00a13423          	sd	a0,8(sp)
    12e8:	b64ff0ef          	jal	ra,0x64c
    12ec:	00813503          	ld	a0,8(sp)
    12f0:	000a3783          	ld	a5,0(s4)
    12f4:	fe84b423          	sd	s0,-24(s1)
    12f8:	00853703          	ld	a4,8(a0)
    12fc:	02078793          	addi	a5,a5,32
    1300:	00f70663          	beq	a4,a5,0x130c
    1304:	00e90933          	add	s2,s2,a4
    1308:	00893823          	sd	s0,16(s2)
    130c:	00018797          	auipc	a5,0x18
    1310:	f0478793          	addi	a5,a5,-252 # 0x19210
    1314:	0007b703          	ld	a4,0(a5)
    1318:	00e57463          	bgeu	a0,a4,0x1320
    131c:	00a7b023          	sd	a0,0(a5)
    1320:	d60ff0ef          	jal	ra,0x880
    1324:	f2dff06f          	j	0x1250
    1328:	00018517          	auipc	a0,0x18
    132c:	0d050513          	addi	a0,a0,208 # 0x193f8
    1330:	109030ef          	jal	ra,0x4c38
    1334:	00040513          	mv	a0,s0
    1338:	8d5ff0ef          	jal	ra,0xc0c
    133c:	00050913          	mv	s2,a0
    1340:	f20500e3          	beqz	a0,0x1260
    1344:	00040613          	mv	a2,s0
    1348:	0089f463          	bgeu	s3,s0,0x1350
    134c:	00098613          	mv	a2,s3
    1350:	00048593          	mv	a1,s1
    1354:	00090513          	mv	a0,s2
    1358:	0bd020ef          	jal	ra,0x3c14
    135c:	00048513          	mv	a0,s1
    1360:	bfdff0ef          	jal	ra,0xf5c
    1364:	efdff06f          	j	0x1260
    1368:	02853683          	ld	a3,40(a0)
    136c:	03053703          	ld	a4,48(a0)
    1370:	02850793          	addi	a5,a0,40
    1374:	00e6b423          	sd	a4,8(a3)
    1378:	00d73023          	sd	a3,0(a4) # 0x2000
    137c:	02f53823          	sd	a5,48(a0)
    1380:	02f53423          	sd	a5,40(a0)
    1384:	00008067          	ret
    1388:	fc010113          	addi	sp,sp,-64
    138c:	02813823          	sd	s0,48(sp)
    1390:	02913423          	sd	s1,40(sp)
    1394:	03213023          	sd	s2,32(sp)
    1398:	01313c23          	sd	s3,24(sp)
    139c:	01413823          	sd	s4,16(sp)
    13a0:	01513423          	sd	s5,8(sp)
    13a4:	02113c23          	sd	ra,56(sp)
    13a8:	00050413          	mv	s0,a0
    13ac:	00058a93          	mv	s5,a1
    13b0:	00060a13          	mv	s4,a2
    13b4:	00068993          	mv	s3,a3
    13b8:	00070913          	mv	s2,a4
    13bc:	00078493          	mv	s1,a5
    13c0:	00051e63          	bnez	a0,0x13dc
    13c4:	0c900613          	li	a2,201
    13c8:	0000c597          	auipc	a1,0xc
    13cc:	30058593          	addi	a1,a1,768 # 0xd6c8
    13d0:	0000c517          	auipc	a0,0xc
    13d4:	23050513          	addi	a0,a0,560 # 0xd600
    13d8:	2ec030ef          	jal	ra,0x46c4
    13dc:	000a8613          	mv	a2,s5
    13e0:	00040513          	mv	a0,s0
    13e4:	00a00593          	li	a1,10
    13e8:	7c9010ef          	jal	ra,0x33b0
    13ec:	02840793          	addi	a5,s0,40
    13f0:	ffe4f493          	andi	s1,s1,-2
    13f4:	00940aa3          	sb	s1,21(s0)
    13f8:	03443c23          	sd	s4,56(s0)
    13fc:	05343023          	sd	s3,64(s0)
    1400:	05242423          	sw	s2,72(s0)
    1404:	03813083          	ld	ra,56(sp)
    1408:	04042623          	sw	zero,76(s0)
    140c:	02f43823          	sd	a5,48(s0)
    1410:	02f43423          	sd	a5,40(s0)
    1414:	03013403          	ld	s0,48(sp)
    1418:	02813483          	ld	s1,40(sp)
    141c:	02013903          	ld	s2,32(sp)
    1420:	01813983          	ld	s3,24(sp)
    1424:	01013a03          	ld	s4,16(sp)
    1428:	00813a83          	ld	s5,8(sp)
    142c:	04010113          	addi	sp,sp,64
    1430:	00008067          	ret
    1434:	fe010113          	addi	sp,sp,-32
    1438:	00813823          	sd	s0,16(sp)
    143c:	00113c23          	sd	ra,24(sp)
    1440:	00913423          	sd	s1,8(sp)
    1444:	00050413          	mv	s0,a0
    1448:	00051e63          	bnez	a0,0x1464
    144c:	0de00613          	li	a2,222
    1450:	0000c597          	auipc	a1,0xc
    1454:	28858593          	addi	a1,a1,648 # 0xd6d8
    1458:	0000c517          	auipc	a0,0xc
    145c:	1a850513          	addi	a0,a0,424 # 0xd600
    1460:	264030ef          	jal	ra,0x46c4
    1464:	00040513          	mv	a0,s0
    1468:	2c8020ef          	jal	ra,0x3730
    146c:	00a00793          	li	a5,10
    1470:	00f50e63          	beq	a0,a5,0x148c
    1474:	0df00613          	li	a2,223
    1478:	0000c597          	auipc	a1,0xc
    147c:	26058593          	addi	a1,a1,608 # 0xd6d8
    1480:	0000c517          	auipc	a0,0xc
    1484:	19850513          	addi	a0,a0,408 # 0xd618
    1488:	23c030ef          	jal	ra,0x46c4
    148c:	00040513          	mv	a0,s0
    1490:	25c020ef          	jal	ra,0x36ec
    1494:	00051e63          	bnez	a0,0x14b0
    1498:	0e000613          	li	a2,224
    149c:	0000c597          	auipc	a1,0xc
    14a0:	23c58593          	addi	a1,a1,572 # 0xd6d8
    14a4:	0000c517          	auipc	a0,0xc
    14a8:	1b450513          	addi	a0,a0,436 # 0xd658
    14ac:	218030ef          	jal	ra,0x46c4
    14b0:	bc5fe0ef          	jal	ra,0x74
    14b4:	00050493          	mv	s1,a0
    14b8:	00040513          	mv	a0,s0
    14bc:	eadff0ef          	jal	ra,0x1368
    14c0:	01544783          	lbu	a5,21(s0)
    14c4:	00048513          	mv	a0,s1
    14c8:	ffe7f793          	andi	a5,a5,-2
    14cc:	00f40aa3          	sb	a5,21(s0)
    14d0:	badfe0ef          	jal	ra,0x7c
    14d4:	00040513          	mv	a0,s0
    14d8:	7ed010ef          	jal	ra,0x34c4
    14dc:	01813083          	ld	ra,24(sp)
    14e0:	01013403          	ld	s0,16(sp)
    14e4:	00813483          	ld	s1,8(sp)
    14e8:	00000513          	li	a0,0
    14ec:	02010113          	addi	sp,sp,32
    14f0:	00008067          	ret
    14f4:	fe010113          	addi	sp,sp,-32
    14f8:	00813823          	sd	s0,16(sp)
    14fc:	00113c23          	sd	ra,24(sp)
    1500:	00913423          	sd	s1,8(sp)
    1504:	00050413          	mv	s0,a0
    1508:	00051e63          	bnez	a0,0x1524
    150c:	14500613          	li	a2,325
    1510:	0000c597          	auipc	a1,0xc
    1514:	1d858593          	addi	a1,a1,472 # 0xd6e8
    1518:	0000c517          	auipc	a0,0xc
    151c:	0e850513          	addi	a0,a0,232 # 0xd600
    1520:	1a4030ef          	jal	ra,0x46c4
    1524:	00040513          	mv	a0,s0
    1528:	208020ef          	jal	ra,0x3730
    152c:	00a00793          	li	a5,10
    1530:	00f50e63          	beq	a0,a5,0x154c
    1534:	14600613          	li	a2,326
    1538:	0000c597          	auipc	a1,0xc
    153c:	1b058593          	addi	a1,a1,432 # 0xd6e8
    1540:	0000c517          	auipc	a0,0xc
    1544:	0d850513          	addi	a0,a0,216 # 0xd618
    1548:	17c030ef          	jal	ra,0x46c4
    154c:	b29fe0ef          	jal	ra,0x74
    1550:	00050493          	mv	s1,a0
    1554:	00040513          	mv	a0,s0
    1558:	e11ff0ef          	jal	ra,0x1368
    155c:	01544783          	lbu	a5,21(s0)
    1560:	ffe7f793          	andi	a5,a5,-2
    1564:	00f40aa3          	sb	a5,21(s0)
    1568:	00018797          	auipc	a5,0x18
    156c:	d687b783          	ld	a5,-664(a5) # 0x192d0
    1570:	00078663          	beqz	a5,0x157c
    1574:	00040513          	mv	a0,s0
    1578:	000780e7          	jalr	a5
    157c:	04842703          	lw	a4,72(s0)
    1580:	800007b7          	lui	a5,0x80000
    1584:	ffe7c793          	xori	a5,a5,-2
    1588:	00e7fe63          	bgeu	a5,a4,0x15a4
    158c:	15500613          	li	a2,341
    1590:	0000c597          	auipc	a1,0xc
    1594:	15858593          	addi	a1,a1,344 # 0xd6e8
    1598:	0000c517          	auipc	a0,0xc
    159c:	0f050513          	addi	a0,a0,240 # 0xd688
    15a0:	124030ef          	jal	ra,0x46c4
    15a4:	4cd010ef          	jal	ra,0x3270
    15a8:	04842783          	lw	a5,72(s0)
    15ac:	01544703          	lbu	a4,21(s0)
    15b0:	00a785bb          	addw	a1,a5,a0
    15b4:	04b42623          	sw	a1,76(s0)
    15b8:	00477713          	andi	a4,a4,4
    15bc:	00018797          	auipc	a5,0x18
    15c0:	e7c78793          	addi	a5,a5,-388 # 0x19438
    15c4:	00071663          	bnez	a4,0x15d0
    15c8:	00018797          	auipc	a5,0x18
    15cc:	e8078793          	addi	a5,a5,-384 # 0x19448
    15d0:	0087b503          	ld	a0,8(a5)
    15d4:	80000637          	lui	a2,0x80000
    15d8:	ffe64613          	xori	a2,a2,-2
    15dc:	0007b703          	ld	a4,0(a5)
    15e0:	08f51a63          	bne	a0,a5,0x1674
    15e4:	00018617          	auipc	a2,0x18
    15e8:	c5c60613          	addi	a2,a2,-932 # 0x19240
    15ec:	00062683          	lw	a3,0(a2)
    15f0:	00048513          	mv	a0,s1
    15f4:	0016869b          	addiw	a3,a3,1
    15f8:	00d62023          	sw	a3,0(a2)
    15fc:	02840693          	addi	a3,s0,40
    1600:	00d73423          	sd	a3,8(a4)
    1604:	02e43423          	sd	a4,40(s0)
    1608:	00d7b023          	sd	a3,0(a5)
    160c:	02f43823          	sd	a5,48(s0)
    1610:	01544783          	lbu	a5,21(s0)
    1614:	0017e793          	ori	a5,a5,1
    1618:	00f40aa3          	sb	a5,21(s0)
    161c:	a61fe0ef          	jal	ra,0x7c
    1620:	01544783          	lbu	a5,21(s0)
    1624:	0047f793          	andi	a5,a5,4
    1628:	02078a63          	beqz	a5,0x165c
    162c:	00010717          	auipc	a4,0x10
    1630:	b9c74703          	lbu	a4,-1124(a4) # 0x111c8
    1634:	00100793          	li	a5,1
    1638:	02f71263          	bne	a4,a5,0x165c
    163c:	00018517          	auipc	a0,0x18
    1640:	e1c50513          	addi	a0,a0,-484 # 0x19458
    1644:	06854783          	lbu	a5,104(a0)
    1648:	00200713          	li	a4,2
    164c:	0077f793          	andi	a5,a5,7
    1650:	00e79663          	bne	a5,a4,0x165c
    1654:	685000ef          	jal	ra,0x24d8
    1658:	330010ef          	jal	ra,0x2988
    165c:	01813083          	ld	ra,24(sp)
    1660:	01013403          	ld	s0,16(sp)
    1664:	00813483          	ld	s1,8(sp)
    1668:	00000513          	li	a0,0
    166c:	02010113          	addi	sp,sp,32
    1670:	00008067          	ret
    1674:	02472683          	lw	a3,36(a4)
    1678:	00d58663          	beq	a1,a3,0x1684
    167c:	40b686bb          	subw	a3,a3,a1
    1680:	f6d672e3          	bgeu	a2,a3,0x15e4
    1684:	00070793          	mv	a5,a4
    1688:	f55ff06f          	j	0x15dc
    168c:	fe010113          	addi	sp,sp,-32
    1690:	00813823          	sd	s0,16(sp)
    1694:	00113c23          	sd	ra,24(sp)
    1698:	00913423          	sd	s1,8(sp)
    169c:	00050413          	mv	s0,a0
    16a0:	00051e63          	bnez	a0,0x16bc
    16a4:	1bb00613          	li	a2,443
    16a8:	0000c597          	auipc	a1,0xc
    16ac:	05058593          	addi	a1,a1,80 # 0xd6f8
    16b0:	0000c517          	auipc	a0,0xc
    16b4:	f5050513          	addi	a0,a0,-176 # 0xd600
    16b8:	00c030ef          	jal	ra,0x46c4
    16bc:	00040513          	mv	a0,s0
    16c0:	070020ef          	jal	ra,0x3730
    16c4:	00a00793          	li	a5,10
    16c8:	00f50e63          	beq	a0,a5,0x16e4
    16cc:	1bc00613          	li	a2,444
    16d0:	0000c597          	auipc	a1,0xc
    16d4:	02858593          	addi	a1,a1,40 # 0xd6f8
    16d8:	0000c517          	auipc	a0,0xc
    16dc:	f4050513          	addi	a0,a0,-192 # 0xd618
    16e0:	7e5020ef          	jal	ra,0x46c4
    16e4:	01544783          	lbu	a5,21(s0)
    16e8:	fff00513          	li	a0,-1
    16ec:	0017f793          	andi	a5,a5,1
    16f0:	04078063          	beqz	a5,0x1730
    16f4:	00018797          	auipc	a5,0x18
    16f8:	bd47b783          	ld	a5,-1068(a5) # 0x192c8
    16fc:	00078663          	beqz	a5,0x1708
    1700:	00040513          	mv	a0,s0
    1704:	000780e7          	jalr	a5
    1708:	96dfe0ef          	jal	ra,0x74
    170c:	00050493          	mv	s1,a0
    1710:	00040513          	mv	a0,s0
    1714:	c55ff0ef          	jal	ra,0x1368
    1718:	01544783          	lbu	a5,21(s0)
    171c:	00048513          	mv	a0,s1
    1720:	ffe7f793          	andi	a5,a5,-2
    1724:	00f40aa3          	sb	a5,21(s0)
    1728:	955fe0ef          	jal	ra,0x7c
    172c:	00000513          	li	a0,0
    1730:	01813083          	ld	ra,24(sp)
    1734:	01013403          	ld	s0,16(sp)
    1738:	00813483          	ld	s1,8(sp)
    173c:	02010113          	addi	sp,sp,32
    1740:	00008067          	ret
    1744:	fe010113          	addi	sp,sp,-32
    1748:	00813823          	sd	s0,16(sp)
    174c:	00913423          	sd	s1,8(sp)
    1750:	01213023          	sd	s2,0(sp)
    1754:	00113c23          	sd	ra,24(sp)
    1758:	00050413          	mv	s0,a0
    175c:	00058493          	mv	s1,a1
    1760:	00060913          	mv	s2,a2
    1764:	00051e63          	bnez	a0,0x1780
    1768:	1df00613          	li	a2,479
    176c:	0000c597          	auipc	a1,0xc
    1770:	f9c58593          	addi	a1,a1,-100 # 0xd708
    1774:	0000c517          	auipc	a0,0xc
    1778:	e8c50513          	addi	a0,a0,-372 # 0xd600
    177c:	749020ef          	jal	ra,0x46c4
    1780:	00040513          	mv	a0,s0
    1784:	7ad010ef          	jal	ra,0x3730
    1788:	00a00793          	li	a5,10
    178c:	00f50e63          	beq	a0,a5,0x17a8
    1790:	1e000613          	li	a2,480
    1794:	0000c597          	auipc	a1,0xc
    1798:	f7458593          	addi	a1,a1,-140 # 0xd708
    179c:	0000c517          	auipc	a0,0xc
    17a0:	e7c50513          	addi	a0,a0,-388 # 0xd618
    17a4:	721020ef          	jal	ra,0x46c4
    17a8:	8cdfe0ef          	jal	ra,0x74
    17ac:	00400793          	li	a5,4
    17b0:	0297ea63          	bltu	a5,s1,0x17e4
    17b4:	0000c717          	auipc	a4,0xc
    17b8:	ef870713          	addi	a4,a4,-264 # 0xd6ac
    17bc:	00249493          	slli	s1,s1,0x2
    17c0:	00e484b3          	add	s1,s1,a4
    17c4:	0004a783          	lw	a5,0(s1)
    17c8:	00e787b3          	add	a5,a5,a4
    17cc:	00078067          	jr	a5
    17d0:	04842783          	lw	a5,72(s0)
    17d4:	00f92023          	sw	a5,0(s2)
    17d8:	00c0006f          	j	0x17e4
    17dc:	00092783          	lw	a5,0(s2)
    17e0:	04f42423          	sw	a5,72(s0)
    17e4:	899fe0ef          	jal	ra,0x7c
    17e8:	01813083          	ld	ra,24(sp)
    17ec:	01013403          	ld	s0,16(sp)
    17f0:	00813483          	ld	s1,8(sp)
    17f4:	00013903          	ld	s2,0(sp)
    17f8:	00000513          	li	a0,0
    17fc:	02010113          	addi	sp,sp,32
    1800:	00008067          	ret
    1804:	01544783          	lbu	a5,21(s0)
    1808:	ffd7f793          	andi	a5,a5,-3
    180c:	00f40aa3          	sb	a5,21(s0)
    1810:	fd5ff06f          	j	0x17e4
    1814:	01544783          	lbu	a5,21(s0)
    1818:	0027e793          	ori	a5,a5,2
    181c:	ff1ff06f          	j	0x180c
    1820:	01544783          	lbu	a5,21(s0)
    1824:	0017f793          	andi	a5,a5,1
    1828:	00078663          	beqz	a5,0x1834
    182c:	00100793          	li	a5,1
    1830:	fa5ff06f          	j	0x17d4
    1834:	00092023          	sw	zero,0(s2)
    1838:	fadff06f          	j	0x17e4
    183c:	f9010113          	addi	sp,sp,-112
    1840:	05213823          	sd	s2,80(sp)
    1844:	00010913          	mv	s2,sp
    1848:	06113423          	sd	ra,104(sp)
    184c:	04913c23          	sd	s1,88(sp)
    1850:	05413023          	sd	s4,64(sp)
    1854:	03513c23          	sd	s5,56(sp)
    1858:	03613823          	sd	s6,48(sp)
    185c:	03713423          	sd	s7,40(sp)
    1860:	03813023          	sd	s8,32(sp)
    1864:	01913c23          	sd	s9,24(sp)
    1868:	06813023          	sd	s0,96(sp)
    186c:	05313423          	sd	s3,72(sp)
    1870:	01213423          	sd	s2,8(sp)
    1874:	01213023          	sd	s2,0(sp)
    1878:	1f9010ef          	jal	ra,0x3270
    187c:	0005049b          	sext.w	s1,a0
    1880:	80000ab7          	lui	s5,0x80000
    1884:	ff0fe0ef          	jal	ra,0x74
    1888:	00050a13          	mv	s4,a0
    188c:	00018b17          	auipc	s6,0x18
    1890:	bbcb0b13          	addi	s6,s6,-1092 # 0x19448
    1894:	ffeaca93          	xori	s5,s5,-2
    1898:	00018b97          	auipc	s7,0x18
    189c:	9b0b8b93          	addi	s7,s7,-1616 # 0x19248
    18a0:	00018c17          	auipc	s8,0x18
    18a4:	9b0c0c13          	addi	s8,s8,-1616 # 0x19250
    18a8:	00300c93          	li	s9,3
    18ac:	000b3403          	ld	s0,0(s6)
    18b0:	05641063          	bne	s0,s6,0x18f0
    18b4:	000a0513          	mv	a0,s4
    18b8:	fc4fe0ef          	jal	ra,0x7c
    18bc:	06813083          	ld	ra,104(sp)
    18c0:	06013403          	ld	s0,96(sp)
    18c4:	05813483          	ld	s1,88(sp)
    18c8:	05013903          	ld	s2,80(sp)
    18cc:	04813983          	ld	s3,72(sp)
    18d0:	04013a03          	ld	s4,64(sp)
    18d4:	03813a83          	ld	s5,56(sp)
    18d8:	03013b03          	ld	s6,48(sp)
    18dc:	02813b83          	ld	s7,40(sp)
    18e0:	02013c03          	ld	s8,32(sp)
    18e4:	01813c83          	ld	s9,24(sp)
    18e8:	07010113          	addi	sp,sp,112
    18ec:	00008067          	ret
    18f0:	02442503          	lw	a0,36(s0)
    18f4:	fd840993          	addi	s3,s0,-40
    18f8:	40a484bb          	subw	s1,s1,a0
    18fc:	fa9aece3          	bltu	s5,s1,0x18b4
    1900:	000bb783          	ld	a5,0(s7)
    1904:	00078663          	beqz	a5,0x1910
    1908:	00098513          	mv	a0,s3
    190c:	000780e7          	jalr	a5
    1910:	00098513          	mv	a0,s3
    1914:	a55ff0ef          	jal	ra,0x1368
    1918:	fed44783          	lbu	a5,-19(s0)
    191c:	0027f713          	andi	a4,a5,2
    1920:	00071663          	bnez	a4,0x192c
    1924:	ffe7f793          	andi	a5,a5,-2
    1928:	fef406a3          	sb	a5,-19(s0)
    192c:	00013783          	ld	a5,0(sp)
    1930:	01843503          	ld	a0,24(s0)
    1934:	0087b423          	sd	s0,8(a5)
    1938:	00f43023          	sd	a5,0(s0)
    193c:	01043783          	ld	a5,16(s0)
    1940:	00813023          	sd	s0,0(sp)
    1944:	01243423          	sd	s2,8(s0)
    1948:	000780e7          	jalr	a5
    194c:	125010ef          	jal	ra,0x3270
    1950:	000c3783          	ld	a5,0(s8)
    1954:	0005049b          	sext.w	s1,a0
    1958:	00078663          	beqz	a5,0x1964
    195c:	00098513          	mv	a0,s3
    1960:	000780e7          	jalr	a5
    1964:	00013783          	ld	a5,0(sp)
    1968:	f52782e3          	beq	a5,s2,0x18ac
    196c:	00043703          	ld	a4,0(s0)
    1970:	00843783          	ld	a5,8(s0)
    1974:	00f73423          	sd	a5,8(a4)
    1978:	00e7b023          	sd	a4,0(a5)
    197c:	fed44783          	lbu	a5,-19(s0)
    1980:	00843423          	sd	s0,8(s0)
    1984:	00843023          	sd	s0,0(s0)
    1988:	0037f713          	andi	a4,a5,3
    198c:	f39710e3          	bne	a4,s9,0x18ac
    1990:	ffe7f793          	andi	a5,a5,-2
    1994:	fef406a3          	sb	a5,-19(s0)
    1998:	00098513          	mv	a0,s3
    199c:	b59ff0ef          	jal	ra,0x14f4
    19a0:	f0dff06f          	j	0x18ac
    19a4:	f9010113          	addi	sp,sp,-112
    19a8:	05213823          	sd	s2,80(sp)
    19ac:	00010913          	mv	s2,sp
    19b0:	04913c23          	sd	s1,88(sp)
    19b4:	05413023          	sd	s4,64(sp)
    19b8:	03513c23          	sd	s5,56(sp)
    19bc:	03613823          	sd	s6,48(sp)
    19c0:	03713423          	sd	s7,40(sp)
    19c4:	03813023          	sd	s8,32(sp)
    19c8:	01913c23          	sd	s9,24(sp)
    19cc:	01a13823          	sd	s10,16(sp)
    19d0:	06113423          	sd	ra,104(sp)
    19d4:	06813023          	sd	s0,96(sp)
    19d8:	05313423          	sd	s3,72(sp)
    19dc:	01213423          	sd	s2,8(sp)
    19e0:	01213023          	sd	s2,0(sp)
    19e4:	80000a37          	lui	s4,0x80000
    19e8:	e8cfe0ef          	jal	ra,0x74
    19ec:	00050493          	mv	s1,a0
    19f0:	00018a97          	auipc	s5,0x18
    19f4:	a48a8a93          	addi	s5,s5,-1464 # 0x19438
    19f8:	ffea4a13          	xori	s4,s4,-2
    19fc:	00018b17          	auipc	s6,0x18
    1a00:	84cb0b13          	addi	s6,s6,-1972 # 0x19248
    1a04:	00018b97          	auipc	s7,0x18
    1a08:	84cb8b93          	addi	s7,s7,-1972 # 0x19250
    1a0c:	0000fc17          	auipc	s8,0xf
    1a10:	7bcc0c13          	addi	s8,s8,1980 # 0x111c8
    1a14:	00100c93          	li	s9,1
    1a18:	00300d13          	li	s10,3
    1a1c:	000ab403          	ld	s0,0(s5)
    1a20:	01540c63          	beq	s0,s5,0x1a38
    1a24:	04d010ef          	jal	ra,0x3270
    1a28:	02442783          	lw	a5,36(s0)
    1a2c:	fd840993          	addi	s3,s0,-40
    1a30:	40f5053b          	subw	a0,a0,a5
    1a34:	04aa7263          	bgeu	s4,a0,0x1a78
    1a38:	00048513          	mv	a0,s1
    1a3c:	e40fe0ef          	jal	ra,0x7c
    1a40:	06813083          	ld	ra,104(sp)
    1a44:	06013403          	ld	s0,96(sp)
    1a48:	05813483          	ld	s1,88(sp)
    1a4c:	05013903          	ld	s2,80(sp)
    1a50:	04813983          	ld	s3,72(sp)
    1a54:	04013a03          	ld	s4,64(sp)
    1a58:	03813a83          	ld	s5,56(sp)
    1a5c:	03013b03          	ld	s6,48(sp)
    1a60:	02813b83          	ld	s7,40(sp)
    1a64:	02013c03          	ld	s8,32(sp)
    1a68:	01813c83          	ld	s9,24(sp)
    1a6c:	01013d03          	ld	s10,16(sp)
    1a70:	07010113          	addi	sp,sp,112
    1a74:	00008067          	ret
    1a78:	000b3783          	ld	a5,0(s6)
    1a7c:	00078663          	beqz	a5,0x1a88
    1a80:	00098513          	mv	a0,s3
    1a84:	000780e7          	jalr	a5
    1a88:	00098513          	mv	a0,s3
    1a8c:	8ddff0ef          	jal	ra,0x1368
    1a90:	fed44783          	lbu	a5,-19(s0)
    1a94:	0027f713          	andi	a4,a5,2
    1a98:	00071663          	bnez	a4,0x1aa4
    1a9c:	ffe7f793          	andi	a5,a5,-2
    1aa0:	fef406a3          	sb	a5,-19(s0)
    1aa4:	00013783          	ld	a5,0(sp)
    1aa8:	00048513          	mv	a0,s1
    1aac:	0087b423          	sd	s0,8(a5)
    1ab0:	00f43023          	sd	a5,0(s0)
    1ab4:	01243423          	sd	s2,8(s0)
    1ab8:	0000f797          	auipc	a5,0xf
    1abc:	70078823          	sb	zero,1808(a5) # 0x111c8
    1ac0:	00813023          	sd	s0,0(sp)
    1ac4:	db8fe0ef          	jal	ra,0x7c
    1ac8:	01043783          	ld	a5,16(s0)
    1acc:	01843503          	ld	a0,24(s0)
    1ad0:	000780e7          	jalr	a5
    1ad4:	000bb783          	ld	a5,0(s7)
    1ad8:	00078663          	beqz	a5,0x1ae4
    1adc:	00098513          	mv	a0,s3
    1ae0:	000780e7          	jalr	a5
    1ae4:	d90fe0ef          	jal	ra,0x74
    1ae8:	00013783          	ld	a5,0(sp)
    1aec:	019c0023          	sb	s9,0(s8)
    1af0:	00050493          	mv	s1,a0
    1af4:	f32784e3          	beq	a5,s2,0x1a1c
    1af8:	00043703          	ld	a4,0(s0)
    1afc:	00843783          	ld	a5,8(s0)
    1b00:	00f73423          	sd	a5,8(a4)
    1b04:	00e7b023          	sd	a4,0(a5)
    1b08:	fed44783          	lbu	a5,-19(s0)
    1b0c:	00843423          	sd	s0,8(s0)
    1b10:	00843023          	sd	s0,0(s0)
    1b14:	0037f713          	andi	a4,a5,3
    1b18:	f1a712e3          	bne	a4,s10,0x1a1c
    1b1c:	ffe7f793          	andi	a5,a5,-2
    1b20:	fef406a3          	sb	a5,-19(s0)
    1b24:	00098513          	mv	a0,s3
    1b28:	9cdff0ef          	jal	ra,0x14f4
    1b2c:	ef1ff06f          	j	0x1a1c
    1b30:	fd010113          	addi	sp,sp,-48
    1b34:	00913c23          	sd	s1,24(sp)
    1b38:	800004b7          	lui	s1,0x80000
    1b3c:	01213823          	sd	s2,16(sp)
    1b40:	01313423          	sd	s3,8(sp)
    1b44:	02113423          	sd	ra,40(sp)
    1b48:	02813023          	sd	s0,32(sp)
    1b4c:	00018917          	auipc	s2,0x18
    1b50:	8ec90913          	addi	s2,s2,-1812 # 0x19438
    1b54:	fff00993          	li	s3,-1
    1b58:	ffe4c493          	xori	s1,s1,-2
    1b5c:	d18fe0ef          	jal	ra,0x74
    1b60:	00093783          	ld	a5,0(s2)
    1b64:	fff00413          	li	s0,-1
    1b68:	01278463          	beq	a5,s2,0x1b70
    1b6c:	0247a403          	lw	s0,36(a5)
    1b70:	d0cfe0ef          	jal	ra,0x7c
    1b74:	01341c63          	bne	s0,s3,0x1b8c
    1b78:	4dc000ef          	jal	ra,0x2054
    1b7c:	770000ef          	jal	ra,0x22ec
    1b80:	609000ef          	jal	ra,0x2988
    1b84:	e21ff0ef          	jal	ra,0x19a4
    1b88:	fd5ff06f          	j	0x1b5c
    1b8c:	6e4010ef          	jal	ra,0x3270
    1b90:	40a4053b          	subw	a0,s0,a0
    1b94:	fea4e8e3          	bltu	s1,a0,0x1b84
    1b98:	121000ef          	jal	ra,0x24b8
    1b9c:	fe9ff06f          	j	0x1b84
    1ba0:	00018797          	auipc	a5,0x18
    1ba4:	8a878793          	addi	a5,a5,-1880 # 0x19448
    1ba8:	00f7b423          	sd	a5,8(a5)
    1bac:	00f7b023          	sd	a5,0(a5)
    1bb0:	00008067          	ret
    1bb4:	ff010113          	addi	sp,sp,-16
    1bb8:	00813023          	sd	s0,0(sp)
    1bbc:	00113423          	sd	ra,8(sp)
    1bc0:	00018797          	auipc	a5,0x18
    1bc4:	87878793          	addi	a5,a5,-1928 # 0x19438
    1bc8:	00018417          	auipc	s0,0x18
    1bcc:	89040413          	addi	s0,s0,-1904 # 0x19458
    1bd0:	00f7b423          	sd	a5,8(a5)
    1bd4:	00f7b023          	sd	a5,0(a5)
    1bd8:	00040513          	mv	a0,s0
    1bdc:	00a00893          	li	a7,10
    1be0:	00400813          	li	a6,4
    1be4:	000047b7          	lui	a5,0x4
    1be8:	00018717          	auipc	a4,0x18
    1bec:	95870713          	addi	a4,a4,-1704 # 0x19540
    1bf0:	00000693          	li	a3,0
    1bf4:	00000617          	auipc	a2,0x0
    1bf8:	f3c60613          	addi	a2,a2,-196 # 0x1b30
    1bfc:	0000c597          	auipc	a1,0xc
    1c00:	ac458593          	addi	a1,a1,-1340 # 0xd6c0
    1c04:	378000ef          	jal	ra,0x1f7c
    1c08:	00040513          	mv	a0,s0
    1c0c:	00013403          	ld	s0,0(sp)
    1c10:	00813083          	ld	ra,8(sp)
    1c14:	01010113          	addi	sp,sp,16
    1c18:	1990006f          	j	0x25b0
    1c1c:	fe010113          	addi	sp,sp,-32
    1c20:	00113c23          	sd	ra,24(sp)
    1c24:	c50fe0ef          	jal	ra,0x74
    1c28:	00017797          	auipc	a5,0x17
    1c2c:	6407c783          	lbu	a5,1600(a5) # 0x19268
    1c30:	0017879b          	addiw	a5,a5,1
    1c34:	00017717          	auipc	a4,0x17
    1c38:	62f70a23          	sb	a5,1588(a4) # 0x19268
    1c3c:	00017797          	auipc	a5,0x17
    1c40:	61c7b783          	ld	a5,1564(a5) # 0x19258
    1c44:	00078863          	beqz	a5,0x1c54
    1c48:	00a13423          	sd	a0,8(sp)
    1c4c:	000780e7          	jalr	a5
    1c50:	00813503          	ld	a0,8(sp)
    1c54:	01813083          	ld	ra,24(sp)
    1c58:	02010113          	addi	sp,sp,32
    1c5c:	c20fe06f          	j	0x7c
    1c60:	fe010113          	addi	sp,sp,-32
    1c64:	00113c23          	sd	ra,24(sp)
    1c68:	c0cfe0ef          	jal	ra,0x74
    1c6c:	00017797          	auipc	a5,0x17
    1c70:	5f47b783          	ld	a5,1524(a5) # 0x19260
    1c74:	00078863          	beqz	a5,0x1c84
    1c78:	00a13423          	sd	a0,8(sp)
    1c7c:	000780e7          	jalr	a5
    1c80:	00813503          	ld	a0,8(sp)
    1c84:	00017797          	auipc	a5,0x17
    1c88:	5e47c783          	lbu	a5,1508(a5) # 0x19268
    1c8c:	01813083          	ld	ra,24(sp)
    1c90:	fff7879b          	addiw	a5,a5,-1
    1c94:	00017717          	auipc	a4,0x17
    1c98:	5cf70a23          	sb	a5,1492(a4) # 0x19268
    1c9c:	02010113          	addi	sp,sp,32
    1ca0:	bdcfe06f          	j	0x7c
    1ca4:	ff010113          	addi	sp,sp,-16
    1ca8:	00113423          	sd	ra,8(sp)
    1cac:	00813023          	sd	s0,0(sp)
    1cb0:	bc4fe0ef          	jal	ra,0x74
    1cb4:	00017417          	auipc	s0,0x17
    1cb8:	5b444403          	lbu	s0,1460(s0) # 0x19268
    1cbc:	bc0fe0ef          	jal	ra,0x7c
    1cc0:	00813083          	ld	ra,8(sp)
    1cc4:	00040513          	mv	a0,s0
    1cc8:	00013403          	ld	s0,0(sp)
    1ccc:	01010113          	addi	sp,sp,16
    1cd0:	00008067          	ret
    1cd4:	fe010113          	addi	sp,sp,-32
    1cd8:	00813823          	sd	s0,16(sp)
    1cdc:	00913423          	sd	s1,8(sp)
    1ce0:	00050413          	mv	s0,a0
    1ce4:	00113c23          	sd	ra,24(sp)
    1ce8:	b8cfe0ef          	jal	ra,0x74
    1cec:	0d843783          	ld	a5,216(s0)
    1cf0:	00050493          	mv	s1,a0
    1cf4:	00078663          	beqz	a5,0x1d00
    1cf8:	00040513          	mv	a0,s0
    1cfc:	000780e7          	jalr	a5
    1d00:	01013403          	ld	s0,16(sp)
    1d04:	01813083          	ld	ra,24(sp)
    1d08:	00048513          	mv	a0,s1
    1d0c:	00813483          	ld	s1,8(sp)
    1d10:	02010113          	addi	sp,sp,32
    1d14:	b68fe06f          	j	0x7c
    1d18:	fe010113          	addi	sp,sp,-32
    1d1c:	00113c23          	sd	ra,24(sp)
    1d20:	00813823          	sd	s0,16(sp)
    1d24:	00913423          	sd	s1,8(sp)
    1d28:	00017417          	auipc	s0,0x17
    1d2c:	56843403          	ld	s0,1384(s0) # 0x19290
    1d30:	b44fe0ef          	jal	ra,0x74
    1d34:	00050493          	mv	s1,a0
    1d38:	00040513          	mv	a0,s0
    1d3c:	f99ff0ef          	jal	ra,0x1cd4
    1d40:	00040513          	mv	a0,s0
    1d44:	355000ef          	jal	ra,0x2898
    1d48:	00400793          	li	a5,4
    1d4c:	06f40423          	sb	a5,104(s0)
    1d50:	08840513          	addi	a0,s0,136
    1d54:	ee0ff0ef          	jal	ra,0x1434
    1d58:	00040513          	mv	a0,s0
    1d5c:	191010ef          	jal	ra,0x36ec
    1d60:	00100793          	li	a5,1
    1d64:	02f51463          	bne	a0,a5,0x1d8c
    1d68:	00040513          	mv	a0,s0
    1d6c:	758010ef          	jal	ra,0x34c4
    1d70:	419000ef          	jal	ra,0x2988
    1d74:	01013403          	ld	s0,16(sp)
    1d78:	01813083          	ld	ra,24(sp)
    1d7c:	00048513          	mv	a0,s1
    1d80:	00813483          	ld	s1,8(sp)
    1d84:	02010113          	addi	sp,sp,32
    1d88:	af4fe06f          	j	0x7c
    1d8c:	00040513          	mv	a0,s0
    1d90:	189020ef          	jal	ra,0x4718
    1d94:	fddff06f          	j	0x1d70
    1d98:	fe010113          	addi	sp,sp,-32
    1d9c:	00813823          	sd	s0,16(sp)
    1da0:	00050413          	mv	s0,a0
    1da4:	00913423          	sd	s1,8(sp)
    1da8:	04c43423          	sd	a2,72(s0)
    1dac:	00078493          	mv	s1,a5
    1db0:	02071613          	slli	a2,a4,0x20
    1db4:	02840793          	addi	a5,s0,40
    1db8:	00068513          	mv	a0,a3
    1dbc:	02f43823          	sd	a5,48(s0)
    1dc0:	02f43423          	sd	a5,40(s0)
    1dc4:	04b43023          	sd	a1,64(s0)
    1dc8:	04d43823          	sd	a3,80(s0)
    1dcc:	04e42c23          	sw	a4,88(s0)
    1dd0:	02065613          	srli	a2,a2,0x20
    1dd4:	02300593          	li	a1,35
    1dd8:	00113c23          	sd	ra,24(sp)
    1ddc:	01213023          	sd	s2,0(sp)
    1de0:	00080913          	mv	s2,a6
    1de4:	585010ef          	jal	ra,0x3b68
    1de8:	05846783          	lwu	a5,88(s0)
    1dec:	05043603          	ld	a2,80(s0)
    1df0:	04843583          	ld	a1,72(s0)
    1df4:	04043503          	ld	a0,64(s0)
    1df8:	ff878793          	addi	a5,a5,-8
    1dfc:	00f60633          	add	a2,a2,a5
    1e00:	00000697          	auipc	a3,0x0
    1e04:	f1868693          	addi	a3,a3,-232 # 0x1d18
    1e08:	25d030ef          	jal	ra,0x5864
    1e0c:	02a43c23          	sd	a0,56(s0)
    1e10:	01f00793          	li	a5,31
    1e14:	0097fe63          	bgeu	a5,s1,0x1e30
    1e18:	0ae00613          	li	a2,174
    1e1c:	0000c597          	auipc	a1,0xc
    1e20:	aac58593          	addi	a1,a1,-1364 # 0xd8c8
    1e24:	0000c517          	auipc	a0,0xc
    1e28:	8fc50513          	addi	a0,a0,-1796 # 0xd720
    1e2c:	099020ef          	jal	ra,0x46c4
    1e30:	02091813          	slli	a6,s2,0x20
    1e34:	02085813          	srli	a6,a6,0x20
    1e38:	00000793          	li	a5,0
    1e3c:	06940523          	sb	s1,106(s0)
    1e40:	069404a3          	sb	s1,105(s0)
    1e44:	06042623          	sw	zero,108(s0)
    1e48:	07043c23          	sd	a6,120(s0)
    1e4c:	09043023          	sd	a6,128(s0)
    1e50:	06043023          	sd	zero,96(s0)
    1e54:	06040423          	sb	zero,104(s0)
    1e58:	0c043c23          	sd	zero,216(s0)
    1e5c:	0e043023          	sd	zero,224(s0)
    1e60:	00000713          	li	a4,0
    1e64:	00040693          	mv	a3,s0
    1e68:	00000617          	auipc	a2,0x0
    1e6c:	04460613          	addi	a2,a2,68 # 0x1eac
    1e70:	00040593          	mv	a1,s0
    1e74:	08840513          	addi	a0,s0,136
    1e78:	d10ff0ef          	jal	ra,0x1388
    1e7c:	00017797          	auipc	a5,0x17
    1e80:	3f47b783          	ld	a5,1012(a5) # 0x19270
    1e84:	00078663          	beqz	a5,0x1e90
    1e88:	00040513          	mv	a0,s0
    1e8c:	000780e7          	jalr	a5
    1e90:	01813083          	ld	ra,24(sp)
    1e94:	01013403          	ld	s0,16(sp)
    1e98:	00813483          	ld	s1,8(sp)
    1e9c:	00013903          	ld	s2,0(sp)
    1ea0:	00000513          	li	a0,0
    1ea4:	02010113          	addi	sp,sp,32
    1ea8:	00008067          	ret
    1eac:	fe010113          	addi	sp,sp,-32
    1eb0:	00813823          	sd	s0,16(sp)
    1eb4:	00113c23          	sd	ra,24(sp)
    1eb8:	00913423          	sd	s1,8(sp)
    1ebc:	00050413          	mv	s0,a0
    1ec0:	00051e63          	bnez	a0,0x1edc
    1ec4:	37200613          	li	a2,882
    1ec8:	0000c597          	auipc	a1,0xc
    1ecc:	ac058593          	addi	a1,a1,-1344 # 0xd988
    1ed0:	0000c517          	auipc	a0,0xc
    1ed4:	87850513          	addi	a0,a0,-1928 # 0xd748
    1ed8:	7ec020ef          	jal	ra,0x46c4
    1edc:	06844783          	lbu	a5,104(s0)
    1ee0:	00200713          	li	a4,2
    1ee4:	0077f793          	andi	a5,a5,7
    1ee8:	00e78e63          	beq	a5,a4,0x1f04
    1eec:	37300613          	li	a2,883
    1ef0:	0000c597          	auipc	a1,0xc
    1ef4:	a9858593          	addi	a1,a1,-1384 # 0xd988
    1ef8:	0000c517          	auipc	a0,0xc
    1efc:	86850513          	addi	a0,a0,-1944 # 0xd760
    1f00:	7c4020ef          	jal	ra,0x46c4
    1f04:	00040513          	mv	a0,s0
    1f08:	029010ef          	jal	ra,0x3730
    1f0c:	00100793          	li	a5,1
    1f10:	00f50e63          	beq	a0,a5,0x1f2c
    1f14:	37400613          	li	a2,884
    1f18:	0000c597          	auipc	a1,0xc
    1f1c:	a7058593          	addi	a1,a1,-1424 # 0xd988
    1f20:	0000c517          	auipc	a0,0xc
    1f24:	88050513          	addi	a0,a0,-1920 # 0xd7a0
    1f28:	79c020ef          	jal	ra,0x46c4
    1f2c:	948fe0ef          	jal	ra,0x74
    1f30:	02843683          	ld	a3,40(s0)
    1f34:	03043703          	ld	a4,48(s0)
    1f38:	ffe00793          	li	a5,-2
    1f3c:	06f43023          	sd	a5,96(s0)
    1f40:	00e6b423          	sd	a4,8(a3)
    1f44:	02840793          	addi	a5,s0,40
    1f48:	00d73023          	sd	a3,0(a4)
    1f4c:	00050493          	mv	s1,a0
    1f50:	02f43823          	sd	a5,48(s0)
    1f54:	02f43423          	sd	a5,40(s0)
    1f58:	00040513          	mv	a0,s0
    1f5c:	091000ef          	jal	ra,0x27ec
    1f60:	00048513          	mv	a0,s1
    1f64:	918fe0ef          	jal	ra,0x7c
    1f68:	01013403          	ld	s0,16(sp)
    1f6c:	01813083          	ld	ra,24(sp)
    1f70:	00813483          	ld	s1,8(sp)
    1f74:	02010113          	addi	sp,sp,32
    1f78:	2110006f          	j	0x2988
    1f7c:	fb010113          	addi	sp,sp,-80
    1f80:	04813023          	sd	s0,64(sp)
    1f84:	02913c23          	sd	s1,56(sp)
    1f88:	03213823          	sd	s2,48(sp)
    1f8c:	03313423          	sd	s3,40(sp)
    1f90:	03413023          	sd	s4,32(sp)
    1f94:	01513c23          	sd	s5,24(sp)
    1f98:	01613823          	sd	s6,16(sp)
    1f9c:	01713423          	sd	s7,8(sp)
    1fa0:	04113423          	sd	ra,72(sp)
    1fa4:	00050413          	mv	s0,a0
    1fa8:	00058b93          	mv	s7,a1
    1fac:	00060913          	mv	s2,a2
    1fb0:	00068993          	mv	s3,a3
    1fb4:	00070493          	mv	s1,a4
    1fb8:	00078a13          	mv	s4,a5
    1fbc:	00080a93          	mv	s5,a6
    1fc0:	00088b13          	mv	s6,a7
    1fc4:	00051e63          	bnez	a0,0x1fe0
    1fc8:	10f00613          	li	a2,271
    1fcc:	0000c597          	auipc	a1,0xc
    1fd0:	90c58593          	addi	a1,a1,-1780 # 0xd8d8
    1fd4:	0000b517          	auipc	a0,0xb
    1fd8:	77450513          	addi	a0,a0,1908 # 0xd748
    1fdc:	6e8020ef          	jal	ra,0x46c4
    1fe0:	00049e63          	bnez	s1,0x1ffc
    1fe4:	11000613          	li	a2,272
    1fe8:	0000c597          	auipc	a1,0xc
    1fec:	8f058593          	addi	a1,a1,-1808 # 0xd8d8
    1ff0:	0000b517          	auipc	a0,0xb
    1ff4:	7f850513          	addi	a0,a0,2040 # 0xd7e8
    1ff8:	6cc020ef          	jal	ra,0x46c4
    1ffc:	000b8613          	mv	a2,s7
    2000:	00040513          	mv	a0,s0
    2004:	00100593          	li	a1,1
    2008:	3a8010ef          	jal	ra,0x33b0
    200c:	00040513          	mv	a0,s0
    2010:	04013403          	ld	s0,64(sp)
    2014:	04813083          	ld	ra,72(sp)
    2018:	00813b83          	ld	s7,8(sp)
    201c:	000b0813          	mv	a6,s6
    2020:	000a8793          	mv	a5,s5
    2024:	01013b03          	ld	s6,16(sp)
    2028:	01813a83          	ld	s5,24(sp)
    202c:	000a0713          	mv	a4,s4
    2030:	00048693          	mv	a3,s1
    2034:	02013a03          	ld	s4,32(sp)
    2038:	03813483          	ld	s1,56(sp)
    203c:	00098613          	mv	a2,s3
    2040:	00090593          	mv	a1,s2
    2044:	02813983          	ld	s3,40(sp)
    2048:	03013903          	ld	s2,48(sp)
    204c:	05010113          	addi	sp,sp,80
    2050:	d49ff06f          	j	0x1d98
    2054:	00017517          	auipc	a0,0x17
    2058:	23c53503          	ld	a0,572(a0) # 0x19290
    205c:	00008067          	ret
    2060:	fe010113          	addi	sp,sp,-32
    2064:	00813823          	sd	s0,16(sp)
    2068:	00113c23          	sd	ra,24(sp)
    206c:	00913423          	sd	s1,8(sp)
    2070:	00050413          	mv	s0,a0
    2074:	00051e63          	bnez	a0,0x2090
    2078:	16e00613          	li	a2,366
    207c:	0000c597          	auipc	a1,0xc
    2080:	88458593          	addi	a1,a1,-1916 # 0xd900
    2084:	0000b517          	auipc	a0,0xb
    2088:	6c450513          	addi	a0,a0,1732 # 0xd748
    208c:	638020ef          	jal	ra,0x46c4
    2090:	00040513          	mv	a0,s0
    2094:	69c010ef          	jal	ra,0x3730
    2098:	00100793          	li	a5,1
    209c:	00f50e63          	beq	a0,a5,0x20b8
    20a0:	16f00613          	li	a2,367
    20a4:	0000c597          	auipc	a1,0xc
    20a8:	85c58593          	addi	a1,a1,-1956 # 0xd900
    20ac:	0000b517          	auipc	a0,0xb
    20b0:	6f450513          	addi	a0,a0,1780 # 0xd7a0
    20b4:	610020ef          	jal	ra,0x46c4
    20b8:	00040513          	mv	a0,s0
    20bc:	630010ef          	jal	ra,0x36ec
    20c0:	00051e63          	bnez	a0,0x20dc
    20c4:	17000613          	li	a2,368
    20c8:	0000c597          	auipc	a1,0xc
    20cc:	83858593          	addi	a1,a1,-1992 # 0xd900
    20d0:	0000b517          	auipc	a0,0xb
    20d4:	73050513          	addi	a0,a0,1840 # 0xd800
    20d8:	5ec020ef          	jal	ra,0x46c4
    20dc:	06844783          	lbu	a5,104(s0)
    20e0:	00400713          	li	a4,4
    20e4:	0077f793          	andi	a5,a5,7
    20e8:	04e78063          	beq	a5,a4,0x2128
    20ec:	00078663          	beqz	a5,0x20f8
    20f0:	00040513          	mv	a0,s0
    20f4:	7a4000ef          	jal	ra,0x2898
    20f8:	00040513          	mv	a0,s0
    20fc:	bd9ff0ef          	jal	ra,0x1cd4
    2100:	08840513          	addi	a0,s0,136
    2104:	b30ff0ef          	jal	ra,0x1434
    2108:	00400793          	li	a5,4
    210c:	06f40423          	sb	a5,104(s0)
    2110:	00040513          	mv	a0,s0
    2114:	5d8010ef          	jal	ra,0x36ec
    2118:	00100793          	li	a5,1
    211c:	02f51263          	bne	a0,a5,0x2140
    2120:	00040513          	mv	a0,s0
    2124:	3a0010ef          	jal	ra,0x34c4
    2128:	01813083          	ld	ra,24(sp)
    212c:	01013403          	ld	s0,16(sp)
    2130:	00813483          	ld	s1,8(sp)
    2134:	00000513          	li	a0,0
    2138:	02010113          	addi	sp,sp,32
    213c:	00008067          	ret
    2140:	f35fd0ef          	jal	ra,0x74
    2144:	00050493          	mv	s1,a0
    2148:	00040513          	mv	a0,s0
    214c:	5cc020ef          	jal	ra,0x4718
    2150:	00048513          	mv	a0,s1
    2154:	f29fd0ef          	jal	ra,0x7c
    2158:	fd1ff06f          	j	0x2128
    215c:	fc010113          	addi	sp,sp,-64
    2160:	03213023          	sd	s2,32(sp)
    2164:	00058913          	mv	s2,a1
    2168:	00050593          	mv	a1,a0
    216c:	00100513          	li	a0,1
    2170:	02813823          	sd	s0,48(sp)
    2174:	02913423          	sd	s1,40(sp)
    2178:	01313c23          	sd	s3,24(sp)
    217c:	01413823          	sd	s4,16(sp)
    2180:	01513423          	sd	s5,8(sp)
    2184:	02113c23          	sd	ra,56(sp)
    2188:	00060993          	mv	s3,a2
    218c:	00068493          	mv	s1,a3
    2190:	00070a13          	mv	s4,a4
    2194:	00078a93          	mv	s5,a5
    2198:	3a0010ef          	jal	ra,0x3538
    219c:	00050413          	mv	s0,a0
    21a0:	02050263          	beqz	a0,0x21c4
    21a4:	02049513          	slli	a0,s1,0x20
    21a8:	02055513          	srli	a0,a0,0x20
    21ac:	a61fe0ef          	jal	ra,0xc0c
    21b0:	00050693          	mv	a3,a0
    21b4:	02051c63          	bnez	a0,0x21ec
    21b8:	00040513          	mv	a0,s0
    21bc:	494010ef          	jal	ra,0x3650
    21c0:	00000413          	li	s0,0
    21c4:	03813083          	ld	ra,56(sp)
    21c8:	00040513          	mv	a0,s0
    21cc:	03013403          	ld	s0,48(sp)
    21d0:	02813483          	ld	s1,40(sp)
    21d4:	02013903          	ld	s2,32(sp)
    21d8:	01813983          	ld	s3,24(sp)
    21dc:	01013a03          	ld	s4,16(sp)
    21e0:	00813a83          	ld	s5,8(sp)
    21e4:	04010113          	addi	sp,sp,64
    21e8:	00008067          	ret
    21ec:	000a8813          	mv	a6,s5
    21f0:	000a0793          	mv	a5,s4
    21f4:	00048713          	mv	a4,s1
    21f8:	00098613          	mv	a2,s3
    21fc:	00090593          	mv	a1,s2
    2200:	00040513          	mv	a0,s0
    2204:	b95ff0ef          	jal	ra,0x1d98
    2208:	fbdff06f          	j	0x21c4
    220c:	fe010113          	addi	sp,sp,-32
    2210:	00813823          	sd	s0,16(sp)
    2214:	00113c23          	sd	ra,24(sp)
    2218:	00913423          	sd	s1,8(sp)
    221c:	00050413          	mv	s0,a0
    2220:	00051e63          	bnez	a0,0x223c
    2224:	1d500613          	li	a2,469
    2228:	0000b597          	auipc	a1,0xb
    222c:	6f058593          	addi	a1,a1,1776 # 0xd918
    2230:	0000b517          	auipc	a0,0xb
    2234:	51850513          	addi	a0,a0,1304 # 0xd748
    2238:	48c020ef          	jal	ra,0x46c4
    223c:	00040513          	mv	a0,s0
    2240:	4f0010ef          	jal	ra,0x3730
    2244:	00100793          	li	a5,1
    2248:	00f50e63          	beq	a0,a5,0x2264
    224c:	1d600613          	li	a2,470
    2250:	0000b597          	auipc	a1,0xb
    2254:	6c858593          	addi	a1,a1,1736 # 0xd918
    2258:	0000b517          	auipc	a0,0xb
    225c:	54850513          	addi	a0,a0,1352 # 0xd7a0
    2260:	464020ef          	jal	ra,0x46c4
    2264:	00040513          	mv	a0,s0
    2268:	484010ef          	jal	ra,0x36ec
    226c:	00050e63          	beqz	a0,0x2288
    2270:	1d700613          	li	a2,471
    2274:	0000b597          	auipc	a1,0xb
    2278:	6a458593          	addi	a1,a1,1700 # 0xd918
    227c:	0000b517          	auipc	a0,0xb
    2280:	5b450513          	addi	a0,a0,1460 # 0xd830
    2284:	440020ef          	jal	ra,0x46c4
    2288:	06844783          	lbu	a5,104(s0)
    228c:	00400713          	li	a4,4
    2290:	0077f793          	andi	a5,a5,7
    2294:	04e78063          	beq	a5,a4,0x22d4
    2298:	00078663          	beqz	a5,0x22a4
    229c:	00040513          	mv	a0,s0
    22a0:	5f8000ef          	jal	ra,0x2898
    22a4:	00040513          	mv	a0,s0
    22a8:	a2dff0ef          	jal	ra,0x1cd4
    22ac:	08840513          	addi	a0,s0,136
    22b0:	984ff0ef          	jal	ra,0x1434
    22b4:	dc1fd0ef          	jal	ra,0x74
    22b8:	00400793          	li	a5,4
    22bc:	00050493          	mv	s1,a0
    22c0:	06f40423          	sb	a5,104(s0)
    22c4:	00040513          	mv	a0,s0
    22c8:	450020ef          	jal	ra,0x4718
    22cc:	00048513          	mv	a0,s1
    22d0:	dadfd0ef          	jal	ra,0x7c
    22d4:	01813083          	ld	ra,24(sp)
    22d8:	01013403          	ld	s0,16(sp)
    22dc:	00813483          	ld	s1,8(sp)
    22e0:	00000513          	li	a0,0
    22e4:	02010113          	addi	sp,sp,32
    22e8:	00008067          	ret
    22ec:	fe010113          	addi	sp,sp,-32
    22f0:	00813823          	sd	s0,16(sp)
    22f4:	00113c23          	sd	ra,24(sp)
    22f8:	00913423          	sd	s1,8(sp)
    22fc:	01213023          	sd	s2,0(sp)
    2300:	00050413          	mv	s0,a0
    2304:	00051e63          	bnez	a0,0x2320
    2308:	31400613          	li	a2,788
    230c:	0000b597          	auipc	a1,0xb
    2310:	64c58593          	addi	a1,a1,1612 # 0xd958
    2314:	0000b517          	auipc	a0,0xb
    2318:	43450513          	addi	a0,a0,1076 # 0xd748
    231c:	3a8020ef          	jal	ra,0x46c4
    2320:	00040513          	mv	a0,s0
    2324:	40c010ef          	jal	ra,0x3730
    2328:	00100793          	li	a5,1
    232c:	00f50e63          	beq	a0,a5,0x2348
    2330:	31500613          	li	a2,789
    2334:	0000b597          	auipc	a1,0xb
    2338:	62458593          	addi	a1,a1,1572 # 0xd958
    233c:	0000b517          	auipc	a0,0xb
    2340:	46450513          	addi	a0,a0,1124 # 0xd7a0
    2344:	380020ef          	jal	ra,0x46c4
    2348:	06844783          	lbu	a5,104(s0)
    234c:	00100713          	li	a4,1
    2350:	fff00513          	li	a0,-1
    2354:	0077f913          	andi	s2,a5,7
    2358:	0057f793          	andi	a5,a5,5
    235c:	06e79e63          	bne	a5,a4,0x23d8
    2360:	d15fd0ef          	jal	ra,0x74
    2364:	00300793          	li	a5,3
    2368:	00050493          	mv	s1,a0
    236c:	02f91463          	bne	s2,a5,0x2394
    2370:	00017797          	auipc	a5,0x17
    2374:	f207b783          	ld	a5,-224(a5) # 0x19290
    2378:	00f40e63          	beq	s0,a5,0x2394
    237c:	32600613          	li	a2,806
    2380:	0000b597          	auipc	a1,0xb
    2384:	5d858593          	addi	a1,a1,1496 # 0xd958
    2388:	0000b517          	auipc	a0,0xb
    238c:	4e850513          	addi	a0,a0,1256 # 0xd870
    2390:	334020ef          	jal	ra,0x46c4
    2394:	00040513          	mv	a0,s0
    2398:	500000ef          	jal	ra,0x2898
    239c:	06844783          	lbu	a5,104(s0)
    23a0:	08840513          	addi	a0,s0,136
    23a4:	ff87f793          	andi	a5,a5,-8
    23a8:	0027e793          	ori	a5,a5,2
    23ac:	06f40423          	sb	a5,104(s0)
    23b0:	adcff0ef          	jal	ra,0x168c
    23b4:	00048513          	mv	a0,s1
    23b8:	cc5fd0ef          	jal	ra,0x7c
    23bc:	00017797          	auipc	a5,0x17
    23c0:	ec47b783          	ld	a5,-316(a5) # 0x19280
    23c4:	00000513          	li	a0,0
    23c8:	00078863          	beqz	a5,0x23d8
    23cc:	00040513          	mv	a0,s0
    23d0:	000780e7          	jalr	a5
    23d4:	00000513          	li	a0,0
    23d8:	01813083          	ld	ra,24(sp)
    23dc:	01013403          	ld	s0,16(sp)
    23e0:	00813483          	ld	s1,8(sp)
    23e4:	00013903          	ld	s2,0(sp)
    23e8:	02010113          	addi	sp,sp,32
    23ec:	00008067          	ret
    23f0:	fd010113          	addi	sp,sp,-48
    23f4:	02813023          	sd	s0,32(sp)
    23f8:	02113423          	sd	ra,40(sp)
    23fc:	00913c23          	sd	s1,24(sp)
    2400:	01213823          	sd	s2,16(sp)
    2404:	00a12623          	sw	a0,12(sp)
    2408:	00017417          	auipc	s0,0x17
    240c:	e8843403          	ld	s0,-376(s0) # 0x19290
    2410:	00041e63          	bnez	s0,0x242c
    2414:	21d00613          	li	a2,541
    2418:	0000b597          	auipc	a1,0xb
    241c:	51858593          	addi	a1,a1,1304 # 0xd930
    2420:	0000b517          	auipc	a0,0xb
    2424:	32850513          	addi	a0,a0,808 # 0xd748
    2428:	29c020ef          	jal	ra,0x46c4
    242c:	00040513          	mv	a0,s0
    2430:	300010ef          	jal	ra,0x3730
    2434:	00100793          	li	a5,1
    2438:	00f50e63          	beq	a0,a5,0x2454
    243c:	21e00613          	li	a2,542
    2440:	0000b597          	auipc	a1,0xb
    2444:	4f058593          	addi	a1,a1,1264 # 0xd930
    2448:	0000b517          	auipc	a0,0xb
    244c:	35850513          	addi	a0,a0,856 # 0xd7a0
    2450:	274020ef          	jal	ra,0x46c4
    2454:	c21fd0ef          	jal	ra,0x74
    2458:	00050913          	mv	s2,a0
    245c:	00040513          	mv	a0,s0
    2460:	e8dff0ef          	jal	ra,0x22ec
    2464:	08840493          	addi	s1,s0,136
    2468:	00c10613          	addi	a2,sp,12
    246c:	00000593          	li	a1,0
    2470:	00048513          	mv	a0,s1
    2474:	ad0ff0ef          	jal	ra,0x1744
    2478:	00048513          	mv	a0,s1
    247c:	878ff0ef          	jal	ra,0x14f4
    2480:	00090513          	mv	a0,s2
    2484:	bf9fd0ef          	jal	ra,0x7c
    2488:	500000ef          	jal	ra,0x2988
    248c:	06043703          	ld	a4,96(s0)
    2490:	ffe00793          	li	a5,-2
    2494:	00f71463          	bne	a4,a5,0x249c
    2498:	06043023          	sd	zero,96(s0)
    249c:	02813083          	ld	ra,40(sp)
    24a0:	02013403          	ld	s0,32(sp)
    24a4:	01813483          	ld	s1,24(sp)
    24a8:	01013903          	ld	s2,16(sp)
    24ac:	00000513          	li	a0,0
    24b0:	03010113          	addi	sp,sp,48
    24b4:	00008067          	ret
    24b8:	f39ff06f          	j	0x23f0
    24bc:	ff010113          	addi	sp,sp,-16
    24c0:	00113423          	sd	ra,8(sp)
    24c4:	631000ef          	jal	ra,0x32f4
    24c8:	00813083          	ld	ra,8(sp)
    24cc:	0005051b          	sext.w	a0,a0
    24d0:	01010113          	addi	sp,sp,16
    24d4:	f1dff06f          	j	0x23f0
    24d8:	fe010113          	addi	sp,sp,-32
    24dc:	00813823          	sd	s0,16(sp)
    24e0:	00113c23          	sd	ra,24(sp)
    24e4:	00913423          	sd	s1,8(sp)
    24e8:	00050413          	mv	s0,a0
    24ec:	00051e63          	bnez	a0,0x2508
    24f0:	34400613          	li	a2,836
    24f4:	0000b597          	auipc	a1,0xb
    24f8:	47c58593          	addi	a1,a1,1148 # 0xd970
    24fc:	0000b517          	auipc	a0,0xb
    2500:	24c50513          	addi	a0,a0,588 # 0xd748
    2504:	1c0020ef          	jal	ra,0x46c4
    2508:	00040513          	mv	a0,s0
    250c:	224010ef          	jal	ra,0x3730
    2510:	00100793          	li	a5,1
    2514:	00f50e63          	beq	a0,a5,0x2530
    2518:	34500613          	li	a2,837
    251c:	0000b597          	auipc	a1,0xb
    2520:	45458593          	addi	a1,a1,1108 # 0xd970
    2524:	0000b517          	auipc	a0,0xb
    2528:	27c50513          	addi	a0,a0,636 # 0xd7a0
    252c:	198020ef          	jal	ra,0x46c4
    2530:	06844783          	lbu	a5,104(s0)
    2534:	00200713          	li	a4,2
    2538:	fff00513          	li	a0,-1
    253c:	0077f793          	andi	a5,a5,7
    2540:	04e79e63          	bne	a5,a4,0x259c
    2544:	b31fd0ef          	jal	ra,0x74
    2548:	02843683          	ld	a3,40(s0)
    254c:	03043703          	ld	a4,48(s0)
    2550:	02840793          	addi	a5,s0,40
    2554:	00050493          	mv	s1,a0
    2558:	00e6b423          	sd	a4,8(a3)
    255c:	00d73023          	sd	a3,0(a4)
    2560:	02f43823          	sd	a5,48(s0)
    2564:	02f43423          	sd	a5,40(s0)
    2568:	08840513          	addi	a0,s0,136
    256c:	920ff0ef          	jal	ra,0x168c
    2570:	00040513          	mv	a0,s0
    2574:	278000ef          	jal	ra,0x27ec
    2578:	00048513          	mv	a0,s1
    257c:	b01fd0ef          	jal	ra,0x7c
    2580:	00017797          	auipc	a5,0x17
    2584:	cf87b783          	ld	a5,-776(a5) # 0x19278
    2588:	00000513          	li	a0,0
    258c:	00078863          	beqz	a5,0x259c
    2590:	00040513          	mv	a0,s0
    2594:	000780e7          	jalr	a5
    2598:	00000513          	li	a0,0
    259c:	01813083          	ld	ra,24(sp)
    25a0:	01013403          	ld	s0,16(sp)
    25a4:	00813483          	ld	s1,8(sp)
    25a8:	02010113          	addi	sp,sp,32
    25ac:	00008067          	ret
    25b0:	ff010113          	addi	sp,sp,-16
    25b4:	00813023          	sd	s0,0(sp)
    25b8:	00113423          	sd	ra,8(sp)
    25bc:	00050413          	mv	s0,a0
    25c0:	00051e63          	bnez	a0,0x25dc
    25c4:	14100613          	li	a2,321
    25c8:	0000b597          	auipc	a1,0xb
    25cc:	32058593          	addi	a1,a1,800 # 0xd8e8
    25d0:	0000b517          	auipc	a0,0xb
    25d4:	17850513          	addi	a0,a0,376 # 0xd748
    25d8:	0ec020ef          	jal	ra,0x46c4
    25dc:	06844783          	lbu	a5,104(s0)
    25e0:	0077f793          	andi	a5,a5,7
    25e4:	00078e63          	beqz	a5,0x2600
    25e8:	14200613          	li	a2,322
    25ec:	0000b597          	auipc	a1,0xb
    25f0:	2fc58593          	addi	a1,a1,764 # 0xd8e8
    25f4:	0000b517          	auipc	a0,0xb
    25f8:	29c50513          	addi	a0,a0,668 # 0xd890
    25fc:	0c8020ef          	jal	ra,0x46c4
    2600:	00040513          	mv	a0,s0
    2604:	12c010ef          	jal	ra,0x3730
    2608:	00100793          	li	a5,1
    260c:	00f50e63          	beq	a0,a5,0x2628
    2610:	14300613          	li	a2,323
    2614:	0000b597          	auipc	a1,0xb
    2618:	2d458593          	addi	a1,a1,724 # 0xd8e8
    261c:	0000b517          	auipc	a0,0xb
    2620:	18450513          	addi	a0,a0,388 # 0xd7a0
    2624:	0a0020ef          	jal	ra,0x46c4
    2628:	06a44703          	lbu	a4,106(s0)
    262c:	00100793          	li	a5,1
    2630:	00040513          	mv	a0,s0
    2634:	00e797b3          	sll	a5,a5,a4
    2638:	06f42623          	sw	a5,108(s0)
    263c:	00200793          	li	a5,2
    2640:	06f40423          	sb	a5,104(s0)
    2644:	06e404a3          	sb	a4,105(s0)
    2648:	e91ff0ef          	jal	ra,0x24d8
    264c:	00017797          	auipc	a5,0x17
    2650:	c447b783          	ld	a5,-956(a5) # 0x19290
    2654:	00078463          	beqz	a5,0x265c
    2658:	330000ef          	jal	ra,0x2988
    265c:	00813083          	ld	ra,8(sp)
    2660:	00013403          	ld	s0,0(sp)
    2664:	00000513          	li	a0,0
    2668:	01010113          	addi	sp,sp,16
    266c:	00008067          	ret
    2670:	fc010113          	addi	sp,sp,-64
    2674:	02813823          	sd	s0,48(sp)
    2678:	02913423          	sd	s1,40(sp)
    267c:	03213023          	sd	s2,32(sp)
    2680:	02113c23          	sd	ra,56(sp)
    2684:	01313c23          	sd	s3,24(sp)
    2688:	00050413          	mv	s0,a0
    268c:	00058493          	mv	s1,a1
    2690:	00060913          	mv	s2,a2
    2694:	00051e63          	bnez	a0,0x26b0
    2698:	2a200613          	li	a2,674
    269c:	0000b597          	auipc	a1,0xb
    26a0:	2a458593          	addi	a1,a1,676 # 0xd940
    26a4:	0000b517          	auipc	a0,0xb
    26a8:	0a450513          	addi	a0,a0,164 # 0xd748
    26ac:	018020ef          	jal	ra,0x46c4
    26b0:	00040513          	mv	a0,s0
    26b4:	07c010ef          	jal	ra,0x3730
    26b8:	00100793          	li	a5,1
    26bc:	00f50e63          	beq	a0,a5,0x26d8
    26c0:	2a300613          	li	a2,675
    26c4:	0000b597          	auipc	a1,0xb
    26c8:	27c58593          	addi	a1,a1,636 # 0xd940
    26cc:	0000b517          	auipc	a0,0xb
    26d0:	0d450513          	addi	a0,a0,212 # 0xd7a0
    26d4:	7f1010ef          	jal	ra,0x46c4
    26d8:	00100993          	li	s3,1
    26dc:	0b348663          	beq	s1,s3,0x2788
    26e0:	00200793          	li	a5,2
    26e4:	02f48463          	beq	s1,a5,0x270c
    26e8:	08048063          	beqz	s1,0x2768
    26ec:	00000513          	li	a0,0
    26f0:	03813083          	ld	ra,56(sp)
    26f4:	03013403          	ld	s0,48(sp)
    26f8:	02813483          	ld	s1,40(sp)
    26fc:	02013903          	ld	s2,32(sp)
    2700:	01813983          	ld	s3,24(sp)
    2704:	04010113          	addi	sp,sp,64
    2708:	00008067          	ret
    270c:	969fd0ef          	jal	ra,0x74
    2710:	06844783          	lbu	a5,104(s0)
    2714:	00050493          	mv	s1,a0
    2718:	0077f793          	andi	a5,a5,7
    271c:	03379a63          	bne	a5,s3,0x2750
    2720:	00040513          	mv	a0,s0
    2724:	174000ef          	jal	ra,0x2898
    2728:	00094703          	lbu	a4,0(s2)
    272c:	00100793          	li	a5,1
    2730:	00040513          	mv	a0,s0
    2734:	00e797bb          	sllw	a5,a5,a4
    2738:	06e404a3          	sb	a4,105(s0)
    273c:	06f42623          	sw	a5,108(s0)
    2740:	0ac000ef          	jal	ra,0x27ec
    2744:	00048513          	mv	a0,s1
    2748:	935fd0ef          	jal	ra,0x7c
    274c:	fa1ff06f          	j	0x26ec
    2750:	00094703          	lbu	a4,0(s2)
    2754:	00100793          	li	a5,1
    2758:	00e797bb          	sllw	a5,a5,a4
    275c:	06e404a3          	sb	a4,105(s0)
    2760:	06f42623          	sw	a5,108(s0)
    2764:	fe1ff06f          	j	0x2744
    2768:	00040513          	mv	a0,s0
    276c:	03013403          	ld	s0,48(sp)
    2770:	03813083          	ld	ra,56(sp)
    2774:	02813483          	ld	s1,40(sp)
    2778:	02013903          	ld	s2,32(sp)
    277c:	01813983          	ld	s3,24(sp)
    2780:	04010113          	addi	sp,sp,64
    2784:	e2dff06f          	j	0x25b0
    2788:	00040513          	mv	a0,s0
    278c:	761000ef          	jal	ra,0x36ec
    2790:	00951e63          	bne	a0,s1,0x27ac
    2794:	00040513          	mv	a0,s0
    2798:	8c9ff0ef          	jal	ra,0x2060
    279c:	00a13423          	sd	a0,8(sp)
    27a0:	1e8000ef          	jal	ra,0x2988
    27a4:	00813503          	ld	a0,8(sp)
    27a8:	f49ff06f          	j	0x26f0
    27ac:	00040513          	mv	a0,s0
    27b0:	a5dff0ef          	jal	ra,0x220c
    27b4:	fe9ff06f          	j	0x279c
    27b8:	00017797          	auipc	a5,0x17
    27bc:	ae079423          	sh	zero,-1304(a5) # 0x192a0
    27c0:	0001b797          	auipc	a5,0x1b
    27c4:	d8078793          	addi	a5,a5,-640 # 0x1d540
    27c8:	0001b717          	auipc	a4,0x1b
    27cc:	f7870713          	addi	a4,a4,-136 # 0x1d740
    27d0:	00f7b423          	sd	a5,8(a5)
    27d4:	00f7b023          	sd	a5,0(a5)
    27d8:	01078793          	addi	a5,a5,16
    27dc:	fee79ae3          	bne	a5,a4,0x27d0
    27e0:	00017797          	auipc	a5,0x17
    27e4:	ac07a823          	sw	zero,-1328(a5) # 0x192b0
    27e8:	00008067          	ret
    27ec:	ff010113          	addi	sp,sp,-16
    27f0:	00813023          	sd	s0,0(sp)
    27f4:	00113423          	sd	ra,8(sp)
    27f8:	00050413          	mv	s0,a0
    27fc:	00051e63          	bnez	a0,0x2818
    2800:	2c700613          	li	a2,711
    2804:	0000b597          	auipc	a1,0xb
    2808:	19c58593          	addi	a1,a1,412 # 0xd9a0
    280c:	0000b517          	auipc	a0,0xb
    2810:	f3c50513          	addi	a0,a0,-196 # 0xd748
    2814:	6b1010ef          	jal	ra,0x46c4
    2818:	85dfd0ef          	jal	ra,0x74
    281c:	06844783          	lbu	a5,104(s0)
    2820:	00017717          	auipc	a4,0x17
    2824:	a7073703          	ld	a4,-1424(a4) # 0x19290
    2828:	ff87f793          	andi	a5,a5,-8
    282c:	00871e63          	bne	a4,s0,0x2848
    2830:	0037e793          	ori	a5,a5,3
    2834:	06f40423          	sb	a5,104(s0)
    2838:	00013403          	ld	s0,0(sp)
    283c:	00813083          	ld	ra,8(sp)
    2840:	01010113          	addi	sp,sp,16
    2844:	839fd06f          	j	0x7c
    2848:	06944703          	lbu	a4,105(s0)
    284c:	0017e793          	ori	a5,a5,1
    2850:	06f40423          	sb	a5,104(s0)
    2854:	00471693          	slli	a3,a4,0x4
    2858:	0001b797          	auipc	a5,0x1b
    285c:	ce878793          	addi	a5,a5,-792 # 0x1d540
    2860:	00d786b3          	add	a3,a5,a3
    2864:	0086b583          	ld	a1,8(a3)
    2868:	02840613          	addi	a2,s0,40
    286c:	00017717          	auipc	a4,0x17
    2870:	a4470713          	addi	a4,a4,-1468 # 0x192b0
    2874:	00c5b023          	sd	a2,0(a1)
    2878:	02b43823          	sd	a1,48(s0)
    287c:	00c6b423          	sd	a2,8(a3)
    2880:	06c42783          	lw	a5,108(s0)
    2884:	02d43423          	sd	a3,40(s0)
    2888:	00072683          	lw	a3,0(a4)
    288c:	00d7e7b3          	or	a5,a5,a3
    2890:	00f72023          	sw	a5,0(a4)
    2894:	fa5ff06f          	j	0x2838
    2898:	ff010113          	addi	sp,sp,-16
    289c:	00813023          	sd	s0,0(sp)
    28a0:	00113423          	sd	ra,8(sp)
    28a4:	00050413          	mv	s0,a0
    28a8:	00051e63          	bnez	a0,0x28c4
    28ac:	32800613          	li	a2,808
    28b0:	0000b597          	auipc	a1,0xb
    28b4:	11058593          	addi	a1,a1,272 # 0xd9c0
    28b8:	0000b517          	auipc	a0,0xb
    28bc:	e9050513          	addi	a0,a0,-368 # 0xd748
    28c0:	605010ef          	jal	ra,0x46c4
    28c4:	fb0fd0ef          	jal	ra,0x74
    28c8:	02843683          	ld	a3,40(s0)
    28cc:	03043703          	ld	a4,48(s0)
    28d0:	02840793          	addi	a5,s0,40
    28d4:	00e6b423          	sd	a4,8(a3)
    28d8:	00d73023          	sd	a3,0(a4)
    28dc:	06944703          	lbu	a4,105(s0)
    28e0:	02f43423          	sd	a5,40(s0)
    28e4:	02f43823          	sd	a5,48(s0)
    28e8:	00471693          	slli	a3,a4,0x4
    28ec:	0001b797          	auipc	a5,0x1b
    28f0:	c5478793          	addi	a5,a5,-940 # 0x1d540
    28f4:	00d786b3          	add	a3,a5,a3
    28f8:	0006b783          	ld	a5,0(a3)
    28fc:	02d79063          	bne	a5,a3,0x291c
    2900:	00017717          	auipc	a4,0x17
    2904:	9b070713          	addi	a4,a4,-1616 # 0x192b0
    2908:	06c42783          	lw	a5,108(s0)
    290c:	00072683          	lw	a3,0(a4)
    2910:	fff7c793          	not	a5,a5
    2914:	00d7f7b3          	and	a5,a5,a3
    2918:	00f72023          	sw	a5,0(a4)
    291c:	00013403          	ld	s0,0(sp)
    2920:	00813083          	ld	ra,8(sp)
    2924:	01010113          	addi	sp,sp,16
    2928:	f54fd06f          	j	0x7c
    292c:	ff010113          	addi	sp,sp,-16
    2930:	00017517          	auipc	a0,0x17
    2934:	98052503          	lw	a0,-1664(a0) # 0x192b0
    2938:	00113423          	sd	ra,8(sp)
    293c:	00813023          	sd	s0,0(sp)
    2940:	501010ef          	jal	ra,0x4640
    2944:	fff5051b          	addiw	a0,a0,-1
    2948:	0001b797          	auipc	a5,0x1b
    294c:	bf878793          	addi	a5,a5,-1032 # 0x1d540
    2950:	00451513          	slli	a0,a0,0x4
    2954:	00a78533          	add	a0,a5,a0
    2958:	00053403          	ld	s0,0(a0)
    295c:	fd840513          	addi	a0,s0,-40
    2960:	00017797          	auipc	a5,0x17
    2964:	92a7b823          	sd	a0,-1744(a5) # 0x19290
    2968:	f31ff0ef          	jal	ra,0x2898
    296c:	00300793          	li	a5,3
    2970:	04f40023          	sb	a5,64(s0)
    2974:	01040513          	addi	a0,s0,16
    2978:	00013403          	ld	s0,0(sp)
    297c:	00813083          	ld	ra,8(sp)
    2980:	01010113          	addi	sp,sp,16
    2984:	f00fd06f          	j	0x84
    2988:	fc010113          	addi	sp,sp,-64
    298c:	01313c23          	sd	s3,24(sp)
    2990:	02113c23          	sd	ra,56(sp)
    2994:	02813823          	sd	s0,48(sp)
    2998:	02913423          	sd	s1,40(sp)
    299c:	03213023          	sd	s2,32(sp)
    29a0:	01413823          	sd	s4,16(sp)
    29a4:	ed0fd0ef          	jal	ra,0x74
    29a8:	00017797          	auipc	a5,0x17
    29ac:	8f879783          	lh	a5,-1800(a5) # 0x192a0
    29b0:	00050993          	mv	s3,a0
    29b4:	0e079e63          	bnez	a5,0x2ab0
    29b8:	00017517          	auipc	a0,0x17
    29bc:	8f852503          	lw	a0,-1800(a0) # 0x192b0
    29c0:	0e050863          	beqz	a0,0x2ab0
    29c4:	47d010ef          	jal	ra,0x4640
    29c8:	00017917          	auipc	s2,0x17
    29cc:	8c890913          	addi	s2,s2,-1848 # 0x19290
    29d0:	00093483          	ld	s1,0(s2)
    29d4:	fff5079b          	addiw	a5,a0,-1
    29d8:	00479693          	slli	a3,a5,0x4
    29dc:	0001b717          	auipc	a4,0x1b
    29e0:	b6470713          	addi	a4,a4,-1180 # 0x1d540
    29e4:	00d70733          	add	a4,a4,a3
    29e8:	00073403          	ld	s0,0(a4)
    29ec:	0684c703          	lbu	a4,104(s1) # 0xffffffff80000068
    29f0:	00300693          	li	a3,3
    29f4:	fd840413          	addi	s0,s0,-40
    29f8:	00777613          	andi	a2,a4,7
    29fc:	00000a13          	li	s4,0
    2a00:	02d61663          	bne	a2,a3,0x2a2c
    2a04:	0694c683          	lbu	a3,105(s1)
    2a08:	0cf6e663          	bltu	a3,a5,0x2ad4
    2a0c:	00100a13          	li	s4,1
    2a10:	00f69a63          	bne	a3,a5,0x2a24
    2a14:	00877693          	andi	a3,a4,8
    2a18:	00069663          	bnez	a3,0x2a24
    2a1c:	00048413          	mv	s0,s1
    2a20:	00000a13          	li	s4,0
    2a24:	ff777713          	andi	a4,a4,-9
    2a28:	06e48423          	sb	a4,104(s1)
    2a2c:	0a848e63          	beq	s1,s0,0x2ae8
    2a30:	00017717          	auipc	a4,0x17
    2a34:	84f70c23          	sb	a5,-1960(a4) # 0x19288
    2a38:	00893023          	sd	s0,0(s2)
    2a3c:	00017797          	auipc	a5,0x17
    2a40:	85c7b783          	ld	a5,-1956(a5) # 0x19298
    2a44:	00078863          	beqz	a5,0x2a54
    2a48:	00040593          	mv	a1,s0
    2a4c:	00048513          	mv	a0,s1
    2a50:	000780e7          	jalr	a5
    2a54:	000a0663          	beqz	s4,0x2a60
    2a58:	00048513          	mv	a0,s1
    2a5c:	d91ff0ef          	jal	ra,0x27ec
    2a60:	00040513          	mv	a0,s0
    2a64:	e35ff0ef          	jal	ra,0x2898
    2a68:	06844783          	lbu	a5,104(s0)
    2a6c:	03848913          	addi	s2,s1,56
    2a70:	03840593          	addi	a1,s0,56
    2a74:	ff87f793          	andi	a5,a5,-8
    2a78:	0037e793          	ori	a5,a5,3
    2a7c:	06f40423          	sb	a5,104(s0)
    2a80:	00016797          	auipc	a5,0x16
    2a84:	7e87c783          	lbu	a5,2024(a5) # 0x19268
    2a88:	04079a63          	bnez	a5,0x2adc
    2a8c:	00017797          	auipc	a5,0x17
    2a90:	81c7b783          	ld	a5,-2020(a5) # 0x192a8
    2a94:	00078a63          	beqz	a5,0x2aa8
    2a98:	00048513          	mv	a0,s1
    2a9c:	00b13423          	sd	a1,8(sp)
    2aa0:	000780e7          	jalr	a5
    2aa4:	00813583          	ld	a1,8(sp)
    2aa8:	00090513          	mv	a0,s2
    2aac:	de8fd0ef          	jal	ra,0x94
    2ab0:	03013403          	ld	s0,48(sp)
    2ab4:	03813083          	ld	ra,56(sp)
    2ab8:	02813483          	ld	s1,40(sp)
    2abc:	02013903          	ld	s2,32(sp)
    2ac0:	01013a03          	ld	s4,16(sp)
    2ac4:	00098513          	mv	a0,s3
    2ac8:	01813983          	ld	s3,24(sp)
    2acc:	04010113          	addi	sp,sp,64
    2ad0:	dacfd06f          	j	0x7c
    2ad4:	00048413          	mv	s0,s1
    2ad8:	f4dff06f          	j	0x2a24
    2adc:	00090513          	mv	a0,s2
    2ae0:	5dd020ef          	jal	ra,0x58bc
    2ae4:	fcdff06f          	j	0x2ab0
    2ae8:	00048513          	mv	a0,s1
    2aec:	dadff0ef          	jal	ra,0x2898
    2af0:	00093703          	ld	a4,0(s2)
    2af4:	06874783          	lbu	a5,104(a4)
    2af8:	ff87f793          	andi	a5,a5,-8
    2afc:	0037e793          	ori	a5,a5,3
    2b00:	06f70423          	sb	a5,104(a4)
    2b04:	fadff06f          	j	0x2ab0
    2b08:	ff010113          	addi	sp,sp,-16
    2b0c:	00113423          	sd	ra,8(sp)
    2b10:	d64fd0ef          	jal	ra,0x74
    2b14:	00016717          	auipc	a4,0x16
    2b18:	78c70713          	addi	a4,a4,1932 # 0x192a0
    2b1c:	00075783          	lhu	a5,0(a4)
    2b20:	00813083          	ld	ra,8(sp)
    2b24:	0017879b          	addiw	a5,a5,1
    2b28:	00f71023          	sh	a5,0(a4)
    2b2c:	01010113          	addi	sp,sp,16
    2b30:	d4cfd06f          	j	0x7c
    2b34:	ff010113          	addi	sp,sp,-16
    2b38:	00113423          	sd	ra,8(sp)
    2b3c:	d38fd0ef          	jal	ra,0x74
    2b40:	00016717          	auipc	a4,0x16
    2b44:	76070713          	addi	a4,a4,1888 # 0x192a0
    2b48:	00075783          	lhu	a5,0(a4)
    2b4c:	fff7879b          	addiw	a5,a5,-1
    2b50:	0107979b          	slliw	a5,a5,0x10
    2b54:	4107d79b          	sraiw	a5,a5,0x10
    2b58:	00f71023          	sh	a5,0(a4)
    2b5c:	02f04463          	bgtz	a5,0x2b84
    2b60:	00016797          	auipc	a5,0x16
    2b64:	74079023          	sh	zero,1856(a5) # 0x192a0
    2b68:	d14fd0ef          	jal	ra,0x7c
    2b6c:	00016797          	auipc	a5,0x16
    2b70:	7247b783          	ld	a5,1828(a5) # 0x19290
    2b74:	00078e63          	beqz	a5,0x2b90
    2b78:	00813083          	ld	ra,8(sp)
    2b7c:	01010113          	addi	sp,sp,16
    2b80:	e09ff06f          	j	0x2988
    2b84:	00813083          	ld	ra,8(sp)
    2b88:	01010113          	addi	sp,sp,16
    2b8c:	cf0fd06f          	j	0x7c
    2b90:	00813083          	ld	ra,8(sp)
    2b94:	01010113          	addi	sp,sp,16
    2b98:	00008067          	ret
    2b9c:	00900593          	li	a1,9
    2ba0:	3d50006f          	j	0x3774
    2ba4:	02051463          	bnez	a0,0x2bcc
    2ba8:	fff00513          	li	a0,-1
    2bac:	00008067          	ret
    2bb0:	fff00513          	li	a0,-1
    2bb4:	01813083          	ld	ra,24(sp)
    2bb8:	01013403          	ld	s0,16(sp)
    2bbc:	00813483          	ld	s1,8(sp)
    2bc0:	00013903          	ld	s2,0(sp)
    2bc4:	02010113          	addi	sp,sp,32
    2bc8:	00008067          	ret
    2bcc:	fe010113          	addi	sp,sp,-32
    2bd0:	00813823          	sd	s0,16(sp)
    2bd4:	00050413          	mv	s0,a0
    2bd8:	00058513          	mv	a0,a1
    2bdc:	00913423          	sd	s1,8(sp)
    2be0:	01213023          	sd	s2,0(sp)
    2be4:	00113c23          	sd	ra,24(sp)
    2be8:	00058493          	mv	s1,a1
    2bec:	00060913          	mv	s2,a2
    2bf0:	fadff0ef          	jal	ra,0x2b9c
    2bf4:	fa051ee3          	bnez	a0,0x2bb0
    2bf8:	00040513          	mv	a0,s0
    2bfc:	00048613          	mv	a2,s1
    2c00:	00900593          	li	a1,9
    2c04:	7ac000ef          	jal	ra,0x33b0
    2c08:	00000513          	li	a0,0
    2c0c:	03241623          	sh	s2,44(s0)
    2c10:	02040823          	sb	zero,48(s0)
    2c14:	02041723          	sh	zero,46(s0)
    2c18:	f9dff06f          	j	0x2bb4
    2c1c:	fe010113          	addi	sp,sp,-32
    2c20:	00813823          	sd	s0,16(sp)
    2c24:	01213023          	sd	s2,0(sp)
    2c28:	00113c23          	sd	ra,24(sp)
    2c2c:	00913423          	sd	s1,8(sp)
    2c30:	00050413          	mv	s0,a0
    2c34:	00058913          	mv	s2,a1
    2c38:	00051e63          	bnez	a0,0x2c54
    2c3c:	0c900613          	li	a2,201
    2c40:	0000b597          	auipc	a1,0xb
    2c44:	e6858593          	addi	a1,a1,-408 # 0xdaa8
    2c48:	0000b517          	auipc	a0,0xb
    2c4c:	d9850513          	addi	a0,a0,-616 # 0xd9e0
    2c50:	275010ef          	jal	ra,0x46c4
    2c54:	00040513          	mv	a0,s0
    2c58:	2d9000ef          	jal	ra,0x3730
    2c5c:	00900793          	li	a5,9
    2c60:	00f50e63          	beq	a0,a5,0x2c7c
    2c64:	0ca00613          	li	a2,202
    2c68:	0000b597          	auipc	a1,0xb
    2c6c:	e4058593          	addi	a1,a1,-448 # 0xdaa8
    2c70:	0000b517          	auipc	a0,0xb
    2c74:	d8050513          	addi	a0,a0,-640 # 0xd9f0
    2c78:	24d010ef          	jal	ra,0x46c4
    2c7c:	02c45783          	lhu	a5,44(s0)
    2c80:	0107f793          	andi	a5,a5,16
    2c84:	04079c63          	bnez	a5,0x2cdc
    2c88:	04843783          	ld	a5,72(s0)
    2c8c:	04078263          	beqz	a5,0x2cd0
    2c90:	00040513          	mv	a0,s0
    2c94:	000780e7          	jalr	a5
    2c98:	00050493          	mv	s1,a0
    2c9c:	02050a63          	beqz	a0,0x2cd0
    2ca0:	00050613          	mv	a2,a0
    2ca4:	00040593          	mv	a1,s0
    2ca8:	0000b517          	auipc	a0,0xb
    2cac:	db050513          	addi	a0,a0,-592 # 0xda58
    2cb0:	089010ef          	jal	ra,0x4538
    2cb4:	01813083          	ld	ra,24(sp)
    2cb8:	01013403          	ld	s0,16(sp)
    2cbc:	00013903          	ld	s2,0(sp)
    2cc0:	00048513          	mv	a0,s1
    2cc4:	00813483          	ld	s1,8(sp)
    2cc8:	02010113          	addi	sp,sp,32
    2ccc:	00008067          	ret
    2cd0:	02c45783          	lhu	a5,44(s0)
    2cd4:	0107e793          	ori	a5,a5,16
    2cd8:	02f41623          	sh	a5,44(s0)
    2cdc:	02c45783          	lhu	a5,44(s0)
    2ce0:	0087f793          	andi	a5,a5,8
    2ce4:	00078a63          	beqz	a5,0x2cf8
    2ce8:	02e45783          	lhu	a5,46(s0)
    2cec:	ff900493          	li	s1,-7
    2cf0:	0087f793          	andi	a5,a5,8
    2cf4:	fc0790e3          	bnez	a5,0x2cb4
    2cf8:	05043783          	ld	a5,80(s0)
    2cfc:	04078a63          	beqz	a5,0x2d50
    2d00:	00090593          	mv	a1,s2
    2d04:	00040513          	mv	a0,s0
    2d08:	000780e7          	jalr	a5
    2d0c:	00050493          	mv	s1,a0
    2d10:	04051c63          	bnez	a0,0x2d68
    2d14:	02e45783          	lhu	a5,46(s0)
    2d18:	0087e793          	ori	a5,a5,8
    2d1c:	02f41723          	sh	a5,46(s0)
    2d20:	03044783          	lbu	a5,48(s0)
    2d24:	0017879b          	addiw	a5,a5,1
    2d28:	0ff7f793          	andi	a5,a5,255
    2d2c:	02f40823          	sb	a5,48(s0)
    2d30:	f80792e3          	bnez	a5,0x2cb4
    2d34:	0f800613          	li	a2,248
    2d38:	0000b597          	auipc	a1,0xb
    2d3c:	d7058593          	addi	a1,a1,-656 # 0xdaa8
    2d40:	0000b517          	auipc	a0,0xb
    2d44:	d5050513          	addi	a0,a0,-688 # 0xda90
    2d48:	17d010ef          	jal	ra,0x46c4
    2d4c:	f69ff06f          	j	0x2cb4
    2d50:	000015b7          	lui	a1,0x1
    2d54:	f0f58593          	addi	a1,a1,-241 # 0xf0f
    2d58:	00b97933          	and	s2,s2,a1
    2d5c:	03241723          	sh	s2,46(s0)
    2d60:	00000493          	li	s1,0
    2d64:	fb1ff06f          	j	0x2d14
    2d68:	ffa00793          	li	a5,-6
    2d6c:	f4f514e3          	bne	a0,a5,0x2cb4
    2d70:	fa5ff06f          	j	0x2d14
    2d74:	ff010113          	addi	sp,sp,-16
    2d78:	00813023          	sd	s0,0(sp)
    2d7c:	00113423          	sd	ra,8(sp)
    2d80:	00050413          	mv	s0,a0
    2d84:	00051e63          	bnez	a0,0x2da0
    2d88:	10a00613          	li	a2,266
    2d8c:	0000b597          	auipc	a1,0xb
    2d90:	d2c58593          	addi	a1,a1,-724 # 0xdab8
    2d94:	0000b517          	auipc	a0,0xb
    2d98:	c4c50513          	addi	a0,a0,-948 # 0xd9e0
    2d9c:	129010ef          	jal	ra,0x46c4
    2da0:	00040513          	mv	a0,s0
    2da4:	18d000ef          	jal	ra,0x3730
    2da8:	00900793          	li	a5,9
    2dac:	00f50e63          	beq	a0,a5,0x2dc8
    2db0:	10b00613          	li	a2,267
    2db4:	0000b597          	auipc	a1,0xb
    2db8:	d0458593          	addi	a1,a1,-764 # 0xdab8
    2dbc:	0000b517          	auipc	a0,0xb
    2dc0:	c3450513          	addi	a0,a0,-972 # 0xd9f0
    2dc4:	101010ef          	jal	ra,0x46c4
    2dc8:	03044783          	lbu	a5,48(s0)
    2dcc:	fff00513          	li	a0,-1
    2dd0:	04078063          	beqz	a5,0x2e10
    2dd4:	fff7879b          	addiw	a5,a5,-1
    2dd8:	0ff7f793          	andi	a5,a5,255
    2ddc:	02f40823          	sb	a5,48(s0)
    2de0:	00000513          	li	a0,0
    2de4:	02079663          	bnez	a5,0x2e10
    2de8:	05843783          	ld	a5,88(s0)
    2dec:	00079863          	bnez	a5,0x2dfc
    2df0:	00000513          	li	a0,0
    2df4:	02041723          	sh	zero,46(s0)
    2df8:	0180006f          	j	0x2e10
    2dfc:	00040513          	mv	a0,s0
    2e00:	000780e7          	jalr	a5
    2e04:	fe0506e3          	beqz	a0,0x2df0
    2e08:	ffa00793          	li	a5,-6
    2e0c:	fef504e3          	beq	a0,a5,0x2df4
    2e10:	00813083          	ld	ra,8(sp)
    2e14:	00013403          	ld	s0,0(sp)
    2e18:	01010113          	addi	sp,sp,16
    2e1c:	00008067          	ret
    2e20:	fd010113          	addi	sp,sp,-48
    2e24:	02813023          	sd	s0,32(sp)
    2e28:	00913c23          	sd	s1,24(sp)
    2e2c:	01213823          	sd	s2,16(sp)
    2e30:	01313423          	sd	s3,8(sp)
    2e34:	02113423          	sd	ra,40(sp)
    2e38:	00050413          	mv	s0,a0
    2e3c:	00058493          	mv	s1,a1
    2e40:	00060913          	mv	s2,a2
    2e44:	00068993          	mv	s3,a3
    2e48:	00051e63          	bnez	a0,0x2e64
    2e4c:	13400613          	li	a2,308
    2e50:	0000b597          	auipc	a1,0xb
    2e54:	c7858593          	addi	a1,a1,-904 # 0xdac8
    2e58:	0000b517          	auipc	a0,0xb
    2e5c:	b8850513          	addi	a0,a0,-1144 # 0xd9e0
    2e60:	065010ef          	jal	ra,0x46c4
    2e64:	00040513          	mv	a0,s0
    2e68:	0c9000ef          	jal	ra,0x3730
    2e6c:	00900793          	li	a5,9
    2e70:	00f50e63          	beq	a0,a5,0x2e8c
    2e74:	13500613          	li	a2,309
    2e78:	0000b597          	auipc	a1,0xb
    2e7c:	c5058593          	addi	a1,a1,-944 # 0xdac8
    2e80:	0000b517          	auipc	a0,0xb
    2e84:	b7050513          	addi	a0,a0,-1168 # 0xd9f0
    2e88:	03d010ef          	jal	ra,0x46c4
    2e8c:	03044783          	lbu	a5,48(s0)
    2e90:	fff00513          	li	a0,-1
    2e94:	02078e63          	beqz	a5,0x2ed0
    2e98:	06043303          	ld	t1,96(s0)
    2e9c:	02030863          	beqz	t1,0x2ecc
    2ea0:	00040513          	mv	a0,s0
    2ea4:	02013403          	ld	s0,32(sp)
    2ea8:	02813083          	ld	ra,40(sp)
    2eac:	00098693          	mv	a3,s3
    2eb0:	00090613          	mv	a2,s2
    2eb4:	00813983          	ld	s3,8(sp)
    2eb8:	01013903          	ld	s2,16(sp)
    2ebc:	00048593          	mv	a1,s1
    2ec0:	01813483          	ld	s1,24(sp)
    2ec4:	03010113          	addi	sp,sp,48
    2ec8:	00030067          	jr	t1
    2ecc:	ffa00513          	li	a0,-6
    2ed0:	459000ef          	jal	ra,0x3b28
    2ed4:	02813083          	ld	ra,40(sp)
    2ed8:	02013403          	ld	s0,32(sp)
    2edc:	01813483          	ld	s1,24(sp)
    2ee0:	01013903          	ld	s2,16(sp)
    2ee4:	00813983          	ld	s3,8(sp)
    2ee8:	00000513          	li	a0,0
    2eec:	03010113          	addi	sp,sp,48
    2ef0:	00008067          	ret
    2ef4:	fd010113          	addi	sp,sp,-48
    2ef8:	02813023          	sd	s0,32(sp)
    2efc:	00913c23          	sd	s1,24(sp)
    2f00:	01213823          	sd	s2,16(sp)
    2f04:	01313423          	sd	s3,8(sp)
    2f08:	02113423          	sd	ra,40(sp)
    2f0c:	00050413          	mv	s0,a0
    2f10:	00058493          	mv	s1,a1
    2f14:	00060913          	mv	s2,a2
    2f18:	00068993          	mv	s3,a3
    2f1c:	00051e63          	bnez	a0,0x2f38
    2f20:	15b00613          	li	a2,347
    2f24:	0000b597          	auipc	a1,0xb
    2f28:	bb458593          	addi	a1,a1,-1100 # 0xdad8
    2f2c:	0000b517          	auipc	a0,0xb
    2f30:	ab450513          	addi	a0,a0,-1356 # 0xd9e0
    2f34:	790010ef          	jal	ra,0x46c4
    2f38:	00040513          	mv	a0,s0
    2f3c:	7f4000ef          	jal	ra,0x3730
    2f40:	00900793          	li	a5,9
    2f44:	00f50e63          	beq	a0,a5,0x2f60
    2f48:	15c00613          	li	a2,348
    2f4c:	0000b597          	auipc	a1,0xb
    2f50:	b8c58593          	addi	a1,a1,-1140 # 0xdad8
    2f54:	0000b517          	auipc	a0,0xb
    2f58:	a9c50513          	addi	a0,a0,-1380 # 0xd9f0
    2f5c:	768010ef          	jal	ra,0x46c4
    2f60:	03044783          	lbu	a5,48(s0)
    2f64:	fff00513          	li	a0,-1
    2f68:	02078e63          	beqz	a5,0x2fa4
    2f6c:	06843303          	ld	t1,104(s0)
    2f70:	02030863          	beqz	t1,0x2fa0
    2f74:	00040513          	mv	a0,s0
    2f78:	02013403          	ld	s0,32(sp)
    2f7c:	02813083          	ld	ra,40(sp)
    2f80:	00098693          	mv	a3,s3
    2f84:	00090613          	mv	a2,s2
    2f88:	00813983          	ld	s3,8(sp)
    2f8c:	01013903          	ld	s2,16(sp)
    2f90:	00048593          	mv	a1,s1
    2f94:	01813483          	ld	s1,24(sp)
    2f98:	03010113          	addi	sp,sp,48
    2f9c:	00030067          	jr	t1
    2fa0:	ffa00513          	li	a0,-6
    2fa4:	385000ef          	jal	ra,0x3b28
    2fa8:	02813083          	ld	ra,40(sp)
    2fac:	02013403          	ld	s0,32(sp)
    2fb0:	01813483          	ld	s1,24(sp)
    2fb4:	01013903          	ld	s2,16(sp)
    2fb8:	00813983          	ld	s3,8(sp)
    2fbc:	00000513          	li	a0,0
    2fc0:	03010113          	addi	sp,sp,48
    2fc4:	00008067          	ret
    2fc8:	fe010113          	addi	sp,sp,-32
    2fcc:	00813823          	sd	s0,16(sp)
    2fd0:	00913423          	sd	s1,8(sp)
    2fd4:	01213023          	sd	s2,0(sp)
    2fd8:	00113c23          	sd	ra,24(sp)
    2fdc:	00050413          	mv	s0,a0
    2fe0:	00058493          	mv	s1,a1
    2fe4:	00060913          	mv	s2,a2
    2fe8:	00051e63          	bnez	a0,0x3004
    2fec:	17c00613          	li	a2,380
    2ff0:	0000b597          	auipc	a1,0xb
    2ff4:	af858593          	addi	a1,a1,-1288 # 0xdae8
    2ff8:	0000b517          	auipc	a0,0xb
    2ffc:	9e850513          	addi	a0,a0,-1560 # 0xd9e0
    3000:	6c4010ef          	jal	ra,0x46c4
    3004:	00040513          	mv	a0,s0
    3008:	728000ef          	jal	ra,0x3730
    300c:	00900793          	li	a5,9
    3010:	00f50e63          	beq	a0,a5,0x302c
    3014:	17d00613          	li	a2,381
    3018:	0000b597          	auipc	a1,0xb
    301c:	ad058593          	addi	a1,a1,-1328 # 0xdae8
    3020:	0000b517          	auipc	a0,0xb
    3024:	9d050513          	addi	a0,a0,-1584 # 0xd9f0
    3028:	69c010ef          	jal	ra,0x46c4
    302c:	07043303          	ld	t1,112(s0)
    3030:	02030463          	beqz	t1,0x3058
    3034:	00040513          	mv	a0,s0
    3038:	01013403          	ld	s0,16(sp)
    303c:	01813083          	ld	ra,24(sp)
    3040:	00090613          	mv	a2,s2
    3044:	00048593          	mv	a1,s1
    3048:	00013903          	ld	s2,0(sp)
    304c:	00813483          	ld	s1,8(sp)
    3050:	02010113          	addi	sp,sp,32
    3054:	00030067          	jr	t1
    3058:	01813083          	ld	ra,24(sp)
    305c:	01013403          	ld	s0,16(sp)
    3060:	00813483          	ld	s1,8(sp)
    3064:	00013903          	ld	s2,0(sp)
    3068:	ffa00513          	li	a0,-6
    306c:	02010113          	addi	sp,sp,32
    3070:	00008067          	ret
    3074:	fe010113          	addi	sp,sp,-32
    3078:	00813823          	sd	s0,16(sp)
    307c:	00913423          	sd	s1,8(sp)
    3080:	00113c23          	sd	ra,24(sp)
    3084:	00050413          	mv	s0,a0
    3088:	00058493          	mv	s1,a1
    308c:	00051e63          	bnez	a0,0x30a8
    3090:	19600613          	li	a2,406
    3094:	0000b597          	auipc	a1,0xb
    3098:	a6c58593          	addi	a1,a1,-1428 # 0xdb00
    309c:	0000b517          	auipc	a0,0xb
    30a0:	94450513          	addi	a0,a0,-1724 # 0xd9e0
    30a4:	620010ef          	jal	ra,0x46c4
    30a8:	00040513          	mv	a0,s0
    30ac:	684000ef          	jal	ra,0x3730
    30b0:	00900793          	li	a5,9
    30b4:	00f50e63          	beq	a0,a5,0x30d0
    30b8:	19700613          	li	a2,407
    30bc:	0000b597          	auipc	a1,0xb
    30c0:	a4458593          	addi	a1,a1,-1468 # 0xdb00
    30c4:	0000b517          	auipc	a0,0xb
    30c8:	92c50513          	addi	a0,a0,-1748 # 0xd9f0
    30cc:	5f8010ef          	jal	ra,0x46c4
    30d0:	02943c23          	sd	s1,56(s0)
    30d4:	01813083          	ld	ra,24(sp)
    30d8:	01013403          	ld	s0,16(sp)
    30dc:	00813483          	ld	s1,8(sp)
    30e0:	00000513          	li	a0,0
    30e4:	02010113          	addi	sp,sp,32
    30e8:	00008067          	ret
    30ec:	00000513          	li	a0,0
    30f0:	00008067          	ret
    30f4:	00000513          	li	a0,0
    30f8:	00008067          	ret
    30fc:	00000513          	li	a0,0
    3100:	00008067          	ret
    3104:	00000513          	li	a0,0
    3108:	00008067          	ret
    310c:	fe010113          	addi	sp,sp,-32
    3110:	00813823          	sd	s0,16(sp)
    3114:	00913423          	sd	s1,8(sp)
    3118:	00113c23          	sd	ra,24(sp)
    311c:	0000e417          	auipc	s0,0xe
    3120:	e3440413          	addi	s0,s0,-460 # 0x10f50
    3124:	0000e497          	auipc	s1,0xe
    3128:	e3448493          	addi	s1,s1,-460 # 0x10f58
    312c:	00946c63          	bltu	s0,s1,0x3144
    3130:	01813083          	ld	ra,24(sp)
    3134:	01013403          	ld	s0,16(sp)
    3138:	00813483          	ld	s1,8(sp)
    313c:	02010113          	addi	sp,sp,32
    3140:	00008067          	ret
    3144:	00043783          	ld	a5,0(s0)
    3148:	00840413          	addi	s0,s0,8
    314c:	000780e7          	jalr	a5
    3150:	fddff06f          	j	0x312c
    3154:	fe010113          	addi	sp,sp,-32
    3158:	00813823          	sd	s0,16(sp)
    315c:	00913423          	sd	s1,8(sp)
    3160:	00113c23          	sd	ra,24(sp)
    3164:	0000e417          	auipc	s0,0xe
    3168:	df440413          	addi	s0,s0,-524 # 0x10f58
    316c:	0000e497          	auipc	s1,0xe
    3170:	e0c48493          	addi	s1,s1,-500 # 0x10f78
    3174:	00946c63          	bltu	s0,s1,0x318c
    3178:	01813083          	ld	ra,24(sp)
    317c:	01013403          	ld	s0,16(sp)
    3180:	00813483          	ld	s1,8(sp)
    3184:	02010113          	addi	sp,sp,32
    3188:	00008067          	ret
    318c:	00043783          	ld	a5,0(s0)
    3190:	00840413          	addi	s0,s0,8
    3194:	000780e7          	jalr	a5
    3198:	fddff06f          	j	0x3174
    319c:	ff010113          	addi	sp,sp,-16
    31a0:	00113423          	sd	ra,8(sp)
    31a4:	fb1ff0ef          	jal	ra,0x3154
    31a8:	00813083          	ld	ra,8(sp)
    31ac:	01010113          	addi	sp,sp,16
    31b0:	918fd06f          	j	0x2c8
    31b4:	ff010113          	addi	sp,sp,-16
    31b8:	01400793          	li	a5,20
    31bc:	00a00713          	li	a4,10
    31c0:	000046b7          	lui	a3,0x4
    31c4:	00000613          	li	a2,0
    31c8:	00000597          	auipc	a1,0x0
    31cc:	fd458593          	addi	a1,a1,-44 # 0x319c
    31d0:	0000b517          	auipc	a0,0xb
    31d4:	95050513          	addi	a0,a0,-1712 # 0xdb20
    31d8:	00813023          	sd	s0,0(sp)
    31dc:	00113423          	sd	ra,8(sp)
    31e0:	f7dfe0ef          	jal	ra,0x215c
    31e4:	00050413          	mv	s0,a0
    31e8:	00051e63          	bnez	a0,0x3204
    31ec:	0cb00613          	li	a2,203
    31f0:	0000b597          	auipc	a1,0xb
    31f4:	94858593          	addi	a1,a1,-1720 # 0xdb38
    31f8:	0000b517          	auipc	a0,0xb
    31fc:	93050513          	addi	a0,a0,-1744 # 0xdb28
    3200:	4c4010ef          	jal	ra,0x46c4
    3204:	00040513          	mv	a0,s0
    3208:	00013403          	ld	s0,0(sp)
    320c:	00813083          	ld	ra,8(sp)
    3210:	01010113          	addi	sp,sp,16
    3214:	b9cff06f          	j	0x25b0
    3218:	ff010113          	addi	sp,sp,-16
    321c:	00113423          	sd	ra,8(sp)
    3220:	e55fc0ef          	jal	ra,0x74
    3224:	ac8fd0ef          	jal	ra,0x4ec
    3228:	3c4010ef          	jal	ra,0x45ec
    322c:	975fe0ef          	jal	ra,0x1ba0
    3230:	d88ff0ef          	jal	ra,0x27b8
    3234:	f81ff0ef          	jal	ra,0x31b4
    3238:	97dfe0ef          	jal	ra,0x1bb4
    323c:	64c010ef          	jal	ra,0x4888
    3240:	eecff0ef          	jal	ra,0x292c
    3244:	00813083          	ld	ra,8(sp)
    3248:	00000513          	li	a0,0
    324c:	01010113          	addi	sp,sp,16
    3250:	00008067          	ret
    3254:	ff010113          	addi	sp,sp,-16
    3258:	00113423          	sd	ra,8(sp)
    325c:	fbdff0ef          	jal	ra,0x3218
    3260:	00813083          	ld	ra,8(sp)
    3264:	00000513          	li	a0,0
    3268:	01010113          	addi	sp,sp,16
    326c:	00008067          	ret
    3270:	00016517          	auipc	a0,0x16
    3274:	04452503          	lw	a0,68(a0) # 0x192b4
    3278:	00008067          	ret
    327c:	ff010113          	addi	sp,sp,-16
    3280:	00113423          	sd	ra,8(sp)
    3284:	00813023          	sd	s0,0(sp)
    3288:	dedfc0ef          	jal	ra,0x74
    328c:	00016797          	auipc	a5,0x16
    3290:	0287a783          	lw	a5,40(a5) # 0x192b4
    3294:	0017879b          	addiw	a5,a5,1
    3298:	00016717          	auipc	a4,0x16
    329c:	00f72e23          	sw	a5,28(a4) # 0x192b4
    32a0:	00050413          	mv	s0,a0
    32a4:	db1fe0ef          	jal	ra,0x2054
    32a8:	08053783          	ld	a5,128(a0)
    32ac:	fff78793          	addi	a5,a5,-1
    32b0:	08f53023          	sd	a5,128(a0)
    32b4:	02079a63          	bnez	a5,0x32e8
    32b8:	07853783          	ld	a5,120(a0)
    32bc:	08f53023          	sd	a5,128(a0)
    32c0:	06854783          	lbu	a5,104(a0)
    32c4:	0087e793          	ori	a5,a5,8
    32c8:	06f50423          	sb	a5,104(a0)
    32cc:	00040513          	mv	a0,s0
    32d0:	dadfc0ef          	jal	ra,0x7c
    32d4:	eb4ff0ef          	jal	ra,0x2988
    32d8:	00013403          	ld	s0,0(sp)
    32dc:	00813083          	ld	ra,8(sp)
    32e0:	01010113          	addi	sp,sp,16
    32e4:	d58fe06f          	j	0x183c
    32e8:	00040513          	mv	a0,s0
    32ec:	d91fc0ef          	jal	ra,0x7c
    32f0:	fe9ff06f          	j	0x32d8
    32f4:	06054c63          	bltz	a0,0x336c
    32f8:	fe010113          	addi	sp,sp,-32
    32fc:	3e800593          	li	a1,1000
    3300:	00113c23          	sd	ra,24(sp)
    3304:	00813823          	sd	s0,16(sp)
    3308:	00913423          	sd	s1,8(sp)
    330c:	00050493          	mv	s1,a0
    3310:	ef9fc0ef          	jal	ra,0x208
    3314:	0015141b          	slliw	s0,a0,0x1
    3318:	00a4043b          	addw	s0,s0,a0
    331c:	0034141b          	slliw	s0,s0,0x3
    3320:	00a4053b          	addw	a0,s0,a0
    3324:	0025141b          	slliw	s0,a0,0x2
    3328:	3e800593          	li	a1,1000
    332c:	00048513          	mv	a0,s1
    3330:	f5dfc0ef          	jal	ra,0x28c
    3334:	0015179b          	slliw	a5,a0,0x1
    3338:	00a787bb          	addw	a5,a5,a0
    333c:	0037979b          	slliw	a5,a5,0x3
    3340:	00a7853b          	addw	a0,a5,a0
    3344:	0025151b          	slliw	a0,a0,0x2
    3348:	3e800593          	li	a1,1000
    334c:	3e75051b          	addiw	a0,a0,999
    3350:	eb9fc0ef          	jal	ra,0x208
    3354:	01813083          	ld	ra,24(sp)
    3358:	00a4053b          	addw	a0,s0,a0
    335c:	01013403          	ld	s0,16(sp)
    3360:	00813483          	ld	s1,8(sp)
    3364:	02010113          	addi	sp,sp,32
    3368:	00008067          	ret
    336c:	fff00513          	li	a0,-1
    3370:	00008067          	ret
    3374:	0000e697          	auipc	a3,0xe
    3378:	c2468693          	addi	a3,a3,-988 # 0x10f98
    337c:	00000793          	li	a5,0
    3380:	00068713          	mv	a4,a3
    3384:	00900613          	li	a2,9
    3388:	0006a583          	lw	a1,0(a3)
    338c:	00a59863          	bne	a1,a0,0x339c
    3390:	00579793          	slli	a5,a5,0x5
    3394:	00f70533          	add	a0,a4,a5
    3398:	00008067          	ret
    339c:	0017879b          	addiw	a5,a5,1
    33a0:	02068693          	addi	a3,a3,32
    33a4:	fec792e3          	bne	a5,a2,0x3388
    33a8:	00000513          	li	a0,0
    33ac:	00008067          	ret
    33b0:	fb010113          	addi	sp,sp,-80
    33b4:	04813023          	sd	s0,64(sp)
    33b8:	00050413          	mv	s0,a0
    33bc:	00058513          	mv	a0,a1
    33c0:	02913c23          	sd	s1,56(sp)
    33c4:	03213823          	sd	s2,48(sp)
    33c8:	03413023          	sd	s4,32(sp)
    33cc:	04113423          	sd	ra,72(sp)
    33d0:	03313423          	sd	s3,40(sp)
    33d4:	01513c23          	sd	s5,24(sp)
    33d8:	01613823          	sd	s6,16(sp)
    33dc:	01713423          	sd	s7,8(sp)
    33e0:	00058913          	mv	s2,a1
    33e4:	00060a13          	mv	s4,a2
    33e8:	f8dff0ef          	jal	ra,0x3374
    33ec:	00050493          	mv	s1,a0
    33f0:	00051e63          	bnez	a0,0x340c
    33f4:	13800613          	li	a2,312
    33f8:	0000a597          	auipc	a1,0xa
    33fc:	7c858593          	addi	a1,a1,1992 # 0xdbc0
    3400:	0000a517          	auipc	a0,0xa
    3404:	75050513          	addi	a0,a0,1872 # 0xdb50
    3408:	2bc010ef          	jal	ra,0x46c4
    340c:	efcff0ef          	jal	ra,0x2b08
    3410:	0084b983          	ld	s3,8(s1)
    3414:	00848a93          	addi	s5,s1,8
    3418:	0000ab17          	auipc	s6,0xa
    341c:	7a8b0b13          	addi	s6,s6,1960 # 0xdbc0
    3420:	0000ab97          	auipc	s7,0xa
    3424:	748b8b93          	addi	s7,s7,1864 # 0xdb68
    3428:	07599e63          	bne	s3,s5,0x34a4
    342c:	f08ff0ef          	jal	ra,0x2b34
    3430:	f8096913          	ori	s2,s2,-128
    3434:	01240a23          	sb	s2,20(s0)
    3438:	01400613          	li	a2,20
    343c:	000a0593          	mv	a1,s4
    3440:	00040513          	mv	a0,s0
    3444:	145000ef          	jal	ra,0x3d88
    3448:	00016797          	auipc	a5,0x16
    344c:	e707b783          	ld	a5,-400(a5) # 0x192b8
    3450:	00078663          	beqz	a5,0x345c
    3454:	00040513          	mv	a0,s0
    3458:	000780e7          	jalr	a5
    345c:	c19fc0ef          	jal	ra,0x74
    3460:	0084b703          	ld	a4,8(s1)
    3464:	01840793          	addi	a5,s0,24
    3468:	04813083          	ld	ra,72(sp)
    346c:	00f73423          	sd	a5,8(a4)
    3470:	00e43c23          	sd	a4,24(s0)
    3474:	00f4b423          	sd	a5,8(s1)
    3478:	03343023          	sd	s3,32(s0)
    347c:	04013403          	ld	s0,64(sp)
    3480:	03813483          	ld	s1,56(sp)
    3484:	03013903          	ld	s2,48(sp)
    3488:	02813983          	ld	s3,40(sp)
    348c:	02013a03          	ld	s4,32(sp)
    3490:	01813a83          	ld	s5,24(sp)
    3494:	01013b03          	ld	s6,16(sp)
    3498:	00813b83          	ld	s7,8(sp)
    349c:	05010113          	addi	sp,sp,80
    34a0:	bddfc06f          	j	0x7c
    34a4:	fe898793          	addi	a5,s3,-24
    34a8:	00f41a63          	bne	s0,a5,0x34bc
    34ac:	14800613          	li	a2,328
    34b0:	000b0593          	mv	a1,s6
    34b4:	000b8513          	mv	a0,s7
    34b8:	20c010ef          	jal	ra,0x46c4
    34bc:	0009b983          	ld	s3,0(s3)
    34c0:	f69ff06f          	j	0x3428
    34c4:	ff010113          	addi	sp,sp,-16
    34c8:	00813023          	sd	s0,0(sp)
    34cc:	00113423          	sd	ra,8(sp)
    34d0:	00050413          	mv	s0,a0
    34d4:	00051e63          	bnez	a0,0x34f0
    34d8:	17500613          	li	a2,373
    34dc:	0000a597          	auipc	a1,0xa
    34e0:	6f458593          	addi	a1,a1,1780 # 0xdbd0
    34e4:	0000a517          	auipc	a0,0xa
    34e8:	69450513          	addi	a0,a0,1684 # 0xdb78
    34ec:	1d8010ef          	jal	ra,0x46c4
    34f0:	00016797          	auipc	a5,0x16
    34f4:	dd07b783          	ld	a5,-560(a5) # 0x192c0
    34f8:	00078663          	beqz	a5,0x3504
    34fc:	00040513          	mv	a0,s0
    3500:	000780e7          	jalr	a5
    3504:	00040a23          	sb	zero,20(s0)
    3508:	b6dfc0ef          	jal	ra,0x74
    350c:	01843683          	ld	a3,24(s0)
    3510:	02043703          	ld	a4,32(s0)
    3514:	01840793          	addi	a5,s0,24
    3518:	00813083          	ld	ra,8(sp)
    351c:	00e6b423          	sd	a4,8(a3)
    3520:	00d73023          	sd	a3,0(a4)
    3524:	02f43023          	sd	a5,32(s0)
    3528:	00f43c23          	sd	a5,24(s0)
    352c:	00013403          	ld	s0,0(sp)
    3530:	01010113          	addi	sp,sp,16
    3534:	b49fc06f          	j	0x7c
    3538:	fd010113          	addi	sp,sp,-48
    353c:	02813023          	sd	s0,32(sp)
    3540:	01213823          	sd	s2,16(sp)
    3544:	01313423          	sd	s3,8(sp)
    3548:	02113423          	sd	ra,40(sp)
    354c:	00913c23          	sd	s1,24(sp)
    3550:	00050913          	mv	s2,a0
    3554:	00058993          	mv	s3,a1
    3558:	b1dfc0ef          	jal	ra,0x74
    355c:	00050413          	mv	s0,a0
    3560:	f44fe0ef          	jal	ra,0x1ca4
    3564:	02050863          	beqz	a0,0x3594
    3568:	0000a597          	auipc	a1,0xa
    356c:	68058593          	addi	a1,a1,1664 # 0xdbe8
    3570:	0000a517          	auipc	a0,0xa
    3574:	d5850513          	addi	a0,a0,-680 # 0xd2c8
    3578:	7c1000ef          	jal	ra,0x4538
    357c:	19800613          	li	a2,408
    3580:	0000a597          	auipc	a1,0xa
    3584:	66858593          	addi	a1,a1,1640 # 0xdbe8
    3588:	0000a517          	auipc	a0,0xa
    358c:	d6850513          	addi	a0,a0,-664 # 0xd2f0
    3590:	134010ef          	jal	ra,0x46c4
    3594:	00040513          	mv	a0,s0
    3598:	ae5fc0ef          	jal	ra,0x7c
    359c:	00090513          	mv	a0,s2
    35a0:	dd5ff0ef          	jal	ra,0x3374
    35a4:	00050493          	mv	s1,a0
    35a8:	00051e63          	bnez	a0,0x35c4
    35ac:	19c00613          	li	a2,412
    35b0:	0000a597          	auipc	a1,0xa
    35b4:	63858593          	addi	a1,a1,1592 # 0xdbe8
    35b8:	0000a517          	auipc	a0,0xa
    35bc:	59850513          	addi	a0,a0,1432 # 0xdb50
    35c0:	104010ef          	jal	ra,0x46c4
    35c4:	0184b503          	ld	a0,24(s1)
    35c8:	e44fd0ef          	jal	ra,0xc0c
    35cc:	00050413          	mv	s0,a0
    35d0:	06050063          	beqz	a0,0x3630
    35d4:	0184b603          	ld	a2,24(s1)
    35d8:	00000593          	li	a1,0
    35dc:	58c000ef          	jal	ra,0x3b68
    35e0:	01400613          	li	a2,20
    35e4:	01240a23          	sb	s2,20(s0)
    35e8:	00040aa3          	sb	zero,21(s0)
    35ec:	00098593          	mv	a1,s3
    35f0:	00040513          	mv	a0,s0
    35f4:	794000ef          	jal	ra,0x3d88
    35f8:	00016797          	auipc	a5,0x16
    35fc:	cc07b783          	ld	a5,-832(a5) # 0x192b8
    3600:	00078663          	beqz	a5,0x360c
    3604:	00040513          	mv	a0,s0
    3608:	000780e7          	jalr	a5
    360c:	a69fc0ef          	jal	ra,0x74
    3610:	0084b703          	ld	a4,8(s1)
    3614:	01840793          	addi	a5,s0,24
    3618:	00848493          	addi	s1,s1,8
    361c:	00f73423          	sd	a5,8(a4)
    3620:	00e43c23          	sd	a4,24(s0)
    3624:	00f4b023          	sd	a5,0(s1)
    3628:	02943023          	sd	s1,32(s0)
    362c:	a51fc0ef          	jal	ra,0x7c
    3630:	02813083          	ld	ra,40(sp)
    3634:	00040513          	mv	a0,s0
    3638:	02013403          	ld	s0,32(sp)
    363c:	01813483          	ld	s1,24(sp)
    3640:	01013903          	ld	s2,16(sp)
    3644:	00813983          	ld	s3,8(sp)
    3648:	03010113          	addi	sp,sp,48
    364c:	00008067          	ret
    3650:	ff010113          	addi	sp,sp,-16
    3654:	00813023          	sd	s0,0(sp)
    3658:	00113423          	sd	ra,8(sp)
    365c:	00050413          	mv	s0,a0
    3660:	00051e63          	bnez	a0,0x367c
    3664:	1d600613          	li	a2,470
    3668:	0000a597          	auipc	a1,0xa
    366c:	59858593          	addi	a1,a1,1432 # 0xdc00
    3670:	0000a517          	auipc	a0,0xa
    3674:	50850513          	addi	a0,a0,1288 # 0xdb78
    3678:	04c010ef          	jal	ra,0x46c4
    367c:	01440783          	lb	a5,20(s0)
    3680:	0007de63          	bgez	a5,0x369c
    3684:	1d700613          	li	a2,471
    3688:	0000a597          	auipc	a1,0xa
    368c:	57858593          	addi	a1,a1,1400 # 0xdc00
    3690:	0000a517          	auipc	a0,0xa
    3694:	50050513          	addi	a0,a0,1280 # 0xdb90
    3698:	02c010ef          	jal	ra,0x46c4
    369c:	00016797          	auipc	a5,0x16
    36a0:	c247b783          	ld	a5,-988(a5) # 0x192c0
    36a4:	00078663          	beqz	a5,0x36b0
    36a8:	00040513          	mv	a0,s0
    36ac:	000780e7          	jalr	a5
    36b0:	00040a23          	sb	zero,20(s0)
    36b4:	9c1fc0ef          	jal	ra,0x74
    36b8:	01843683          	ld	a3,24(s0)
    36bc:	02043703          	ld	a4,32(s0)
    36c0:	01840793          	addi	a5,s0,24
    36c4:	00e6b423          	sd	a4,8(a3)
    36c8:	00d73023          	sd	a3,0(a4)
    36cc:	02f43023          	sd	a5,32(s0)
    36d0:	00f43c23          	sd	a5,24(s0)
    36d4:	9a9fc0ef          	jal	ra,0x7c
    36d8:	00040513          	mv	a0,s0
    36dc:	00013403          	ld	s0,0(sp)
    36e0:	00813083          	ld	ra,8(sp)
    36e4:	01010113          	addi	sp,sp,16
    36e8:	875fd06f          	j	0xf5c
    36ec:	ff010113          	addi	sp,sp,-16
    36f0:	00813023          	sd	s0,0(sp)
    36f4:	00113423          	sd	ra,8(sp)
    36f8:	00050413          	mv	s0,a0
    36fc:	00051e63          	bnez	a0,0x3718
    3700:	1f800613          	li	a2,504
    3704:	0000a597          	auipc	a1,0xa
    3708:	51458593          	addi	a1,a1,1300 # 0xdc18
    370c:	0000a517          	auipc	a0,0xa
    3710:	46c50513          	addi	a0,a0,1132 # 0xdb78
    3714:	7b1000ef          	jal	ra,0x46c4
    3718:	01440503          	lb	a0,20(s0)
    371c:	00813083          	ld	ra,8(sp)
    3720:	00013403          	ld	s0,0(sp)
    3724:	01f5551b          	srliw	a0,a0,0x1f
    3728:	01010113          	addi	sp,sp,16
    372c:	00008067          	ret
    3730:	ff010113          	addi	sp,sp,-16
    3734:	00813023          	sd	s0,0(sp)
    3738:	00113423          	sd	ra,8(sp)
    373c:	00050413          	mv	s0,a0
    3740:	00051e63          	bnez	a0,0x375c
    3744:	20b00613          	li	a2,523
    3748:	0000a597          	auipc	a1,0xa
    374c:	4f058593          	addi	a1,a1,1264 # 0xdc38
    3750:	0000a517          	auipc	a0,0xa
    3754:	42850513          	addi	a0,a0,1064 # 0xdb78
    3758:	76d000ef          	jal	ra,0x46c4
    375c:	01444503          	lbu	a0,20(s0)
    3760:	00813083          	ld	ra,8(sp)
    3764:	00013403          	ld	s0,0(sp)
    3768:	07f57513          	andi	a0,a0,127
    376c:	01010113          	addi	sp,sp,16
    3770:	00008067          	ret
    3774:	fd010113          	addi	sp,sp,-48
    3778:	01213823          	sd	s2,16(sp)
    377c:	00050913          	mv	s2,a0
    3780:	00058513          	mv	a0,a1
    3784:	02113423          	sd	ra,40(sp)
    3788:	02813023          	sd	s0,32(sp)
    378c:	00913c23          	sd	s1,24(sp)
    3790:	01313423          	sd	s3,8(sp)
    3794:	be1ff0ef          	jal	ra,0x3374
    3798:	06090263          	beqz	s2,0x37fc
    379c:	00050413          	mv	s0,a0
    37a0:	08050063          	beqz	a0,0x3820
    37a4:	8d1fc0ef          	jal	ra,0x74
    37a8:	00050493          	mv	s1,a0
    37ac:	cf8fe0ef          	jal	ra,0x1ca4
    37b0:	02050863          	beqz	a0,0x37e0
    37b4:	0000a597          	auipc	a1,0xa
    37b8:	49c58593          	addi	a1,a1,1180 # 0xdc50
    37bc:	0000a517          	auipc	a0,0xa
    37c0:	b0c50513          	addi	a0,a0,-1268 # 0xd2c8
    37c4:	575000ef          	jal	ra,0x4538
    37c8:	22800613          	li	a2,552
    37cc:	0000a597          	auipc	a1,0xa
    37d0:	48458593          	addi	a1,a1,1156 # 0xdc50
    37d4:	0000a517          	auipc	a0,0xa
    37d8:	b1c50513          	addi	a0,a0,-1252 # 0xd2f0
    37dc:	6e9000ef          	jal	ra,0x46c4
    37e0:	00048513          	mv	a0,s1
    37e4:	899fc0ef          	jal	ra,0x7c
    37e8:	b20ff0ef          	jal	ra,0x2b08
    37ec:	00843483          	ld	s1,8(s0)
    37f0:	00840993          	addi	s3,s0,8
    37f4:	01349863          	bne	s1,s3,0x3804
    37f8:	b3cff0ef          	jal	ra,0x2b34
    37fc:	00000413          	li	s0,0
    3800:	0200006f          	j	0x3820
    3804:	fe848413          	addi	s0,s1,-24
    3808:	01400613          	li	a2,20
    380c:	00090593          	mv	a1,s2
    3810:	00040513          	mv	a0,s0
    3814:	5b8000ef          	jal	ra,0x3dcc
    3818:	02051463          	bnez	a0,0x3840
    381c:	b18ff0ef          	jal	ra,0x2b34
    3820:	02813083          	ld	ra,40(sp)
    3824:	00040513          	mv	a0,s0
    3828:	02013403          	ld	s0,32(sp)
    382c:	01813483          	ld	s1,24(sp)
    3830:	01013903          	ld	s2,16(sp)
    3834:	00813983          	ld	s3,8(sp)
    3838:	03010113          	addi	sp,sp,48
    383c:	00008067          	ret
    3840:	0004b483          	ld	s1,0(s1)
    3844:	fb1ff06f          	j	0x37f4
    3848:	f7010113          	addi	sp,sp,-144
    384c:	08813023          	sd	s0,128(sp)
    3850:	06913c23          	sd	s1,120(sp)
    3854:	07313423          	sd	s3,104(sp)
    3858:	05513c23          	sd	s5,88(sp)
    385c:	05713423          	sd	s7,72(sp)
    3860:	05813023          	sd	s8,64(sp)
    3864:	03b13423          	sd	s11,40(sp)
    3868:	00078c13          	mv	s8,a5
    386c:	08113423          	sd	ra,136(sp)
    3870:	07213823          	sd	s2,112(sp)
    3874:	07413023          	sd	s4,96(sp)
    3878:	05613823          	sd	s6,80(sp)
    387c:	03913c23          	sd	s9,56(sp)
    3880:	03a13823          	sd	s10,48(sp)
    3884:	04087793          	andi	a5,a6,64
    3888:	00070b93          	mv	s7,a4
    388c:	00050413          	mv	s0,a0
    3890:	00058a93          	mv	s5,a1
    3894:	00060493          	mv	s1,a2
    3898:	00068d93          	mv	s11,a3
    389c:	00080993          	mv	s3,a6
    38a0:	0000a717          	auipc	a4,0xa
    38a4:	60870713          	addi	a4,a4,1544 # 0xdea8
    38a8:	00078663          	beqz	a5,0x38b4
    38ac:	0000a717          	auipc	a4,0xa
    38b0:	5e470713          	addi	a4,a4,1508 # 0xde90
    38b4:	0109f793          	andi	a5,s3,16
    38b8:	0007881b          	sext.w	a6,a5
    38bc:	08078063          	beqz	a5,0x393c
    38c0:	ffe9f993          	andi	s3,s3,-2
    38c4:	02000c93          	li	s9,32
    38c8:	0029f793          	andi	a5,s3,2
    38cc:	12078863          	beqz	a5,0x39fc
    38d0:	0804d063          	bgez	s1,0x3950
    38d4:	409004b3          	neg	s1,s1
    38d8:	02d00a13          	li	s4,45
    38dc:	01010d13          	addi	s10,sp,16
    38e0:	00000913          	li	s2,0
    38e4:	00a00693          	li	a3,10
    38e8:	10dd9e63          	bne	s11,a3,0x3a04
    38ec:	00a00593          	li	a1,10
    38f0:	00048513          	mv	a0,s1
    38f4:	00e13423          	sd	a4,8(sp)
    38f8:	01013023          	sd	a6,0(sp)
    38fc:	95dfc0ef          	jal	ra,0x258
    3900:	00050b1b          	sext.w	s6,a0
    3904:	00a00593          	li	a1,10
    3908:	00048513          	mv	a0,s1
    390c:	905fc0ef          	jal	ra,0x210
    3910:	00013803          	ld	a6,0(sp)
    3914:	00813703          	ld	a4,8(sp)
    3918:	00050493          	mv	s1,a0
    391c:	00a00693          	li	a3,10
    3920:	01670b33          	add	s6,a4,s6
    3924:	000b4783          	lbu	a5,0(s6)
    3928:	0019091b          	addiw	s2,s2,1
    392c:	001d0d13          	addi	s10,s10,1
    3930:	fefd0fa3          	sb	a5,-1(s10)
    3934:	fa049ae3          	bnez	s1,0x38e8
    3938:	0400006f          	j	0x3978
    393c:	0019f793          	andi	a5,s3,1
    3940:	02000c93          	li	s9,32
    3944:	f80782e3          	beqz	a5,0x38c8
    3948:	03000c93          	li	s9,48
    394c:	f7dff06f          	j	0x38c8
    3950:	0049f793          	andi	a5,s3,4
    3954:	02b00a13          	li	s4,43
    3958:	00079863          	bnez	a5,0x3968
    395c:	0089fa13          	andi	s4,s3,8
    3960:	01403a33          	snez	s4,s4
    3964:	005a1a13          	slli	s4,s4,0x5
    3968:	f6049ae3          	bnez	s1,0x38dc
    396c:	03000793          	li	a5,48
    3970:	00f10823          	sb	a5,16(sp)
    3974:	00100913          	li	s2,1
    3978:	00090713          	mv	a4,s2
    397c:	01895463          	bge	s2,s8,0x3984
    3980:	000c0713          	mv	a4,s8
    3984:	0119f993          	andi	s3,s3,17
    3988:	0007079b          	sext.w	a5,a4
    398c:	40eb86bb          	subw	a3,s7,a4
    3990:	04099063          	bnez	s3,0x39d0
    3994:	000a0663          	beqz	s4,0x39a0
    3998:	00d05463          	blez	a3,0x39a0
    399c:	fff6869b          	addiw	a3,a3,-1
    39a0:	00040713          	mv	a4,s0
    39a4:	008685bb          	addw	a1,a3,s0
    39a8:	02000513          	li	a0,32
    39ac:	40e5863b          	subw	a2,a1,a4
    39b0:	06c04063          	bgtz	a2,0x3a10
    39b4:	00068713          	mv	a4,a3
    39b8:	0006d463          	bgez	a3,0x39c0
    39bc:	00000713          	li	a4,0
    39c0:	0007061b          	sext.w	a2,a4
    39c4:	fff6869b          	addiw	a3,a3,-1
    39c8:	00c40433          	add	s0,s0,a2
    39cc:	40e686bb          	subw	a3,a3,a4
    39d0:	000a0a63          	beqz	s4,0x39e4
    39d4:	01547463          	bgeu	s0,s5,0x39dc
    39d8:	01440023          	sb	s4,0(s0)
    39dc:	fff6869b          	addiw	a3,a3,-1
    39e0:	00140413          	addi	s0,s0,1
    39e4:	06080863          	beqz	a6,0x3a54
    39e8:	00040713          	mv	a4,s0
    39ec:	0007851b          	sext.w	a0,a5
    39f0:	00f405bb          	addw	a1,s0,a5
    39f4:	03000813          	li	a6,48
    39f8:	0740006f          	j	0x3a6c
    39fc:	00000a13          	li	s4,0
    3a00:	f69ff06f          	j	0x3968
    3a04:	00f4fb13          	andi	s6,s1,15
    3a08:	0044d493          	srli	s1,s1,0x4
    3a0c:	f15ff06f          	j	0x3920
    3a10:	01577463          	bgeu	a4,s5,0x3a18
    3a14:	00a70023          	sb	a0,0(a4)
    3a18:	00170713          	addi	a4,a4,1
    3a1c:	f91ff06f          	j	0x39ac
    3a20:	01577463          	bgeu	a4,s5,0x3a28
    3a24:	01970023          	sb	s9,0(a4)
    3a28:	00170713          	addi	a4,a4,1
    3a2c:	40e5863b          	subw	a2,a1,a4
    3a30:	fec048e3          	bgtz	a2,0x3a20
    3a34:	00068713          	mv	a4,a3
    3a38:	0006d463          	bgez	a3,0x3a40
    3a3c:	00000713          	li	a4,0
    3a40:	0007061b          	sext.w	a2,a4
    3a44:	fff6869b          	addiw	a3,a3,-1
    3a48:	00c40433          	add	s0,s0,a2
    3a4c:	40e686bb          	subw	a3,a3,a4
    3a50:	f99ff06f          	j	0x39e8
    3a54:	00040713          	mv	a4,s0
    3a58:	00d405bb          	addw	a1,s0,a3
    3a5c:	fd1ff06f          	j	0x3a2c
    3a60:	01577463          	bgeu	a4,s5,0x3a68
    3a64:	01070023          	sb	a6,0(a4)
    3a68:	00170713          	addi	a4,a4,1
    3a6c:	40e5863b          	subw	a2,a1,a4
    3a70:	fec948e3          	blt	s2,a2,0x3a60
    3a74:	00000713          	li	a4,0
    3a78:	0127c863          	blt	a5,s2,0x3a88
    3a7c:	4125053b          	subw	a0,a0,s2
    3a80:	02051713          	slli	a4,a0,0x20
    3a84:	02075713          	srli	a4,a4,0x20
    3a88:	00e40433          	add	s0,s0,a4
    3a8c:	0009079b          	sext.w	a5,s2
    3a90:	00f05463          	blez	a5,0x3a98
    3a94:	000c1a63          	bnez	s8,0x3aa8
    3a98:	00040793          	mv	a5,s0
    3a9c:	0086863b          	addw	a2,a3,s0
    3aa0:	02000593          	li	a1,32
    3aa4:	0300006f          	j	0x3ad4
    3aa8:	01547a63          	bgeu	s0,s5,0x3abc
    3aac:	01010793          	addi	a5,sp,16
    3ab0:	012787b3          	add	a5,a5,s2
    3ab4:	fff7c783          	lbu	a5,-1(a5)
    3ab8:	00f40023          	sb	a5,0(s0)
    3abc:	00140413          	addi	s0,s0,1
    3ac0:	fff90913          	addi	s2,s2,-1
    3ac4:	fc9ff06f          	j	0x3a8c
    3ac8:	0157f463          	bgeu	a5,s5,0x3ad0
    3acc:	00b78023          	sb	a1,0(a5)
    3ad0:	00178793          	addi	a5,a5,1
    3ad4:	40f6073b          	subw	a4,a2,a5
    3ad8:	fee048e3          	bgtz	a4,0x3ac8
    3adc:	0006851b          	sext.w	a0,a3
    3ae0:	0006d463          	bgez	a3,0x3ae8
    3ae4:	00000513          	li	a0,0
    3ae8:	08813083          	ld	ra,136(sp)
    3aec:	00a40533          	add	a0,s0,a0
    3af0:	08013403          	ld	s0,128(sp)
    3af4:	07813483          	ld	s1,120(sp)
    3af8:	07013903          	ld	s2,112(sp)
    3afc:	06813983          	ld	s3,104(sp)
    3b00:	06013a03          	ld	s4,96(sp)
    3b04:	05813a83          	ld	s5,88(sp)
    3b08:	05013b03          	ld	s6,80(sp)
    3b0c:	04813b83          	ld	s7,72(sp)
    3b10:	04013c03          	ld	s8,64(sp)
    3b14:	03813c83          	ld	s9,56(sp)
    3b18:	03013d03          	ld	s10,48(sp)
    3b1c:	02813d83          	ld	s11,40(sp)
    3b20:	09010113          	addi	sp,sp,144
    3b24:	00008067          	ret
    3b28:	ff010113          	addi	sp,sp,-16
    3b2c:	00813023          	sd	s0,0(sp)
    3b30:	00113423          	sd	ra,8(sp)
    3b34:	00050413          	mv	s0,a0
    3b38:	96cfe0ef          	jal	ra,0x1ca4
    3b3c:	00050e63          	beqz	a0,0x3b58
    3b40:	00015797          	auipc	a5,0x15
    3b44:	7a87a023          	sw	s0,1952(a5) # 0x192e0
    3b48:	00813083          	ld	ra,8(sp)
    3b4c:	00013403          	ld	s0,0(sp)
    3b50:	01010113          	addi	sp,sp,16
    3b54:	00008067          	ret
    3b58:	cfcfe0ef          	jal	ra,0x2054
    3b5c:	fe0502e3          	beqz	a0,0x3b40
    3b60:	06853023          	sd	s0,96(a0)
    3b64:	fe5ff06f          	j	0x3b48
    3b68:	00700713          	li	a4,7
    3b6c:	00050793          	mv	a5,a0
    3b70:	00c77663          	bgeu	a4,a2,0x3b7c
    3b74:	00757713          	andi	a4,a0,7
    3b78:	00070863          	beqz	a4,0x3b88
    3b7c:	00c78633          	add	a2,a5,a2
    3b80:	08c79463          	bne	a5,a2,0x3c08
    3b84:	00008067          	ret
    3b88:	00800793          	li	a5,8
    3b8c:	0ff5f693          	andi	a3,a1,255
    3b90:	00871713          	slli	a4,a4,0x8
    3b94:	fff7879b          	addiw	a5,a5,-1
    3b98:	00e6e733          	or	a4,a3,a4
    3b9c:	fe079ae3          	bnez	a5,0x3b90
    3ba0:	00050793          	mv	a5,a0
    3ba4:	00c508b3          	add	a7,a0,a2
    3ba8:	01f00693          	li	a3,31
    3bac:	40f88833          	sub	a6,a7,a5
    3bb0:	0306ea63          	bltu	a3,a6,0x3be4
    3bb4:	01f67693          	andi	a3,a2,31
    3bb8:	fe067613          	andi	a2,a2,-32
    3bbc:	00c507b3          	add	a5,a0,a2
    3bc0:	00078613          	mv	a2,a5
    3bc4:	00d78333          	add	t1,a5,a3
    3bc8:	00700813          	li	a6,7
    3bcc:	40c308b3          	sub	a7,t1,a2
    3bd0:	03186663          	bltu	a6,a7,0x3bfc
    3bd4:	0076f613          	andi	a2,a3,7
    3bd8:	0186f693          	andi	a3,a3,24
    3bdc:	00d787b3          	add	a5,a5,a3
    3be0:	f9dff06f          	j	0x3b7c
    3be4:	00e7b023          	sd	a4,0(a5)
    3be8:	00e7b423          	sd	a4,8(a5)
    3bec:	00e7b823          	sd	a4,16(a5)
    3bf0:	00e7bc23          	sd	a4,24(a5)
    3bf4:	02078793          	addi	a5,a5,32
    3bf8:	fb5ff06f          	j	0x3bac
    3bfc:	00860613          	addi	a2,a2,8
    3c00:	fee63c23          	sd	a4,-8(a2)
    3c04:	fc9ff06f          	j	0x3bcc
    3c08:	00178793          	addi	a5,a5,1
    3c0c:	feb78fa3          	sb	a1,-1(a5)
    3c10:	f71ff06f          	j	0x3b80
    3c14:	0006079b          	sext.w	a5,a2
    3c18:	01f00693          	li	a3,31
    3c1c:	00050713          	mv	a4,a0
    3c20:	00f6fa63          	bgeu	a3,a5,0x3c34
    3c24:	00a5e733          	or	a4,a1,a0
    3c28:	00777713          	andi	a4,a4,7
    3c2c:	08070463          	beqz	a4,0x3cb4
    3c30:	00050713          	mv	a4,a0
    3c34:	00000693          	li	a3,0
    3c38:	0006861b          	sext.w	a2,a3
    3c3c:	0af61263          	bne	a2,a5,0x3ce0
    3c40:	00008067          	ret
    3c44:	0006b303          	ld	t1,0(a3)
    3c48:	02068693          	addi	a3,a3,32
    3c4c:	02080813          	addi	a6,a6,32
    3c50:	fe683023          	sd	t1,-32(a6)
    3c54:	fe86b303          	ld	t1,-24(a3)
    3c58:	fe683423          	sd	t1,-24(a6)
    3c5c:	ff06b303          	ld	t1,-16(a3)
    3c60:	fe683823          	sd	t1,-16(a6)
    3c64:	ff86b303          	ld	t1,-8(a3)
    3c68:	fe683c23          	sd	t1,-8(a6)
    3c6c:	40de033b          	subw	t1,t3,a3
    3c70:	fc68eae3          	bltu	a7,t1,0x3c44
    3c74:	0057d69b          	srliw	a3,a5,0x5
    3c78:	fe07f793          	andi	a5,a5,-32
    3c7c:	00569693          	slli	a3,a3,0x5
    3c80:	40f607bb          	subw	a5,a2,a5
    3c84:	00d50833          	add	a6,a0,a3
    3c88:	00d585b3          	add	a1,a1,a3
    3c8c:	0007889b          	sext.w	a7,a5
    3c90:	00700693          	li	a3,7
    3c94:	40e8863b          	subw	a2,a7,a4
    3c98:	02c6c863          	blt	a3,a2,0x3cc8
    3c9c:	0037d69b          	srliw	a3,a5,0x3
    3ca0:	00369693          	slli	a3,a3,0x3
    3ca4:	00d80733          	add	a4,a6,a3
    3ca8:	00d585b3          	add	a1,a1,a3
    3cac:	0077f793          	andi	a5,a5,7
    3cb0:	f85ff06f          	j	0x3c34
    3cb4:	00058693          	mv	a3,a1
    3cb8:	00050813          	mv	a6,a0
    3cbc:	00f58e3b          	addw	t3,a1,a5
    3cc0:	01f00893          	li	a7,31
    3cc4:	fa9ff06f          	j	0x3c6c
    3cc8:	00e58633          	add	a2,a1,a4
    3ccc:	00063303          	ld	t1,0(a2)
    3cd0:	00e80633          	add	a2,a6,a4
    3cd4:	00870713          	addi	a4,a4,8
    3cd8:	00663023          	sd	t1,0(a2)
    3cdc:	fb9ff06f          	j	0x3c94
    3ce0:	00d58633          	add	a2,a1,a3
    3ce4:	00064803          	lbu	a6,0(a2)
    3ce8:	00d70633          	add	a2,a4,a3
    3cec:	00168693          	addi	a3,a3,1
    3cf0:	01060023          	sb	a6,0(a2)
    3cf4:	f45ff06f          	j	0x3c38
    3cf8:	04a5fa63          	bgeu	a1,a0,0x3d4c
    3cfc:	00c586b3          	add	a3,a1,a2
    3d00:	04d57663          	bgeu	a0,a3,0x3d4c
    3d04:	fff64593          	not	a1,a2
    3d08:	00000793          	li	a5,0
    3d0c:	fff78793          	addi	a5,a5,-1
    3d10:	00f59463          	bne	a1,a5,0x3d18
    3d14:	00008067          	ret
    3d18:	00f68733          	add	a4,a3,a5
    3d1c:	00074803          	lbu	a6,0(a4)
    3d20:	00f60733          	add	a4,a2,a5
    3d24:	00e50733          	add	a4,a0,a4
    3d28:	01070023          	sb	a6,0(a4)
    3d2c:	fe1ff06f          	j	0x3d0c
    3d30:	00f58733          	add	a4,a1,a5
    3d34:	00074683          	lbu	a3,0(a4)
    3d38:	00f50733          	add	a4,a0,a5
    3d3c:	00178793          	addi	a5,a5,1
    3d40:	00d70023          	sb	a3,0(a4)
    3d44:	fef616e3          	bne	a2,a5,0x3d30
    3d48:	00008067          	ret
    3d4c:	00000793          	li	a5,0
    3d50:	ff5ff06f          	j	0x3d44
    3d54:	00050693          	mv	a3,a0
    3d58:	00000713          	li	a4,0
    3d5c:	00e61663          	bne	a2,a4,0x3d68
    3d60:	00000513          	li	a0,0
    3d64:	0200006f          	j	0x3d84
    3d68:	00e687b3          	add	a5,a3,a4
    3d6c:	00e58533          	add	a0,a1,a4
    3d70:	0007c783          	lbu	a5,0(a5)
    3d74:	00054503          	lbu	a0,0(a0)
    3d78:	00170713          	addi	a4,a4,1
    3d7c:	40a7853b          	subw	a0,a5,a0
    3d80:	fc050ee3          	beqz	a0,0x3d5c
    3d84:	00008067          	ret
    3d88:	04060063          	beqz	a2,0x3dc8
    3d8c:	00050793          	mv	a5,a0
    3d90:	0005c683          	lbu	a3,0(a1)
    3d94:	00158593          	addi	a1,a1,1
    3d98:	00178793          	addi	a5,a5,1
    3d9c:	fed78fa3          	sb	a3,-1(a5)
    3da0:	00060713          	mv	a4,a2
    3da4:	fff60613          	addi	a2,a2,-1
    3da8:	00069e63          	bnez	a3,0x3dc4
    3dac:	00e78733          	add	a4,a5,a4
    3db0:	00178793          	addi	a5,a5,1
    3db4:	00e79463          	bne	a5,a4,0x3dbc
    3db8:	00008067          	ret
    3dbc:	fe078fa3          	sb	zero,-1(a5)
    3dc0:	ff1ff06f          	j	0x3db0
    3dc4:	fc0616e3          	bnez	a2,0x3d90
    3dc8:	00008067          	ret
    3dcc:	00050693          	mv	a3,a0
    3dd0:	00000713          	li	a4,0
    3dd4:	00e61663          	bne	a2,a4,0x3de0
    3dd8:	00000513          	li	a0,0
    3ddc:	02c0006f          	j	0x3e08
    3de0:	00e687b3          	add	a5,a3,a4
    3de4:	0007c803          	lbu	a6,0(a5)
    3de8:	00e587b3          	add	a5,a1,a4
    3dec:	0007c783          	lbu	a5,0(a5)
    3df0:	40f807bb          	subw	a5,a6,a5
    3df4:	0187951b          	slliw	a0,a5,0x18
    3df8:	4185551b          	sraiw	a0,a0,0x18
    3dfc:	00051663          	bnez	a0,0x3e08
    3e00:	00170713          	addi	a4,a4,1
    3e04:	fc0818e3          	bnez	a6,0x3dd4
    3e08:	00008067          	ret
    3e0c:	00054783          	lbu	a5,0(a0)
    3e10:	0005c703          	lbu	a4,0(a1)
    3e14:	00078463          	beqz	a5,0x3e1c
    3e18:	00e78663          	beq	a5,a4,0x3e24
    3e1c:	40e7853b          	subw	a0,a5,a4
    3e20:	00008067          	ret
    3e24:	00150513          	addi	a0,a0,1
    3e28:	00158593          	addi	a1,a1,1
    3e2c:	fe1ff06f          	j	0x3e0c
    3e30:	00050793          	mv	a5,a0
    3e34:	0007c703          	lbu	a4,0(a5)
    3e38:	00071663          	bnez	a4,0x3e44
    3e3c:	40a78533          	sub	a0,a5,a0
    3e40:	00008067          	ret
    3e44:	00178793          	addi	a5,a5,1
    3e48:	fedff06f          	j	0x3e34
    3e4c:	fd010113          	addi	sp,sp,-48
    3e50:	02813023          	sd	s0,32(sp)
    3e54:	00050413          	mv	s0,a0
    3e58:	00058513          	mv	a0,a1
    3e5c:	00913c23          	sd	s1,24(sp)
    3e60:	01213823          	sd	s2,16(sp)
    3e64:	02113423          	sd	ra,40(sp)
    3e68:	01313423          	sd	s3,8(sp)
    3e6c:	00058913          	mv	s2,a1
    3e70:	fc1ff0ef          	jal	ra,0x3e30
    3e74:	0005049b          	sext.w	s1,a0
    3e78:	00048e63          	beqz	s1,0x3e94
    3e7c:	00040513          	mv	a0,s0
    3e80:	fb1ff0ef          	jal	ra,0x3e30
    3e84:	008509bb          	addw	s3,a0,s0
    3e88:	408987bb          	subw	a5,s3,s0
    3e8c:	0297d463          	bge	a5,s1,0x3eb4
    3e90:	00000413          	li	s0,0
    3e94:	02813083          	ld	ra,40(sp)
    3e98:	00040513          	mv	a0,s0
    3e9c:	02013403          	ld	s0,32(sp)
    3ea0:	01813483          	ld	s1,24(sp)
    3ea4:	01013903          	ld	s2,16(sp)
    3ea8:	00813983          	ld	s3,8(sp)
    3eac:	03010113          	addi	sp,sp,48
    3eb0:	00008067          	ret
    3eb4:	00048613          	mv	a2,s1
    3eb8:	00090593          	mv	a1,s2
    3ebc:	00040513          	mv	a0,s0
    3ec0:	e95ff0ef          	jal	ra,0x3d54
    3ec4:	fc0508e3          	beqz	a0,0x3e94
    3ec8:	00140413          	addi	s0,s0,1
    3ecc:	fbdff06f          	j	0x3e88
    3ed0:	fe010113          	addi	sp,sp,-32
    3ed4:	00113c23          	sd	ra,24(sp)
    3ed8:	00813823          	sd	s0,16(sp)
    3edc:	00a13423          	sd	a0,8(sp)
    3ee0:	f51ff0ef          	jal	ra,0x3e30
    3ee4:	00150613          	addi	a2,a0,1
    3ee8:	00060513          	mv	a0,a2
    3eec:	00c13023          	sd	a2,0(sp)
    3ef0:	d1dfc0ef          	jal	ra,0xc0c
    3ef4:	00050413          	mv	s0,a0
    3ef8:	00050863          	beqz	a0,0x3f08
    3efc:	00013603          	ld	a2,0(sp)
    3f00:	00813583          	ld	a1,8(sp)
    3f04:	d11ff0ef          	jal	ra,0x3c14
    3f08:	01813083          	ld	ra,24(sp)
    3f0c:	00040513          	mv	a0,s0
    3f10:	01013403          	ld	s0,16(sp)
    3f14:	02010113          	addi	sp,sp,32
    3f18:	00008067          	ret
    3f1c:	fa010113          	addi	sp,sp,-96
    3f20:	04813823          	sd	s0,80(sp)
    3f24:	03613023          	sd	s6,32(sp)
    3f28:	01713c23          	sd	s7,24(sp)
    3f2c:	01813823          	sd	s8,16(sp)
    3f30:	04113c23          	sd	ra,88(sp)
    3f34:	04913423          	sd	s1,72(sp)
    3f38:	05213023          	sd	s2,64(sp)
    3f3c:	03313c23          	sd	s3,56(sp)
    3f40:	03413823          	sd	s4,48(sp)
    3f44:	03513423          	sd	s5,40(sp)
    3f48:	01913423          	sd	s9,8(sp)
    3f4c:	00b50b33          	add	s6,a0,a1
    3f50:	00050b93          	mv	s7,a0
    3f54:	00068413          	mv	s0,a3
    3f58:	00058c13          	mv	s8,a1
    3f5c:	00ab7663          	bgeu	s6,a0,0x3f68
    3f60:	fff54c13          	not	s8,a0
    3f64:	fff00b13          	li	s6,-1
    3f68:	000104b7          	lui	s1,0x10
    3f6c:	000b8513          	mv	a0,s7
    3f70:	02b00913          	li	s2,43
    3f74:	02000993          	li	s3,32
    3f78:	02300a13          	li	s4,35
    3f7c:	fff48493          	addi	s1,s1,-1 # 0xffff
    3f80:	0240006f          	j	0x3fa4
    3f84:	02500713          	li	a4,37
    3f88:	06e78463          	beq	a5,a4,0x3ff0
    3f8c:	01657463          	bgeu	a0,s6,0x3f94
    3f90:	00f50023          	sb	a5,0(a0)
    3f94:	00150713          	addi	a4,a0,1
    3f98:	00060a93          	mv	s5,a2
    3f9c:	001a8613          	addi	a2,s5,1
    3fa0:	00070513          	mv	a0,a4
    3fa4:	00064783          	lbu	a5,0(a2)
    3fa8:	fc079ee3          	bnez	a5,0x3f84
    3fac:	000c0663          	beqz	s8,0x3fb8
    3fb0:	49657263          	bgeu	a0,s6,0x4434
    3fb4:	00050023          	sb	zero,0(a0)
    3fb8:	05813083          	ld	ra,88(sp)
    3fbc:	05013403          	ld	s0,80(sp)
    3fc0:	04813483          	ld	s1,72(sp)
    3fc4:	04013903          	ld	s2,64(sp)
    3fc8:	03813983          	ld	s3,56(sp)
    3fcc:	03013a03          	ld	s4,48(sp)
    3fd0:	02813a83          	ld	s5,40(sp)
    3fd4:	02013b03          	ld	s6,32(sp)
    3fd8:	01013c03          	ld	s8,16(sp)
    3fdc:	00813c83          	ld	s9,8(sp)
    3fe0:	4175053b          	subw	a0,a0,s7
    3fe4:	01813b83          	ld	s7,24(sp)
    3fe8:	06010113          	addi	sp,sp,96
    3fec:	00008067          	ret
    3ff0:	00000813          	li	a6,0
    3ff4:	02d00713          	li	a4,45
    3ff8:	03000693          	li	a3,48
    3ffc:	0100006f          	j	0x400c
    4000:	03279063          	bne	a5,s2,0x4020
    4004:	00486813          	ori	a6,a6,4
    4008:	000a8613          	mv	a2,s5
    400c:	00164783          	lbu	a5,1(a2)
    4010:	00160a93          	addi	s5,a2,1
    4014:	fee796e3          	bne	a5,a4,0x4000
    4018:	01086813          	ori	a6,a6,16
    401c:	fedff06f          	j	0x4008
    4020:	01379663          	bne	a5,s3,0x402c
    4024:	00886813          	ori	a6,a6,8
    4028:	fe1ff06f          	j	0x4008
    402c:	01479663          	bne	a5,s4,0x4038
    4030:	02086813          	ori	a6,a6,32
    4034:	fd5ff06f          	j	0x4008
    4038:	00d79663          	bne	a5,a3,0x4044
    403c:	00186813          	ori	a6,a6,1
    4040:	fc9ff06f          	j	0x4008
    4044:	fd07871b          	addiw	a4,a5,-48
    4048:	00900693          	li	a3,9
    404c:	06e6e263          	bltu	a3,a4,0x40b0
    4050:	00000713          	li	a4,0
    4054:	00900613          	li	a2,9
    4058:	01c0006f          	j	0x4074
    405c:	0027179b          	slliw	a5,a4,0x2
    4060:	00e7873b          	addw	a4,a5,a4
    4064:	0017171b          	slliw	a4,a4,0x1
    4068:	00d7073b          	addw	a4,a4,a3
    406c:	001a8a93          	addi	s5,s5,1
    4070:	fd07071b          	addiw	a4,a4,-48
    4074:	000ac683          	lbu	a3,0(s5)
    4078:	fd06879b          	addiw	a5,a3,-48
    407c:	fef670e3          	bgeu	a2,a5,0x405c
    4080:	000ac603          	lbu	a2,0(s5)
    4084:	02e00693          	li	a3,46
    4088:	fff00793          	li	a5,-1
    408c:	08d61063          	bne	a2,a3,0x410c
    4090:	001ac783          	lbu	a5,1(s5)
    4094:	00900613          	li	a2,9
    4098:	001a8693          	addi	a3,s5,1
    409c:	fd07859b          	addiw	a1,a5,-48
    40a0:	0cb66863          	bltu	a2,a1,0x4170
    40a4:	00000613          	li	a2,0
    40a8:	00900893          	li	a7,9
    40ac:	0440006f          	j	0x40f0
    40b0:	02a00693          	li	a3,42
    40b4:	fff00713          	li	a4,-1
    40b8:	fcd794e3          	bne	a5,a3,0x4080
    40bc:	00042703          	lw	a4,0(s0)
    40c0:	00260a93          	addi	s5,a2,2
    40c4:	00840413          	addi	s0,s0,8
    40c8:	fa075ce3          	bgez	a4,0x4080
    40cc:	40e0073b          	negw	a4,a4
    40d0:	01086813          	ori	a6,a6,16
    40d4:	fadff06f          	j	0x4080
    40d8:	0026179b          	slliw	a5,a2,0x2
    40dc:	00c787bb          	addw	a5,a5,a2
    40e0:	0017979b          	slliw	a5,a5,0x1
    40e4:	00b787bb          	addw	a5,a5,a1
    40e8:	00168693          	addi	a3,a3,1
    40ec:	fd07861b          	addiw	a2,a5,-48
    40f0:	0006c583          	lbu	a1,0(a3)
    40f4:	fd05879b          	addiw	a5,a1,-48
    40f8:	fef8f0e3          	bgeu	a7,a5,0x40d8
    40fc:	0006079b          	sext.w	a5,a2
    4100:	00065463          	bgez	a2,0x4108
    4104:	00000793          	li	a5,0
    4108:	00068a93          	mv	s5,a3
    410c:	000ac583          	lbu	a1,0(s5)
    4110:	06800693          	li	a3,104
    4114:	0fb5f613          	andi	a2,a1,251
    4118:	06d61e63          	bne	a2,a3,0x4194
    411c:	001a8a93          	addi	s5,s5,1
    4120:	000ac683          	lbu	a3,0(s5)
    4124:	07800613          	li	a2,120
    4128:	02d66063          	bltu	a2,a3,0x4148
    412c:	06200613          	li	a2,98
    4130:	06d66663          	bltu	a2,a3,0x419c
    4134:	02500613          	li	a2,37
    4138:	28c68463          	beq	a3,a2,0x43c0
    413c:	05800613          	li	a2,88
    4140:	04086813          	ori	a6,a6,64
    4144:	28c68663          	beq	a3,a2,0x43d0
    4148:	01657663          	bgeu	a0,s6,0x4154
    414c:	02500793          	li	a5,37
    4150:	00f50023          	sb	a5,0(a0)
    4154:	000ac783          	lbu	a5,0(s5)
    4158:	00150713          	addi	a4,a0,1
    415c:	2a078e63          	beqz	a5,0x4418
    4160:	01677463          	bgeu	a4,s6,0x4168
    4164:	00f500a3          	sb	a5,1(a0)
    4168:	00250713          	addi	a4,a0,2
    416c:	e31ff06f          	j	0x3f9c
    4170:	02a00613          	li	a2,42
    4174:	00c79a63          	bne	a5,a2,0x4188
    4178:	00042603          	lw	a2,0(s0)
    417c:	002a8693          	addi	a3,s5,2
    4180:	00840413          	addi	s0,s0,8
    4184:	f79ff06f          	j	0x40fc
    4188:	00068a93          	mv	s5,a3
    418c:	00000793          	li	a5,0
    4190:	f7dff06f          	j	0x410c
    4194:	00000593          	li	a1,0
    4198:	f89ff06f          	j	0x4120
    419c:	f9d6869b          	addiw	a3,a3,-99
    41a0:	0ff6f693          	andi	a3,a3,255
    41a4:	01500613          	li	a2,21
    41a8:	fad660e3          	bltu	a2,a3,0x4148
    41ac:	0000a617          	auipc	a2,0xa
    41b0:	abc60613          	addi	a2,a2,-1348 # 0xdc68
    41b4:	00269693          	slli	a3,a3,0x2
    41b8:	00c686b3          	add	a3,a3,a2
    41bc:	0006a683          	lw	a3,0(a3)
    41c0:	00c686b3          	add	a3,a3,a2
    41c4:	00068067          	jr	a3
    41c8:	01087813          	andi	a6,a6,16
    41cc:	04081a63          	bnez	a6,0x4220
    41d0:	00070693          	mv	a3,a4
    41d4:	00050793          	mv	a5,a0
    41d8:	02000613          	li	a2,32
    41dc:	0100006f          	j	0x41ec
    41e0:	0167f463          	bgeu	a5,s6,0x41e8
    41e4:	00c78023          	sb	a2,0(a5)
    41e8:	00178793          	addi	a5,a5,1
    41ec:	fff6869b          	addiw	a3,a3,-1
    41f0:	fed048e3          	bgtz	a3,0x41e0
    41f4:	fff7079b          	addiw	a5,a4,-1
    41f8:	00000693          	li	a3,0
    41fc:	00e05663          	blez	a4,0x4208
    4200:	02079693          	slli	a3,a5,0x20
    4204:	0206d693          	srli	a3,a3,0x20
    4208:	00d50533          	add	a0,a0,a3
    420c:	00070693          	mv	a3,a4
    4210:	00e04463          	bgtz	a4,0x4218
    4214:	00100693          	li	a3,1
    4218:	40d7873b          	subw	a4,a5,a3
    421c:	0017071b          	addiw	a4,a4,1
    4220:	00840613          	addi	a2,s0,8
    4224:	01657663          	bgeu	a0,s6,0x4230
    4228:	00042783          	lw	a5,0(s0)
    422c:	00f50023          	sb	a5,0(a0)
    4230:	00150513          	addi	a0,a0,1
    4234:	00070693          	mv	a3,a4
    4238:	00050793          	mv	a5,a0
    423c:	02000593          	li	a1,32
    4240:	fff6869b          	addiw	a3,a3,-1
    4244:	02d04263          	bgtz	a3,0x4268
    4248:	00000793          	li	a5,0
    424c:	00e05863          	blez	a4,0x425c
    4250:	fff7071b          	addiw	a4,a4,-1
    4254:	02071793          	slli	a5,a4,0x20
    4258:	0207d793          	srli	a5,a5,0x20
    425c:	00f50733          	add	a4,a0,a5
    4260:	00060413          	mv	s0,a2
    4264:	d39ff06f          	j	0x3f9c
    4268:	0167f463          	bgeu	a5,s6,0x4270
    426c:	00b78023          	sb	a1,0(a5)
    4270:	00178793          	addi	a5,a5,1
    4274:	fcdff06f          	j	0x4240
    4278:	00043603          	ld	a2,0(s0)
    427c:	00840893          	addi	a7,s0,8
    4280:	00061663          	bnez	a2,0x428c
    4284:	0000a617          	auipc	a2,0xa
    4288:	9dc60613          	addi	a2,a2,-1572 # 0xdc60
    428c:	00000593          	li	a1,0
    4290:	0005869b          	sext.w	a3,a1
    4294:	00e68a63          	beq	a3,a4,0x42a8
    4298:	00158593          	addi	a1,a1,1
    429c:	00b60333          	add	t1,a2,a1
    42a0:	fff34303          	lbu	t1,-1(t1)
    42a4:	fe0316e3          	bnez	t1,0x4290
    42a8:	00f05a63          	blez	a5,0x42bc
    42ac:	00068593          	mv	a1,a3
    42b0:	00d7d463          	bge	a5,a3,0x42b8
    42b4:	00078593          	mv	a1,a5
    42b8:	0005869b          	sext.w	a3,a1
    42bc:	01087813          	andi	a6,a6,16
    42c0:	04081c63          	bnez	a6,0x4318
    42c4:	00050793          	mv	a5,a0
    42c8:	0007059b          	sext.w	a1,a4
    42cc:	00e5033b          	addw	t1,a0,a4
    42d0:	02000e13          	li	t3,32
    42d4:	0100006f          	j	0x42e4
    42d8:	0167f463          	bgeu	a5,s6,0x42e0
    42dc:	01c78023          	sb	t3,0(a5)
    42e0:	00178793          	addi	a5,a5,1
    42e4:	40f3083b          	subw	a6,t1,a5
    42e8:	ff06c8e3          	blt	a3,a6,0x42d8
    42ec:	40d587bb          	subw	a5,a1,a3
    42f0:	00000593          	li	a1,0
    42f4:	00d74663          	blt	a4,a3,0x4300
    42f8:	02079593          	slli	a1,a5,0x20
    42fc:	0205d593          	srli	a1,a1,0x20
    4300:	00b50533          	add	a0,a0,a1
    4304:	fff7081b          	addiw	a6,a4,-1
    4308:	00000593          	li	a1,0
    430c:	00d74463          	blt	a4,a3,0x4314
    4310:	40f005bb          	negw	a1,a5
    4314:	0105873b          	addw	a4,a1,a6
    4318:	00000793          	li	a5,0
    431c:	0007859b          	sext.w	a1,a5
    4320:	04d5c263          	blt	a1,a3,0x4364
    4324:	00d50533          	add	a0,a0,a3
    4328:	0006859b          	sext.w	a1,a3
    432c:	00050793          	mv	a5,a0
    4330:	0007061b          	sext.w	a2,a4
    4334:	00e5033b          	addw	t1,a0,a4
    4338:	02000e13          	li	t3,32
    433c:	40f3083b          	subw	a6,t1,a5
    4340:	0506c063          	blt	a3,a6,0x4380
    4344:	00000793          	li	a5,0
    4348:	00d74863          	blt	a4,a3,0x4358
    434c:	40b6063b          	subw	a2,a2,a1
    4350:	02061793          	slli	a5,a2,0x20
    4354:	0207d793          	srli	a5,a5,0x20
    4358:	00f50733          	add	a4,a0,a5
    435c:	00088413          	mv	s0,a7
    4360:	c3dff06f          	j	0x3f9c
    4364:	00f505b3          	add	a1,a0,a5
    4368:	0165f863          	bgeu	a1,s6,0x4378
    436c:	00f60833          	add	a6,a2,a5
    4370:	00084803          	lbu	a6,0(a6)
    4374:	01058023          	sb	a6,0(a1)
    4378:	00178793          	addi	a5,a5,1
    437c:	fa1ff06f          	j	0x431c
    4380:	0167f463          	bgeu	a5,s6,0x4388
    4384:	01c78023          	sb	t3,0(a5)
    4388:	00178793          	addi	a5,a5,1
    438c:	fb1ff06f          	j	0x433c
    4390:	fff00693          	li	a3,-1
    4394:	00d71663          	bne	a4,a3,0x43a0
    4398:	00186813          	ori	a6,a6,1
    439c:	01000713          	li	a4,16
    43a0:	00043603          	ld	a2,0(s0)
    43a4:	01000693          	li	a3,16
    43a8:	000b0593          	mv	a1,s6
    43ac:	00840c93          	addi	s9,s0,8
    43b0:	c98ff0ef          	jal	ra,0x3848
    43b4:	00050713          	mv	a4,a0
    43b8:	000c8413          	mv	s0,s9
    43bc:	be1ff06f          	j	0x3f9c
    43c0:	01657463          	bgeu	a0,s6,0x43c8
    43c4:	00d50023          	sb	a3,0(a0)
    43c8:	00150713          	addi	a4,a0,1
    43cc:	bd1ff06f          	j	0x3f9c
    43d0:	01000693          	li	a3,16
    43d4:	06800893          	li	a7,104
    43d8:	00042603          	lw	a2,0(s0)
    43dc:	00840413          	addi	s0,s0,8
    43e0:	01159a63          	bne	a1,a7,0x43f4
    43e4:	00287893          	andi	a7,a6,2
    43e8:	0006059b          	sext.w	a1,a2
    43ec:	02089e63          	bnez	a7,0x4428
    43f0:	0095f633          	and	a2,a1,s1
    43f4:	02061613          	slli	a2,a2,0x20
    43f8:	02065613          	srli	a2,a2,0x20
    43fc:	000b0593          	mv	a1,s6
    4400:	c48ff0ef          	jal	ra,0x3848
    4404:	00050713          	mv	a4,a0
    4408:	b95ff06f          	j	0x3f9c
    440c:	00286813          	ori	a6,a6,2
    4410:	00a00693          	li	a3,10
    4414:	fc1ff06f          	j	0x43d4
    4418:	fffa8a93          	addi	s5,s5,-1
    441c:	b81ff06f          	j	0x3f9c
    4420:	00800693          	li	a3,8
    4424:	fb1ff06f          	j	0x43d4
    4428:	0106161b          	slliw	a2,a2,0x10
    442c:	4106561b          	sraiw	a2,a2,0x10
    4430:	fc5ff06f          	j	0x43f4
    4434:	fe0b0fa3          	sb	zero,-1(s6)
    4438:	b81ff06f          	j	0x3fb8
    443c:	fb010113          	addi	sp,sp,-80
    4440:	02d13423          	sd	a3,40(sp)
    4444:	02810693          	addi	a3,sp,40
    4448:	00113c23          	sd	ra,24(sp)
    444c:	02e13823          	sd	a4,48(sp)
    4450:	02f13c23          	sd	a5,56(sp)
    4454:	05013023          	sd	a6,64(sp)
    4458:	05113423          	sd	a7,72(sp)
    445c:	00d13423          	sd	a3,8(sp)
    4460:	abdff0ef          	jal	ra,0x3f1c
    4464:	01813083          	ld	ra,24(sp)
    4468:	05010113          	addi	sp,sp,80
    446c:	00008067          	ret
    4470:	00060693          	mv	a3,a2
    4474:	00058613          	mv	a2,a1
    4478:	fff00593          	li	a1,-1
    447c:	aa1ff06f          	j	0x3f1c
    4480:	fb010113          	addi	sp,sp,-80
    4484:	02c13023          	sd	a2,32(sp)
    4488:	02010613          	addi	a2,sp,32
    448c:	00113c23          	sd	ra,24(sp)
    4490:	02d13423          	sd	a3,40(sp)
    4494:	02e13823          	sd	a4,48(sp)
    4498:	02f13c23          	sd	a5,56(sp)
    449c:	05013023          	sd	a6,64(sp)
    44a0:	05113423          	sd	a7,72(sp)
    44a4:	00c13423          	sd	a2,8(sp)
    44a8:	fc9ff0ef          	jal	ra,0x4470
    44ac:	01813083          	ld	ra,24(sp)
    44b0:	05010113          	addi	sp,sp,80
    44b4:	00008067          	ret
    44b8:	00015517          	auipc	a0,0x15
    44bc:	e3053503          	ld	a0,-464(a0) # 0x192e8
    44c0:	00008067          	ret
    44c4:	fe010113          	addi	sp,sp,-32
    44c8:	00913423          	sd	s1,8(sp)
    44cc:	00015497          	auipc	s1,0x15
    44d0:	e1c48493          	addi	s1,s1,-484 # 0x192e8
    44d4:	01213023          	sd	s2,0(sp)
    44d8:	0004b903          	ld	s2,0(s1)
    44dc:	00113c23          	sd	ra,24(sp)
    44e0:	00813823          	sd	s0,16(sp)
    44e4:	eb8fe0ef          	jal	ra,0x2b9c
    44e8:	04a90263          	beq	s2,a0,0x452c
    44ec:	00050413          	mv	s0,a0
    44f0:	02050063          	beqz	a0,0x4510
    44f4:	0004b503          	ld	a0,0(s1)
    44f8:	00050463          	beqz	a0,0x4500
    44fc:	879fe0ef          	jal	ra,0x2d74
    4500:	04300593          	li	a1,67
    4504:	00040513          	mv	a0,s0
    4508:	f14fe0ef          	jal	ra,0x2c1c
    450c:	0084b023          	sd	s0,0(s1)
    4510:	01813083          	ld	ra,24(sp)
    4514:	01013403          	ld	s0,16(sp)
    4518:	00813483          	ld	s1,8(sp)
    451c:	00090513          	mv	a0,s2
    4520:	00013903          	ld	s2,0(sp)
    4524:	02010113          	addi	sp,sp,32
    4528:	00008067          	ret
    452c:	00000913          	li	s2,0
    4530:	fe1ff06f          	j	0x4510
    4534:	00008067          	ret
    4538:	f9010113          	addi	sp,sp,-112
    453c:	02b13c23          	sd	a1,56(sp)
    4540:	04c13023          	sd	a2,64(sp)
    4544:	04d13423          	sd	a3,72(sp)
    4548:	00050613          	mv	a2,a0
    454c:	03810693          	addi	a3,sp,56
    4550:	0ff00593          	li	a1,255
    4554:	00019517          	auipc	a0,0x19
    4558:	1ec50513          	addi	a0,a0,492 # 0x1d740
    455c:	04f13c23          	sd	a5,88(sp)
    4560:	00d13423          	sd	a3,8(sp)
    4564:	02113423          	sd	ra,40(sp)
    4568:	02813023          	sd	s0,32(sp)
    456c:	00913c23          	sd	s1,24(sp)
    4570:	04e13823          	sd	a4,80(sp)
    4574:	07013023          	sd	a6,96(sp)
    4578:	07113423          	sd	a7,104(sp)
    457c:	9a1ff0ef          	jal	ra,0x3f1c
    4580:	00015797          	auipc	a5,0x15
    4584:	d6878793          	addi	a5,a5,-664 # 0x192e8
    4588:	00050693          	mv	a3,a0
    458c:	0007b503          	ld	a0,0(a5)
    4590:	02051263          	bnez	a0,0x45b4
    4594:	00019517          	auipc	a0,0x19
    4598:	1ac50513          	addi	a0,a0,428 # 0x1d740
    459c:	f99ff0ef          	jal	ra,0x4534
    45a0:	02813083          	ld	ra,40(sp)
    45a4:	02013403          	ld	s0,32(sp)
    45a8:	01813483          	ld	s1,24(sp)
    45ac:	07010113          	addi	sp,sp,112
    45b0:	00008067          	ret
    45b4:	02e55483          	lhu	s1,46(a0)
    45b8:	00078413          	mv	s0,a5
    45bc:	0404e793          	ori	a5,s1,64
    45c0:	02f51723          	sh	a5,46(a0)
    45c4:	0ff00793          	li	a5,255
    45c8:	00d7f463          	bgeu	a5,a3,0x45d0
    45cc:	0ff00693          	li	a3,255
    45d0:	00019617          	auipc	a2,0x19
    45d4:	17060613          	addi	a2,a2,368 # 0x1d740
    45d8:	00000593          	li	a1,0
    45dc:	919fe0ef          	jal	ra,0x2ef4
    45e0:	00043783          	ld	a5,0(s0)
    45e4:	02979723          	sh	s1,46(a5)
    45e8:	fb9ff06f          	j	0x45a0
    45ec:	ff010113          	addi	sp,sp,-16
    45f0:	00009517          	auipc	a0,0x9
    45f4:	6d050513          	addi	a0,a0,1744 # 0xdcc0
    45f8:	00113423          	sd	ra,8(sp)
    45fc:	f3dff0ef          	jal	ra,0x4538
    4600:	00009517          	auipc	a0,0x9
    4604:	6d050513          	addi	a0,a0,1744 # 0xdcd0
    4608:	f31ff0ef          	jal	ra,0x4538
    460c:	00009517          	auipc	a0,0x9
    4610:	6fc50513          	addi	a0,a0,1788 # 0xdd08
    4614:	00009717          	auipc	a4,0x9
    4618:	6e470713          	addi	a4,a4,1764 # 0xdcf8
    461c:	00400693          	li	a3,4
    4620:	00000613          	li	a2,0
    4624:	00400593          	li	a1,4
    4628:	f11ff0ef          	jal	ra,0x4538
    462c:	00813083          	ld	ra,8(sp)
    4630:	00009517          	auipc	a0,0x9
    4634:	6f850513          	addi	a0,a0,1784 # 0xdd28
    4638:	01010113          	addi	sp,sp,16
    463c:	efdff06f          	j	0x4538
    4640:	08050063          	beqz	a0,0x46c0
    4644:	0ff57713          	andi	a4,a0,255
    4648:	00009697          	auipc	a3,0x9
    464c:	74868693          	addi	a3,a3,1864 # 0xdd90
    4650:	00070a63          	beqz	a4,0x4664
    4654:	00e686b3          	add	a3,a3,a4
    4658:	0006c503          	lbu	a0,0(a3)
    465c:	0015051b          	addiw	a0,a0,1
    4660:	00008067          	ret
    4664:	000107b7          	lui	a5,0x10
    4668:	f0078793          	addi	a5,a5,-256 # 0xff00
    466c:	00f577b3          	and	a5,a0,a5
    4670:	00078e63          	beqz	a5,0x468c
    4674:	4085551b          	sraiw	a0,a0,0x8
    4678:	0ff57713          	andi	a4,a0,255
    467c:	00e68733          	add	a4,a3,a4
    4680:	00074503          	lbu	a0,0(a4)
    4684:	0095051b          	addiw	a0,a0,9
    4688:	00008067          	ret
    468c:	00ff07b7          	lui	a5,0xff0
    4690:	00f577b3          	and	a5,a0,a5
    4694:	00078e63          	beqz	a5,0x46b0
    4698:	4105551b          	sraiw	a0,a0,0x10
    469c:	0ff57793          	andi	a5,a0,255
    46a0:	00f687b3          	add	a5,a3,a5
    46a4:	0007c503          	lbu	a0,0(a5) # 0xff0000
    46a8:	0115051b          	addiw	a0,a0,17
    46ac:	00008067          	ret
    46b0:	0185551b          	srliw	a0,a0,0x18
    46b4:	00a68533          	add	a0,a3,a0
    46b8:	00054503          	lbu	a0,0(a0)
    46bc:	0195051b          	addiw	a0,a0,25
    46c0:	00008067          	ret
    46c4:	fe010113          	addi	sp,sp,-32
    46c8:	00113c23          	sd	ra,24(sp)
    46cc:	000107a3          	sb	zero,15(sp)
    46d0:	00015317          	auipc	t1,0x15
    46d4:	c2033303          	ld	t1,-992(t1) # 0x192f0
    46d8:	02031a63          	bnez	t1,0x470c
    46dc:	00060693          	mv	a3,a2
    46e0:	00058613          	mv	a2,a1
    46e4:	00050593          	mv	a1,a0
    46e8:	00009517          	auipc	a0,0x9
    46ec:	67050513          	addi	a0,a0,1648 # 0xdd58
    46f0:	e49ff0ef          	jal	ra,0x4538
    46f4:	00f14783          	lbu	a5,15(sp)
    46f8:	0ff7f793          	andi	a5,a5,255
    46fc:	fe078ce3          	beqz	a5,0x46f4
    4700:	01813083          	ld	ra,24(sp)
    4704:	02010113          	addi	sp,sp,32
    4708:	00008067          	ret
    470c:	01813083          	ld	ra,24(sp)
    4710:	02010113          	addi	sp,sp,32
    4714:	00030067          	jr	t1
    4718:	0000d797          	auipc	a5,0xd
    471c:	9a078793          	addi	a5,a5,-1632 # 0x110b8
    4720:	0007b683          	ld	a3,0(a5)
    4724:	02850713          	addi	a4,a0,40
    4728:	00e7b023          	sd	a4,0(a5)
    472c:	00e6b423          	sd	a4,8(a3)
    4730:	02d53423          	sd	a3,40(a0)
    4734:	02f53823          	sd	a5,48(a0)
    4738:	00008067          	ret
    473c:	0000d717          	auipc	a4,0xd
    4740:	97c70713          	addi	a4,a4,-1668 # 0x110b8
    4744:	00073783          	ld	a5,0(a4)
    4748:	00000513          	li	a0,0
    474c:	02e78063          	beq	a5,a4,0x476c
    4750:	0007b683          	ld	a3,0(a5)
    4754:	0087b703          	ld	a4,8(a5)
    4758:	fd878513          	addi	a0,a5,-40
    475c:	00e6b423          	sd	a4,8(a3)
    4760:	00d73023          	sd	a3,0(a4)
    4764:	00f7b423          	sd	a5,8(a5)
    4768:	00f7b023          	sd	a5,0(a5)
    476c:	00008067          	ret
    4770:	fb010113          	addi	sp,sp,-80
    4774:	03213823          	sd	s2,48(sp)
    4778:	03313423          	sd	s3,40(sp)
    477c:	03413023          	sd	s4,32(sp)
    4780:	01513c23          	sd	s5,24(sp)
    4784:	01613823          	sd	s6,16(sp)
    4788:	04113423          	sd	ra,72(sp)
    478c:	04813023          	sd	s0,64(sp)
    4790:	02913c23          	sd	s1,56(sp)
    4794:	01713423          	sd	s7,8(sp)
    4798:	00019997          	auipc	s3,0x19
    479c:	1b098993          	addi	s3,s3,432 # 0x1d948
    47a0:	00009917          	auipc	s2,0x9
    47a4:	72890913          	addi	s2,s2,1832 # 0xdec8
    47a8:	00009a17          	auipc	s4,0x9
    47ac:	b20a0a13          	addi	s4,s4,-1248 # 0xd2c8
    47b0:	00009a97          	auipc	s5,0x9
    47b4:	b40a8a93          	addi	s5,s5,-1216 # 0xd2f0
    47b8:	00100b13          	li	s6,1
    47bc:	00019417          	auipc	s0,0x19
    47c0:	16c40413          	addi	s0,s0,364 # 0x1d928
    47c4:	00043783          	ld	a5,0(s0)
    47c8:	00078463          	beqz	a5,0x47d0
    47cc:	000780e7          	jalr	a5
    47d0:	00840413          	addi	s0,s0,8
    47d4:	fe8998e3          	bne	s3,s0,0x47c4
    47d8:	89dfb0ef          	jal	ra,0x74
    47dc:	00050413          	mv	s0,a0
    47e0:	cc4fd0ef          	jal	ra,0x1ca4
    47e4:	02050063          	beqz	a0,0x4804
    47e8:	00090593          	mv	a1,s2
    47ec:	000a0513          	mv	a0,s4
    47f0:	d49ff0ef          	jal	ra,0x4538
    47f4:	0cb00613          	li	a2,203
    47f8:	00090593          	mv	a1,s2
    47fc:	000a8513          	mv	a0,s5
    4800:	ec5ff0ef          	jal	ra,0x46c4
    4804:	00040513          	mv	a0,s0
    4808:	875fb0ef          	jal	ra,0x7c
    480c:	869fb0ef          	jal	ra,0x74
    4810:	00050493          	mv	s1,a0
    4814:	f29ff0ef          	jal	ra,0x473c
    4818:	00050413          	mv	s0,a0
    481c:	00051863          	bnez	a0,0x482c
    4820:	00048513          	mv	a0,s1
    4824:	859fb0ef          	jal	ra,0x7c
    4828:	f95ff06f          	j	0x47bc
    482c:	0d853b83          	ld	s7,216(a0)
    4830:	000b8e63          	beqz	s7,0x484c
    4834:	00048513          	mv	a0,s1
    4838:	845fb0ef          	jal	ra,0x7c
    483c:	00040513          	mv	a0,s0
    4840:	000b80e7          	jalr	s7
    4844:	831fb0ef          	jal	ra,0x74
    4848:	00050493          	mv	s1,a0
    484c:	00040513          	mv	a0,s0
    4850:	e9dfe0ef          	jal	ra,0x36ec
    4854:	01651c63          	bne	a0,s6,0x486c
    4858:	00040513          	mv	a0,s0
    485c:	c69fe0ef          	jal	ra,0x34c4
    4860:	00048513          	mv	a0,s1
    4864:	819fb0ef          	jal	ra,0x7c
    4868:	f71ff06f          	j	0x47d8
    486c:	00048513          	mv	a0,s1
    4870:	80dfb0ef          	jal	ra,0x7c
    4874:	05043503          	ld	a0,80(s0)
    4878:	ee4fc0ef          	jal	ra,0xf5c
    487c:	00040513          	mv	a0,s0
    4880:	dd1fe0ef          	jal	ra,0x3650
    4884:	f55ff06f          	j	0x47d8
    4888:	fd010113          	addi	sp,sp,-48
    488c:	00000613          	li	a2,0
    4890:	00009597          	auipc	a1,0x9
    4894:	63058593          	addi	a1,a1,1584 # 0xdec0
    4898:	00810513          	addi	a0,sp,8
    489c:	02113423          	sd	ra,40(sp)
    48a0:	02813023          	sd	s0,32(sp)
    48a4:	bddff0ef          	jal	ra,0x4480
    48a8:	00019417          	auipc	s0,0x19
    48ac:	f9840413          	addi	s0,s0,-104 # 0x1d840
    48b0:	00810593          	addi	a1,sp,8
    48b4:	02000893          	li	a7,32
    48b8:	01f00813          	li	a6,31
    48bc:	000047b7          	lui	a5,0x4
    48c0:	00019717          	auipc	a4,0x19
    48c4:	08870713          	addi	a4,a4,136 # 0x1d948
    48c8:	00000693          	li	a3,0
    48cc:	00000617          	auipc	a2,0x0
    48d0:	ea460613          	addi	a2,a2,-348 # 0x4770
    48d4:	00040513          	mv	a0,s0
    48d8:	ea4fd0ef          	jal	ra,0x1f7c
    48dc:	00040513          	mv	a0,s0
    48e0:	cd1fd0ef          	jal	ra,0x25b0
    48e4:	02813083          	ld	ra,40(sp)
    48e8:	02013403          	ld	s0,32(sp)
    48ec:	03010113          	addi	sp,sp,48
    48f0:	00008067          	ret
    48f4:	ff010113          	addi	sp,sp,-16
    48f8:	fd850513          	addi	a0,a0,-40
    48fc:	00113423          	sd	ra,8(sp)
    4900:	bd9fd0ef          	jal	ra,0x24d8
    4904:	00813083          	ld	ra,8(sp)
    4908:	00000513          	li	a0,0
    490c:	01010113          	addi	sp,sp,16
    4910:	00008067          	ret
    4914:	fe010113          	addi	sp,sp,-32
    4918:	00913423          	sd	s1,8(sp)
    491c:	01213023          	sd	s2,0(sp)
    4920:	00050493          	mv	s1,a0
    4924:	00060913          	mv	s2,a2
    4928:	00058513          	mv	a0,a1
    492c:	00813823          	sd	s0,16(sp)
    4930:	00113c23          	sd	ra,24(sp)
    4934:	00058413          	mv	s0,a1
    4938:	9b5fd0ef          	jal	ra,0x22ec
    493c:	02090463          	beqz	s2,0x4964
    4940:	00100793          	li	a5,1
    4944:	04f90a63          	beq	s2,a5,0x4998
    4948:	07f00613          	li	a2,127
    494c:	00009597          	auipc	a1,0x9
    4950:	70458593          	addi	a1,a1,1796 # 0xe050
    4954:	00009517          	auipc	a0,0x9
    4958:	99c50513          	addi	a0,a0,-1636 # 0xd2f0
    495c:	d69ff0ef          	jal	ra,0x46c4
    4960:	01c0006f          	j	0x497c
    4964:	0084b703          	ld	a4,8(s1)
    4968:	02840793          	addi	a5,s0,40
    496c:	00f73023          	sd	a5,0(a4)
    4970:	02e43823          	sd	a4,48(s0)
    4974:	00f4b423          	sd	a5,8(s1)
    4978:	02943423          	sd	s1,40(s0)
    497c:	01813083          	ld	ra,24(sp)
    4980:	01013403          	ld	s0,16(sp)
    4984:	00813483          	ld	s1,8(sp)
    4988:	00013903          	ld	s2,0(sp)
    498c:	00000513          	li	a0,0
    4990:	02010113          	addi	sp,sp,32
    4994:	00008067          	ret
    4998:	0004b783          	ld	a5,0(s1)
    499c:	00978863          	beq	a5,s1,0x49ac
    49a0:	06944683          	lbu	a3,105(s0)
    49a4:	0417c703          	lbu	a4,65(a5) # 0x4041
    49a8:	02e6f063          	bgeu	a3,a4,0x49c8
    49ac:	0087b683          	ld	a3,8(a5)
    49b0:	02840713          	addi	a4,s0,40
    49b4:	00e6b023          	sd	a4,0(a3)
    49b8:	02d43823          	sd	a3,48(s0)
    49bc:	00e7b423          	sd	a4,8(a5)
    49c0:	02f43423          	sd	a5,40(s0)
    49c4:	fb9ff06f          	j	0x497c
    49c8:	0007b783          	ld	a5,0(a5)
    49cc:	fd1ff06f          	j	0x499c
    49d0:	fd010113          	addi	sp,sp,-48
    49d4:	02813023          	sd	s0,32(sp)
    49d8:	00913c23          	sd	s1,24(sp)
    49dc:	01213823          	sd	s2,16(sp)
    49e0:	01313423          	sd	s3,8(sp)
    49e4:	02113423          	sd	ra,40(sp)
    49e8:	00050413          	mv	s0,a0
    49ec:	00058993          	mv	s3,a1
    49f0:	00060493          	mv	s1,a2
    49f4:	00068913          	mv	s2,a3
    49f8:	00051e63          	bnez	a0,0x4a14
    49fc:	0d500613          	li	a2,213
    4a00:	00009597          	auipc	a1,0x9
    4a04:	66858593          	addi	a1,a1,1640 # 0xe068
    4a08:	00009517          	auipc	a0,0x9
    4a0c:	4d850513          	addi	a0,a0,1240 # 0xdee0
    4a10:	cb5ff0ef          	jal	ra,0x46c4
    4a14:	000107b7          	lui	a5,0x10
    4a18:	00f4ee63          	bltu	s1,a5,0x4a34
    4a1c:	0d600613          	li	a2,214
    4a20:	00009597          	auipc	a1,0x9
    4a24:	64858593          	addi	a1,a1,1608 # 0xe068
    4a28:	00009517          	auipc	a0,0x9
    4a2c:	4c850513          	addi	a0,a0,1224 # 0xdef0
    4a30:	c95ff0ef          	jal	ra,0x46c4
    4a34:	00040513          	mv	a0,s0
    4a38:	00098613          	mv	a2,s3
    4a3c:	00200593          	li	a1,2
    4a40:	971fe0ef          	jal	ra,0x33b0
    4a44:	02840793          	addi	a5,s0,40
    4a48:	02941c23          	sh	s1,56(s0)
    4a4c:	01240aa3          	sb	s2,21(s0)
    4a50:	02813083          	ld	ra,40(sp)
    4a54:	02f43823          	sd	a5,48(s0)
    4a58:	02f43423          	sd	a5,40(s0)
    4a5c:	02013403          	ld	s0,32(sp)
    4a60:	01813483          	ld	s1,24(sp)
    4a64:	01013903          	ld	s2,16(sp)
    4a68:	00813983          	ld	s3,8(sp)
    4a6c:	00000513          	li	a0,0
    4a70:	03010113          	addi	sp,sp,48
    4a74:	00008067          	ret
    4a78:	fc010113          	addi	sp,sp,-64
    4a7c:	02813823          	sd	s0,48(sp)
    4a80:	02113c23          	sd	ra,56(sp)
    4a84:	02913423          	sd	s1,40(sp)
    4a88:	03213023          	sd	s2,32(sp)
    4a8c:	01313c23          	sd	s3,24(sp)
    4a90:	00b12623          	sw	a1,12(sp)
    4a94:	00050413          	mv	s0,a0
    4a98:	00051e63          	bnez	a0,0x4ab4
    4a9c:	15300613          	li	a2,339
    4aa0:	00009597          	auipc	a1,0x9
    4aa4:	5d858593          	addi	a1,a1,1496 # 0xe078
    4aa8:	00009517          	auipc	a0,0x9
    4aac:	43850513          	addi	a0,a0,1080 # 0xdee0
    4ab0:	c15ff0ef          	jal	ra,0x46c4
    4ab4:	00040513          	mv	a0,s0
    4ab8:	c79fe0ef          	jal	ra,0x3730
    4abc:	00200793          	li	a5,2
    4ac0:	00f50e63          	beq	a0,a5,0x4adc
    4ac4:	15400613          	li	a2,340
    4ac8:	00009597          	auipc	a1,0x9
    4acc:	5b058593          	addi	a1,a1,1456 # 0xe078
    4ad0:	00009517          	auipc	a0,0x9
    4ad4:	43850513          	addi	a0,a0,1080 # 0xdf08
    4ad8:	bedff0ef          	jal	ra,0x46c4
    4adc:	00014797          	auipc	a5,0x14
    4ae0:	7fc7b783          	ld	a5,2044(a5) # 0x192d8
    4ae4:	00078663          	beqz	a5,0x4af0
    4ae8:	00040513          	mv	a0,s0
    4aec:	000780e7          	jalr	a5
    4af0:	d84fb0ef          	jal	ra,0x74
    4af4:	03845783          	lhu	a5,56(s0)
    4af8:	00050993          	mv	s3,a0
    4afc:	02078863          	beqz	a5,0x4b2c
    4b00:	fff7879b          	addiw	a5,a5,-1
    4b04:	02f41c23          	sh	a5,56(s0)
    4b08:	d74fb0ef          	jal	ra,0x7c
    4b0c:	00014797          	auipc	a5,0x14
    4b10:	7c47b783          	ld	a5,1988(a5) # 0x192d0
    4b14:	00000513          	li	a0,0
    4b18:	02078263          	beqz	a5,0x4b3c
    4b1c:	00040513          	mv	a0,s0
    4b20:	000780e7          	jalr	a5
    4b24:	00000513          	li	a0,0
    4b28:	0140006f          	j	0x4b3c
    4b2c:	00c12783          	lw	a5,12(sp)
    4b30:	02079463          	bnez	a5,0x4b58
    4b34:	d48fb0ef          	jal	ra,0x7c
    4b38:	ffe00513          	li	a0,-2
    4b3c:	03813083          	ld	ra,56(sp)
    4b40:	03013403          	ld	s0,48(sp)
    4b44:	02813483          	ld	s1,40(sp)
    4b48:	02013903          	ld	s2,32(sp)
    4b4c:	01813983          	ld	s3,24(sp)
    4b50:	04010113          	addi	sp,sp,64
    4b54:	00008067          	ret
    4b58:	d1cfb0ef          	jal	ra,0x74
    4b5c:	00050493          	mv	s1,a0
    4b60:	cf4fd0ef          	jal	ra,0x2054
    4b64:	02051863          	bnez	a0,0x4b94
    4b68:	00009597          	auipc	a1,0x9
    4b6c:	51058593          	addi	a1,a1,1296 # 0xe078
    4b70:	00009517          	auipc	a0,0x9
    4b74:	41050513          	addi	a0,a0,1040 # 0xdf80
    4b78:	9c1ff0ef          	jal	ra,0x4538
    4b7c:	17400613          	li	a2,372
    4b80:	00009597          	auipc	a1,0x9
    4b84:	4f858593          	addi	a1,a1,1272 # 0xe078
    4b88:	00008517          	auipc	a0,0x8
    4b8c:	76850513          	addi	a0,a0,1896 # 0xd2f0
    4b90:	b35ff0ef          	jal	ra,0x46c4
    4b94:	ce0fb0ef          	jal	ra,0x74
    4b98:	00050913          	mv	s2,a0
    4b9c:	908fd0ef          	jal	ra,0x1ca4
    4ba0:	02050863          	beqz	a0,0x4bd0
    4ba4:	00009597          	auipc	a1,0x9
    4ba8:	4d458593          	addi	a1,a1,1236 # 0xe078
    4bac:	00008517          	auipc	a0,0x8
    4bb0:	71c50513          	addi	a0,a0,1820 # 0xd2c8
    4bb4:	985ff0ef          	jal	ra,0x4538
    4bb8:	17400613          	li	a2,372
    4bbc:	00009597          	auipc	a1,0x9
    4bc0:	4bc58593          	addi	a1,a1,1212 # 0xe078
    4bc4:	00008517          	auipc	a0,0x8
    4bc8:	72c50513          	addi	a0,a0,1836 # 0xd2f0
    4bcc:	af9ff0ef          	jal	ra,0x46c4
    4bd0:	00090513          	mv	a0,s2
    4bd4:	ca8fb0ef          	jal	ra,0x7c
    4bd8:	00048513          	mv	a0,s1
    4bdc:	ca0fb0ef          	jal	ra,0x7c
    4be0:	c74fd0ef          	jal	ra,0x2054
    4be4:	06053023          	sd	zero,96(a0)
    4be8:	01544603          	lbu	a2,21(s0)
    4bec:	00050593          	mv	a1,a0
    4bf0:	00050493          	mv	s1,a0
    4bf4:	02840513          	addi	a0,s0,40
    4bf8:	d1dff0ef          	jal	ra,0x4914
    4bfc:	00c12783          	lw	a5,12(sp)
    4c00:	02f05063          	blez	a5,0x4c20
    4c04:	08848913          	addi	s2,s1,136
    4c08:	00c10613          	addi	a2,sp,12
    4c0c:	00000593          	li	a1,0
    4c10:	00090513          	mv	a0,s2
    4c14:	b31fc0ef          	jal	ra,0x1744
    4c18:	00090513          	mv	a0,s2
    4c1c:	8d9fc0ef          	jal	ra,0x14f4
    4c20:	00098513          	mv	a0,s3
    4c24:	c58fb0ef          	jal	ra,0x7c
    4c28:	d61fd0ef          	jal	ra,0x2988
    4c2c:	0604b503          	ld	a0,96(s1)
    4c30:	ec050ee3          	beqz	a0,0x4b0c
    4c34:	f09ff06f          	j	0x4b3c
    4c38:	fd010113          	addi	sp,sp,-48
    4c3c:	02813023          	sd	s0,32(sp)
    4c40:	02113423          	sd	ra,40(sp)
    4c44:	00913c23          	sd	s1,24(sp)
    4c48:	00050413          	mv	s0,a0
    4c4c:	00051e63          	bnez	a0,0x4c68
    4c50:	1c000613          	li	a2,448
    4c54:	00009597          	auipc	a1,0x9
    4c58:	43458593          	addi	a1,a1,1076 # 0xe088
    4c5c:	00009517          	auipc	a0,0x9
    4c60:	28450513          	addi	a0,a0,644 # 0xdee0
    4c64:	a61ff0ef          	jal	ra,0x46c4
    4c68:	00040513          	mv	a0,s0
    4c6c:	ac5fe0ef          	jal	ra,0x3730
    4c70:	00200793          	li	a5,2
    4c74:	00f50e63          	beq	a0,a5,0x4c90
    4c78:	1c100613          	li	a2,449
    4c7c:	00009597          	auipc	a1,0x9
    4c80:	40c58593          	addi	a1,a1,1036 # 0xe088
    4c84:	00009517          	auipc	a0,0x9
    4c88:	28450513          	addi	a0,a0,644 # 0xdf08
    4c8c:	a39ff0ef          	jal	ra,0x46c4
    4c90:	00014797          	auipc	a5,0x14
    4c94:	6387b783          	ld	a5,1592(a5) # 0x192c8
    4c98:	00078663          	beqz	a5,0x4ca4
    4c9c:	00040513          	mv	a0,s0
    4ca0:	000780e7          	jalr	a5
    4ca4:	bd0fb0ef          	jal	ra,0x74
    4ca8:	02843783          	ld	a5,40(s0)
    4cac:	02840713          	addi	a4,s0,40
    4cb0:	00050493          	mv	s1,a0
    4cb4:	02e78863          	beq	a5,a4,0x4ce4
    4cb8:	00078513          	mv	a0,a5
    4cbc:	c39ff0ef          	jal	ra,0x48f4
    4cc0:	00100413          	li	s0,1
    4cc4:	00048513          	mv	a0,s1
    4cc8:	bb4fb0ef          	jal	ra,0x7c
    4ccc:	00000513          	li	a0,0
    4cd0:	02040e63          	beqz	s0,0x4d0c
    4cd4:	00a13423          	sd	a0,8(sp)
    4cd8:	cb1fd0ef          	jal	ra,0x2988
    4cdc:	00813503          	ld	a0,8(sp)
    4ce0:	02c0006f          	j	0x4d0c
    4ce4:	03845783          	lhu	a5,56(s0)
    4ce8:	00010737          	lui	a4,0x10
    4cec:	fff70713          	addi	a4,a4,-1 # 0xffff
    4cf0:	00e78a63          	beq	a5,a4,0x4d04
    4cf4:	0017879b          	addiw	a5,a5,1
    4cf8:	02f41c23          	sh	a5,56(s0)
    4cfc:	00000413          	li	s0,0
    4d00:	fc5ff06f          	j	0x4cc4
    4d04:	b78fb0ef          	jal	ra,0x7c
    4d08:	ffd00513          	li	a0,-3
    4d0c:	02813083          	ld	ra,40(sp)
    4d10:	02013403          	ld	s0,32(sp)
    4d14:	01813483          	ld	s1,24(sp)
    4d18:	03010113          	addi	sp,sp,48
    4d1c:	00008067          	ret
    4d20:	fe010113          	addi	sp,sp,-32
    4d24:	00813823          	sd	s0,16(sp)
    4d28:	00913423          	sd	s1,8(sp)
    4d2c:	00113c23          	sd	ra,24(sp)
    4d30:	00050413          	mv	s0,a0
    4d34:	00058493          	mv	s1,a1
    4d38:	00051e63          	bnez	a0,0x4d54
    4d3c:	22a00613          	li	a2,554
    4d40:	00009597          	auipc	a1,0x9
    4d44:	35858593          	addi	a1,a1,856 # 0xe098
    4d48:	00009517          	auipc	a0,0x9
    4d4c:	27050513          	addi	a0,a0,624 # 0xdfb8
    4d50:	975ff0ef          	jal	ra,0x46c4
    4d54:	00040513          	mv	a0,s0
    4d58:	00048613          	mv	a2,s1
    4d5c:	00300593          	li	a1,3
    4d60:	e50fe0ef          	jal	ra,0x33b0
    4d64:	02840793          	addi	a5,s0,40
    4d68:	02f43823          	sd	a5,48(s0)
    4d6c:	02f43423          	sd	a5,40(s0)
    4d70:	00ff07b7          	lui	a5,0xff0
    4d74:	0017879b          	addiw	a5,a5,1
    4d78:	02f42c23          	sw	a5,56(s0)
    4d7c:	00100793          	li	a5,1
    4d80:	01813083          	ld	ra,24(sp)
    4d84:	04043023          	sd	zero,64(s0)
    4d88:	00f40aa3          	sb	a5,21(s0)
    4d8c:	01013403          	ld	s0,16(sp)
    4d90:	00813483          	ld	s1,8(sp)
    4d94:	00000513          	li	a0,0
    4d98:	02010113          	addi	sp,sp,32
    4d9c:	00008067          	ret
    4da0:	fc010113          	addi	sp,sp,-64
    4da4:	02813823          	sd	s0,48(sp)
    4da8:	02913423          	sd	s1,40(sp)
    4dac:	02113c23          	sd	ra,56(sp)
    4db0:	03213023          	sd	s2,32(sp)
    4db4:	01313c23          	sd	s3,24(sp)
    4db8:	00050413          	mv	s0,a0
    4dbc:	00b12623          	sw	a1,12(sp)
    4dc0:	ab4fb0ef          	jal	ra,0x74
    4dc4:	00050493          	mv	s1,a0
    4dc8:	a8cfd0ef          	jal	ra,0x2054
    4dcc:	02051863          	bnez	a0,0x4dfc
    4dd0:	00009597          	auipc	a1,0x9
    4dd4:	2d858593          	addi	a1,a1,728 # 0xe0a8
    4dd8:	00009517          	auipc	a0,0x9
    4ddc:	1a850513          	addi	a0,a0,424 # 0xdf80
    4de0:	f58ff0ef          	jal	ra,0x4538
    4de4:	2aa00613          	li	a2,682
    4de8:	00009597          	auipc	a1,0x9
    4dec:	2c058593          	addi	a1,a1,704 # 0xe0a8
    4df0:	00008517          	auipc	a0,0x8
    4df4:	50050513          	addi	a0,a0,1280 # 0xd2f0
    4df8:	8cdff0ef          	jal	ra,0x46c4
    4dfc:	a78fb0ef          	jal	ra,0x74
    4e00:	00050913          	mv	s2,a0
    4e04:	ea1fc0ef          	jal	ra,0x1ca4
    4e08:	02050863          	beqz	a0,0x4e38
    4e0c:	00009597          	auipc	a1,0x9
    4e10:	29c58593          	addi	a1,a1,668 # 0xe0a8
    4e14:	00008517          	auipc	a0,0x8
    4e18:	4b450513          	addi	a0,a0,1204 # 0xd2c8
    4e1c:	f1cff0ef          	jal	ra,0x4538
    4e20:	2aa00613          	li	a2,682
    4e24:	00009597          	auipc	a1,0x9
    4e28:	28458593          	addi	a1,a1,644 # 0xe0a8
    4e2c:	00008517          	auipc	a0,0x8
    4e30:	4c450513          	addi	a0,a0,1220 # 0xd2f0
    4e34:	891ff0ef          	jal	ra,0x46c4
    4e38:	00090513          	mv	a0,s2
    4e3c:	a40fb0ef          	jal	ra,0x7c
    4e40:	00048513          	mv	a0,s1
    4e44:	a38fb0ef          	jal	ra,0x7c
    4e48:	00041e63          	bnez	s0,0x4e64
    4e4c:	2ad00613          	li	a2,685
    4e50:	00009597          	auipc	a1,0x9
    4e54:	25858593          	addi	a1,a1,600 # 0xe0a8
    4e58:	00009517          	auipc	a0,0x9
    4e5c:	16050513          	addi	a0,a0,352 # 0xdfb8
    4e60:	865ff0ef          	jal	ra,0x46c4
    4e64:	00040513          	mv	a0,s0
    4e68:	8c9fe0ef          	jal	ra,0x3730
    4e6c:	00300793          	li	a5,3
    4e70:	00f50e63          	beq	a0,a5,0x4e8c
    4e74:	2ae00613          	li	a2,686
    4e78:	00009597          	auipc	a1,0x9
    4e7c:	23058593          	addi	a1,a1,560 # 0xe0a8
    4e80:	00009517          	auipc	a0,0x9
    4e84:	15050513          	addi	a0,a0,336 # 0xdfd0
    4e88:	83dff0ef          	jal	ra,0x46c4
    4e8c:	9c8fd0ef          	jal	ra,0x2054
    4e90:	00050493          	mv	s1,a0
    4e94:	9e0fb0ef          	jal	ra,0x74
    4e98:	00014797          	auipc	a5,0x14
    4e9c:	4407b783          	ld	a5,1088(a5) # 0x192d8
    4ea0:	00050913          	mv	s2,a0
    4ea4:	00078663          	beqz	a5,0x4eb0
    4ea8:	00040513          	mv	a0,s0
    4eac:	000780e7          	jalr	a5
    4eb0:	04043503          	ld	a0,64(s0)
    4eb4:	0604b023          	sd	zero,96(s1)
    4eb8:	04951063          	bne	a0,s1,0x4ef8
    4ebc:	03b44783          	lbu	a5,59(s0)
    4ec0:	0ff00713          	li	a4,255
    4ec4:	04e78a63          	beq	a5,a4,0x4f18
    4ec8:	0017879b          	addiw	a5,a5,1
    4ecc:	02f40da3          	sb	a5,59(s0)
    4ed0:	00090513          	mv	a0,s2
    4ed4:	9a8fb0ef          	jal	ra,0x7c
    4ed8:	00014797          	auipc	a5,0x14
    4edc:	3f87b783          	ld	a5,1016(a5) # 0x192d0
    4ee0:	00000513          	li	a0,0
    4ee4:	04078063          	beqz	a5,0x4f24
    4ee8:	00040513          	mv	a0,s0
    4eec:	000780e7          	jalr	a5
    4ef0:	00000513          	li	a0,0
    4ef4:	0300006f          	j	0x4f24
    4ef8:	03845783          	lhu	a5,56(s0)
    4efc:	04078263          	beqz	a5,0x4f40
    4f00:	fff7879b          	addiw	a5,a5,-1
    4f04:	02f41c23          	sh	a5,56(s0)
    4f08:	04943023          	sd	s1,64(s0)
    4f0c:	0694c783          	lbu	a5,105(s1)
    4f10:	02f40d23          	sb	a5,58(s0)
    4f14:	fa9ff06f          	j	0x4ebc
    4f18:	00090513          	mv	a0,s2
    4f1c:	960fb0ef          	jal	ra,0x7c
    4f20:	ffd00513          	li	a0,-3
    4f24:	03813083          	ld	ra,56(sp)
    4f28:	03013403          	ld	s0,48(sp)
    4f2c:	02813483          	ld	s1,40(sp)
    4f30:	02013903          	ld	s2,32(sp)
    4f34:	01813983          	ld	s3,24(sp)
    4f38:	04010113          	addi	sp,sp,64
    4f3c:	00008067          	ret
    4f40:	00c12783          	lw	a5,12(sp)
    4f44:	00079e63          	bnez	a5,0x4f60
    4f48:	ffe00793          	li	a5,-2
    4f4c:	00090513          	mv	a0,s2
    4f50:	06f4b023          	sd	a5,96(s1)
    4f54:	928fb0ef          	jal	ra,0x7c
    4f58:	ffe00513          	li	a0,-2
    4f5c:	fc9ff06f          	j	0x4f24
    4f60:	0694c703          	lbu	a4,105(s1)
    4f64:	06954783          	lbu	a5,105(a0)
    4f68:	00f77863          	bgeu	a4,a5,0x4f78
    4f6c:	06948613          	addi	a2,s1,105
    4f70:	00200593          	li	a1,2
    4f74:	efcfd0ef          	jal	ra,0x2670
    4f78:	01544603          	lbu	a2,21(s0)
    4f7c:	00048593          	mv	a1,s1
    4f80:	02840513          	addi	a0,s0,40
    4f84:	991ff0ef          	jal	ra,0x4914
    4f88:	00c12783          	lw	a5,12(sp)
    4f8c:	02f05063          	blez	a5,0x4fac
    4f90:	08848993          	addi	s3,s1,136
    4f94:	00c10613          	addi	a2,sp,12
    4f98:	00000593          	li	a1,0
    4f9c:	00098513          	mv	a0,s3
    4fa0:	fa4fc0ef          	jal	ra,0x1744
    4fa4:	00098513          	mv	a0,s3
    4fa8:	d4cfc0ef          	jal	ra,0x14f4
    4fac:	00090513          	mv	a0,s2
    4fb0:	8ccfb0ef          	jal	ra,0x7c
    4fb4:	9d5fd0ef          	jal	ra,0x2988
    4fb8:	0604b503          	ld	a0,96(s1)
    4fbc:	f60514e3          	bnez	a0,0x4f24
    4fc0:	8b4fb0ef          	jal	ra,0x74
    4fc4:	00050913          	mv	s2,a0
    4fc8:	f09ff06f          	j	0x4ed0
    4fcc:	fd010113          	addi	sp,sp,-48
    4fd0:	02813023          	sd	s0,32(sp)
    4fd4:	02113423          	sd	ra,40(sp)
    4fd8:	00913c23          	sd	s1,24(sp)
    4fdc:	01213823          	sd	s2,16(sp)
    4fe0:	00050413          	mv	s0,a0
    4fe4:	00051e63          	bnez	a0,0x5000
    4fe8:	35400613          	li	a2,852
    4fec:	00009597          	auipc	a1,0x9
    4ff0:	0cc58593          	addi	a1,a1,204 # 0xe0b8
    4ff4:	00009517          	auipc	a0,0x9
    4ff8:	fc450513          	addi	a0,a0,-60 # 0xdfb8
    4ffc:	ec8ff0ef          	jal	ra,0x46c4
    5000:	00040513          	mv	a0,s0
    5004:	f2cfe0ef          	jal	ra,0x3730
    5008:	00300793          	li	a5,3
    500c:	00f50e63          	beq	a0,a5,0x5028
    5010:	35500613          	li	a2,853
    5014:	00009597          	auipc	a1,0x9
    5018:	0a458593          	addi	a1,a1,164 # 0xe0b8
    501c:	00009517          	auipc	a0,0x9
    5020:	fb450513          	addi	a0,a0,-76 # 0xdfd0
    5024:	ea0ff0ef          	jal	ra,0x46c4
    5028:	84cfb0ef          	jal	ra,0x74
    502c:	00050493          	mv	s1,a0
    5030:	824fd0ef          	jal	ra,0x2054
    5034:	02051863          	bnez	a0,0x5064
    5038:	00009597          	auipc	a1,0x9
    503c:	08058593          	addi	a1,a1,128 # 0xe0b8
    5040:	00009517          	auipc	a0,0x9
    5044:	f4050513          	addi	a0,a0,-192 # 0xdf80
    5048:	cf0ff0ef          	jal	ra,0x4538
    504c:	35a00613          	li	a2,858
    5050:	00009597          	auipc	a1,0x9
    5054:	06858593          	addi	a1,a1,104 # 0xe0b8
    5058:	00008517          	auipc	a0,0x8
    505c:	29850513          	addi	a0,a0,664 # 0xd2f0
    5060:	e64ff0ef          	jal	ra,0x46c4
    5064:	810fb0ef          	jal	ra,0x74
    5068:	00050913          	mv	s2,a0
    506c:	c39fc0ef          	jal	ra,0x1ca4
    5070:	02050863          	beqz	a0,0x50a0
    5074:	00009597          	auipc	a1,0x9
    5078:	04458593          	addi	a1,a1,68 # 0xe0b8
    507c:	00008517          	auipc	a0,0x8
    5080:	24c50513          	addi	a0,a0,588 # 0xd2c8
    5084:	cb4ff0ef          	jal	ra,0x4538
    5088:	35a00613          	li	a2,858
    508c:	00009597          	auipc	a1,0x9
    5090:	02c58593          	addi	a1,a1,44 # 0xe0b8
    5094:	00008517          	auipc	a0,0x8
    5098:	25c50513          	addi	a0,a0,604 # 0xd2f0
    509c:	e28ff0ef          	jal	ra,0x46c4
    50a0:	00090513          	mv	a0,s2
    50a4:	fd9fa0ef          	jal	ra,0x7c
    50a8:	00048513          	mv	a0,s1
    50ac:	fd1fa0ef          	jal	ra,0x7c
    50b0:	fa5fc0ef          	jal	ra,0x2054
    50b4:	00050913          	mv	s2,a0
    50b8:	fbdfa0ef          	jal	ra,0x74
    50bc:	00014797          	auipc	a5,0x14
    50c0:	20c7b783          	ld	a5,524(a5) # 0x192c8
    50c4:	00050493          	mv	s1,a0
    50c8:	00078663          	beqz	a5,0x50d4
    50cc:	00040513          	mv	a0,s0
    50d0:	000780e7          	jalr	a5
    50d4:	04043783          	ld	a5,64(s0)
    50d8:	03278863          	beq	a5,s2,0x5108
    50dc:	fff00793          	li	a5,-1
    50e0:	00048513          	mv	a0,s1
    50e4:	06f93023          	sd	a5,96(s2)
    50e8:	f95fa0ef          	jal	ra,0x7c
    50ec:	fff00513          	li	a0,-1
    50f0:	02813083          	ld	ra,40(sp)
    50f4:	02013403          	ld	s0,32(sp)
    50f8:	01813483          	ld	s1,24(sp)
    50fc:	01013903          	ld	s2,16(sp)
    5100:	03010113          	addi	sp,sp,48
    5104:	00008067          	ret
    5108:	03b44783          	lbu	a5,59(s0)
    510c:	fff7879b          	addiw	a5,a5,-1
    5110:	0ff7f793          	andi	a5,a5,255
    5114:	02f40da3          	sb	a5,59(s0)
    5118:	08079e63          	bnez	a5,0x51b4
    511c:	03a44703          	lbu	a4,58(s0)
    5120:	06994783          	lbu	a5,105(s2)
    5124:	00f70a63          	beq	a4,a5,0x5138
    5128:	03a40613          	addi	a2,s0,58
    512c:	00200593          	li	a1,2
    5130:	00090513          	mv	a0,s2
    5134:	d3cfd0ef          	jal	ra,0x2670
    5138:	02843503          	ld	a0,40(s0)
    513c:	02840793          	addi	a5,s0,40
    5140:	04f50863          	beq	a0,a5,0x5190
    5144:	fd850793          	addi	a5,a0,-40
    5148:	04f43023          	sd	a5,64(s0)
    514c:	04154783          	lbu	a5,65(a0)
    5150:	0ff00713          	li	a4,255
    5154:	02f40d23          	sb	a5,58(s0)
    5158:	03b44783          	lbu	a5,59(s0)
    515c:	06e78063          	beq	a5,a4,0x51bc
    5160:	0017879b          	addiw	a5,a5,1
    5164:	02f40da3          	sb	a5,59(s0)
    5168:	f8cff0ef          	jal	ra,0x48f4
    516c:	00100413          	li	s0,1
    5170:	00048513          	mv	a0,s1
    5174:	f09fa0ef          	jal	ra,0x7c
    5178:	00000513          	li	a0,0
    517c:	f6040ae3          	beqz	s0,0x50f0
    5180:	00a13423          	sd	a0,8(sp)
    5184:	805fd0ef          	jal	ra,0x2988
    5188:	00813503          	ld	a0,8(sp)
    518c:	f65ff06f          	j	0x50f0
    5190:	03845783          	lhu	a5,56(s0)
    5194:	00010737          	lui	a4,0x10
    5198:	fff70713          	addi	a4,a4,-1 # 0xffff
    519c:	02e78063          	beq	a5,a4,0x51bc
    51a0:	0017879b          	addiw	a5,a5,1
    51a4:	02f41c23          	sh	a5,56(s0)
    51a8:	fff00793          	li	a5,-1
    51ac:	04043023          	sd	zero,64(s0)
    51b0:	02f40d23          	sb	a5,58(s0)
    51b4:	00000413          	li	s0,0
    51b8:	fb9ff06f          	j	0x5170
    51bc:	00048513          	mv	a0,s1
    51c0:	ebdfa0ef          	jal	ra,0x7c
    51c4:	ffd00513          	li	a0,-3
    51c8:	f29ff06f          	j	0x50f0
    51cc:	ff010113          	addi	sp,sp,-16
    51d0:	00113423          	sd	ra,8(sp)
    51d4:	8a8fe0ef          	jal	ra,0x327c
    51d8:	f14027f3          	csrr	a5,mhartid
    51dc:	0027979b          	slliw	a5,a5,0x2
    51e0:	02079793          	slli	a5,a5,0x20
    51e4:	38004737          	lui	a4,0x38004
    51e8:	0207d793          	srli	a5,a5,0x20
    51ec:	00f707b3          	add	a5,a4,a5
    51f0:	3800c737          	lui	a4,0x3800c
    51f4:	ff873703          	ld	a4,-8(a4) # 0x3800bff8
    51f8:	000186b7          	lui	a3,0x18
    51fc:	00813083          	ld	ra,8(sp)
    5200:	6a068693          	addi	a3,a3,1696 # 0x186a0
    5204:	00d70733          	add	a4,a4,a3
    5208:	00e7b023          	sd	a4,0(a5)
    520c:	00000513          	li	a0,0
    5210:	01010113          	addi	sp,sp,16
    5214:	00008067          	ret
    5218:	08000713          	li	a4,128
    521c:	304737f3          	csrrc	a5,mie,a4
    5220:	344737f3          	csrrc	a5,mip,a4
    5224:	f14027f3          	csrr	a5,mhartid
    5228:	0027979b          	slliw	a5,a5,0x2
    522c:	02079793          	slli	a5,a5,0x20
    5230:	380046b7          	lui	a3,0x38004
    5234:	0207d793          	srli	a5,a5,0x20
    5238:	00f687b3          	add	a5,a3,a5
    523c:	3800c6b7          	lui	a3,0x3800c
    5240:	ff86b683          	ld	a3,-8(a3) # 0x3800bff8
    5244:	00018637          	lui	a2,0x18
    5248:	6a060613          	addi	a2,a2,1696 # 0x186a0
    524c:	00c686b3          	add	a3,a3,a2
    5250:	00d7b023          	sd	a3,0(a5)
    5254:	30472773          	csrrs	a4,mie,a4
    5258:	00000513          	li	a0,0
    525c:	00008067          	ret
    5260:	f0010113          	addi	sp,sp,-256
    5264:	00113423          	sd	ra,8(sp)
    5268:	300020f3          	csrr	ra,mstatus
    526c:	00113823          	sd	ra,16(sp)
    5270:	341020f3          	csrr	ra,mepc
    5274:	00113023          	sd	ra,0(sp)
    5278:	02413023          	sd	tp,32(sp)
    527c:	02513423          	sd	t0,40(sp)
    5280:	02613823          	sd	t1,48(sp)
    5284:	02713c23          	sd	t2,56(sp)
    5288:	04813023          	sd	s0,64(sp)
    528c:	04913423          	sd	s1,72(sp)
    5290:	04a13823          	sd	a0,80(sp)
    5294:	04b13c23          	sd	a1,88(sp)
    5298:	06c13023          	sd	a2,96(sp)
    529c:	06d13423          	sd	a3,104(sp)
    52a0:	06e13823          	sd	a4,112(sp)
    52a4:	06f13c23          	sd	a5,120(sp)
    52a8:	09013023          	sd	a6,128(sp)
    52ac:	09113423          	sd	a7,136(sp)
    52b0:	09213823          	sd	s2,144(sp)
    52b4:	09313c23          	sd	s3,152(sp)
    52b8:	0b413023          	sd	s4,160(sp)
    52bc:	0b513423          	sd	s5,168(sp)
    52c0:	0b613823          	sd	s6,176(sp)
    52c4:	0b713c23          	sd	s7,184(sp)
    52c8:	0d813023          	sd	s8,192(sp)
    52cc:	0d913423          	sd	s9,200(sp)
    52d0:	0da13823          	sd	s10,208(sp)
    52d4:	0db13c23          	sd	s11,216(sp)
    52d8:	0fc13023          	sd	t3,224(sp)
    52dc:	0fd13423          	sd	t4,232(sp)
    52e0:	0fe13823          	sd	t5,240(sp)
    52e4:	0ff13c23          	sd	t6,248(sp)
    52e8:	00010413          	mv	s0,sp
    52ec:	f14022f3          	csrr	t0,mhartid
    52f0:	83818113          	addi	sp,gp,-1992
    52f4:	00128313          	addi	t1,t0,1
    52f8:	000043b7          	lui	t2,0x4
    52fc:	00000e13          	li	t3,0
    5300:	007e0e33          	add	t3,t3,t2
    5304:	fff30313          	addi	t1,t1,-1
    5308:	fe031ce3          	bnez	t1,0x5300
    530c:	000e0313          	mv	t1,t3
    5310:	00610133          	add	sp,sp,t1
    5314:	909fc0ef          	jal	ra,0x1c1c
    5318:	34202573          	csrr	a0,mcause
    531c:	341025f3          	csrr	a1,mepc
    5320:	00040613          	mv	a2,s0
    5324:	358000ef          	jal	ra,0x567c
    5328:	939fc0ef          	jal	ra,0x1c60
    532c:	00040113          	mv	sp,s0
    5330:	00014417          	auipc	s0,0x14
    5334:	fd840413          	addi	s0,s0,-40 # 0x19308
    5338:	00042903          	lw	s2,0(s0)
    533c:	02090463          	beqz	s2,0x5364
    5340:	00042023          	sw	zero,0(s0)
    5344:	00014417          	auipc	s0,0x14
    5348:	fb440413          	addi	s0,s0,-76 # 0x192f8
    534c:	00043483          	ld	s1,0(s0)
    5350:	0024b023          	sd	sp,0(s1)
    5354:	00014417          	auipc	s0,0x14
    5358:	fac40413          	addi	s0,s0,-84 # 0x19300
    535c:	00043483          	ld	s1,0(s0)
    5360:	0004b103          	ld	sp,0(s1)
    5364:	dcdfa06f          	j	0x130
    5368:	ff010113          	addi	sp,sp,-16
    536c:	00050593          	mv	a1,a0
    5370:	00009517          	auipc	a0,0x9
    5374:	d6050513          	addi	a0,a0,-672 # 0xe0d0
    5378:	00113423          	sd	ra,8(sp)
    537c:	9bcff0ef          	jal	ra,0x4538
    5380:	00813083          	ld	ra,8(sp)
    5384:	00000513          	li	a0,0
    5388:	01010113          	addi	sp,sp,16
    538c:	00008067          	ret
    5390:	0001c797          	auipc	a5,0x1c
    5394:	5b878793          	addi	a5,a5,1464 # 0x21948
    5398:	0001d717          	auipc	a4,0x1d
    539c:	db070713          	addi	a4,a4,-592 # 0x22148
    53a0:	00000697          	auipc	a3,0x0
    53a4:	fc868693          	addi	a3,a3,-56 # 0x5368
    53a8:	00d7b023          	sd	a3,0(a5)
    53ac:	0007b423          	sd	zero,8(a5)
    53b0:	01078793          	addi	a5,a5,16
    53b4:	fee79ae3          	bne	a5,a4,0x53a8
    53b8:	00008067          	ret
    53bc:	ff010113          	addi	sp,sp,-16
    53c0:	00813023          	sd	s0,0(sp)
    53c4:	00050413          	mv	s0,a0
    53c8:	00009517          	auipc	a0,0x9
    53cc:	ec850513          	addi	a0,a0,-312 # 0xe290
    53d0:	00113423          	sd	ra,8(sp)
    53d4:	964ff0ef          	jal	ra,0x4538
    53d8:	00009517          	auipc	a0,0x9
    53dc:	ee850513          	addi	a0,a0,-280 # 0xe2c0
    53e0:	958ff0ef          	jal	ra,0x4538
    53e4:	10043603          	ld	a2,256(s0)
    53e8:	00843583          	ld	a1,8(s0)
    53ec:	00009517          	auipc	a0,0x9
    53f0:	eec50513          	addi	a0,a0,-276 # 0xe2d8
    53f4:	944ff0ef          	jal	ra,0x4538
    53f8:	02043603          	ld	a2,32(s0)
    53fc:	01843583          	ld	a1,24(s0)
    5400:	00009517          	auipc	a0,0x9
    5404:	ef850513          	addi	a0,a0,-264 # 0xe2f8
    5408:	930ff0ef          	jal	ra,0x4538
    540c:	00009517          	auipc	a0,0x9
    5410:	f0c50513          	addi	a0,a0,-244 # 0xe318
    5414:	924ff0ef          	jal	ra,0x4538
    5418:	03043603          	ld	a2,48(s0)
    541c:	02843583          	ld	a1,40(s0)
    5420:	00009517          	auipc	a0,0x9
    5424:	f1050513          	addi	a0,a0,-240 # 0xe330
    5428:	910ff0ef          	jal	ra,0x4538
    542c:	03843583          	ld	a1,56(s0)
    5430:	00009517          	auipc	a0,0x9
    5434:	f2050513          	addi	a0,a0,-224 # 0xe350
    5438:	900ff0ef          	jal	ra,0x4538
    543c:	0e843603          	ld	a2,232(s0)
    5440:	0e043583          	ld	a1,224(s0)
    5444:	00009517          	auipc	a0,0x9
    5448:	f1c50513          	addi	a0,a0,-228 # 0xe360
    544c:	8ecff0ef          	jal	ra,0x4538
    5450:	0f843603          	ld	a2,248(s0)
    5454:	0f043583          	ld	a1,240(s0)
    5458:	00009517          	auipc	a0,0x9
    545c:	f2850513          	addi	a0,a0,-216 # 0xe380
    5460:	8d8ff0ef          	jal	ra,0x4538
    5464:	00009517          	auipc	a0,0x9
    5468:	f3c50513          	addi	a0,a0,-196 # 0xe3a0
    546c:	8ccff0ef          	jal	ra,0x4538
    5470:	04843603          	ld	a2,72(s0)
    5474:	04043583          	ld	a1,64(s0)
    5478:	00009517          	auipc	a0,0x9
    547c:	f4050513          	addi	a0,a0,-192 # 0xe3b8
    5480:	8b8ff0ef          	jal	ra,0x4538
    5484:	09843603          	ld	a2,152(s0)
    5488:	09043583          	ld	a1,144(s0)
    548c:	00009517          	auipc	a0,0x9
    5490:	f5450513          	addi	a0,a0,-172 # 0xe3e0
    5494:	8a4ff0ef          	jal	ra,0x4538
    5498:	0a843603          	ld	a2,168(s0)
    549c:	0a043583          	ld	a1,160(s0)
    54a0:	00009517          	auipc	a0,0x9
    54a4:	f6050513          	addi	a0,a0,-160 # 0xe400
    54a8:	890ff0ef          	jal	ra,0x4538
    54ac:	0b843603          	ld	a2,184(s0)
    54b0:	0b043583          	ld	a1,176(s0)
    54b4:	00009517          	auipc	a0,0x9
    54b8:	f6c50513          	addi	a0,a0,-148 # 0xe420
    54bc:	87cff0ef          	jal	ra,0x4538
    54c0:	0c843603          	ld	a2,200(s0)
    54c4:	0c043583          	ld	a1,192(s0)
    54c8:	00009517          	auipc	a0,0x9
    54cc:	f7850513          	addi	a0,a0,-136 # 0xe440
    54d0:	868ff0ef          	jal	ra,0x4538
    54d4:	0d843603          	ld	a2,216(s0)
    54d8:	0d043583          	ld	a1,208(s0)
    54dc:	00009517          	auipc	a0,0x9
    54e0:	f8450513          	addi	a0,a0,-124 # 0xe460
    54e4:	854ff0ef          	jal	ra,0x4538
    54e8:	00009517          	auipc	a0,0x9
    54ec:	fa050513          	addi	a0,a0,-96 # 0xe488
    54f0:	848ff0ef          	jal	ra,0x4538
    54f4:	05843603          	ld	a2,88(s0)
    54f8:	05043583          	ld	a1,80(s0)
    54fc:	00009517          	auipc	a0,0x9
    5500:	fac50513          	addi	a0,a0,-84 # 0xe4a8
    5504:	834ff0ef          	jal	ra,0x4538
    5508:	06843603          	ld	a2,104(s0)
    550c:	06043583          	ld	a1,96(s0)
    5510:	00009517          	auipc	a0,0x9
    5514:	fb850513          	addi	a0,a0,-72 # 0xe4c8
    5518:	820ff0ef          	jal	ra,0x4538
    551c:	07843603          	ld	a2,120(s0)
    5520:	07043583          	ld	a1,112(s0)
    5524:	00009517          	auipc	a0,0x9
    5528:	fc450513          	addi	a0,a0,-60 # 0xe4e8
    552c:	80cff0ef          	jal	ra,0x4538
    5530:	08843603          	ld	a2,136(s0)
    5534:	08043583          	ld	a1,128(s0)
    5538:	00009517          	auipc	a0,0x9
    553c:	fd050513          	addi	a0,a0,-48 # 0xe508
    5540:	ff9fe0ef          	jal	ra,0x4538
    5544:	01043583          	ld	a1,16(s0)
    5548:	00009517          	auipc	a0,0x9
    554c:	fe050513          	addi	a0,a0,-32 # 0xe528
    5550:	fe9fe0ef          	jal	ra,0x4538
    5554:	01043783          	ld	a5,16(s0)
    5558:	00009597          	auipc	a1,0x9
    555c:	bc058593          	addi	a1,a1,-1088 # 0xe118
    5560:	0027f793          	andi	a5,a5,2
    5564:	00078663          	beqz	a5,0x5570
    5568:	00009597          	auipc	a1,0x9
    556c:	b9058593          	addi	a1,a1,-1136 # 0xe0f8
    5570:	00009517          	auipc	a0,0x9
    5574:	fc850513          	addi	a0,a0,-56 # 0xe538
    5578:	fc1fe0ef          	jal	ra,0x4538
    557c:	01043783          	ld	a5,16(s0)
    5580:	00009597          	auipc	a1,0x9
    5584:	bb858593          	addi	a1,a1,-1096 # 0xe138
    5588:	0207f793          	andi	a5,a5,32
    558c:	00079663          	bnez	a5,0x5598
    5590:	00009597          	auipc	a1,0x9
    5594:	bd058593          	addi	a1,a1,-1072 # 0xe160
    5598:	00009517          	auipc	a0,0x9
    559c:	fa050513          	addi	a0,a0,-96 # 0xe538
    55a0:	f99fe0ef          	jal	ra,0x4538
    55a4:	01043783          	ld	a5,16(s0)
    55a8:	00009597          	auipc	a1,0x9
    55ac:	be058593          	addi	a1,a1,-1056 # 0xe188
    55b0:	1007f793          	andi	a5,a5,256
    55b4:	00079663          	bnez	a5,0x55c0
    55b8:	00009597          	auipc	a1,0x9
    55bc:	bf858593          	addi	a1,a1,-1032 # 0xe1b0
    55c0:	00009517          	auipc	a0,0x9
    55c4:	f7850513          	addi	a0,a0,-136 # 0xe538
    55c8:	f71fe0ef          	jal	ra,0x4538
    55cc:	01043783          	ld	a5,16(s0)
    55d0:	00009597          	auipc	a1,0x9
    55d4:	c0058593          	addi	a1,a1,-1024 # 0xe1d0
    55d8:	02d79713          	slli	a4,a5,0x2d
    55dc:	00074663          	bltz	a4,0x55e8
    55e0:	00009597          	auipc	a1,0x9
    55e4:	c1058593          	addi	a1,a1,-1008 # 0xe1f0
    55e8:	00009517          	auipc	a0,0x9
    55ec:	f5050513          	addi	a0,a0,-176 # 0xe538
    55f0:	f49fe0ef          	jal	ra,0x4538
    55f4:	01043783          	ld	a5,16(s0)
    55f8:	00009597          	auipc	a1,0x9
    55fc:	c1858593          	addi	a1,a1,-1000 # 0xe210
    5600:	02c79713          	slli	a4,a5,0x2c
    5604:	00074663          	bltz	a4,0x5610
    5608:	00009597          	auipc	a1,0x9
    560c:	c3058593          	addi	a1,a1,-976 # 0xe238
    5610:	00009517          	auipc	a0,0x9
    5614:	f2850513          	addi	a0,a0,-216 # 0xe538
    5618:	f21fe0ef          	jal	ra,0x4538
    561c:	18002473          	csrr	s0,satp
    5620:	00009517          	auipc	a0,0x9
    5624:	f2050513          	addi	a0,a0,-224 # 0xe540
    5628:	00040593          	mv	a1,s0
    562c:	f0dfe0ef          	jal	ra,0x4538
    5630:	03c45413          	srli	s0,s0,0x3c
    5634:	00900793          	li	a5,9
    5638:	00009597          	auipc	a1,0x9
    563c:	c2858593          	addi	a1,a1,-984 # 0xe260
    5640:	0087ec63          	bltu	a5,s0,0x5658
    5644:	00009597          	auipc	a1,0x9
    5648:	1dc58593          	addi	a1,a1,476 # 0xe820
    564c:	00341413          	slli	s0,s0,0x3
    5650:	00858433          	add	s0,a1,s0
    5654:	00043583          	ld	a1,0(s0)
    5658:	00009517          	auipc	a0,0x9
    565c:	ef850513          	addi	a0,a0,-264 # 0xe550
    5660:	ed9fe0ef          	jal	ra,0x4538
    5664:	00013403          	ld	s0,0(sp)
    5668:	00813083          	ld	ra,8(sp)
    566c:	00009517          	auipc	a0,0x9
    5670:	ef450513          	addi	a0,a0,-268 # 0xe560
    5674:	01010113          	addi	sp,sp,16
    5678:	ec1fe06f          	j	0x4538
    567c:	fd010113          	addi	sp,sp,-48
    5680:	02813023          	sd	s0,32(sp)
    5684:	02113423          	sd	ra,40(sp)
    5688:	00913c23          	sd	s1,24(sp)
    568c:	01213823          	sd	s2,16(sp)
    5690:	01313423          	sd	s3,8(sp)
    5694:	01413023          	sd	s4,0(sp)
    5698:	0005041b          	sext.w	s0,a0
    569c:	08055063          	bgez	a0,0x571c
    56a0:	00900793          	li	a5,9
    56a4:	04f40463          	beq	s0,a5,0x56ec
    56a8:	0087cc63          	blt	a5,s0,0x56c0
    56ac:	ffd47413          	andi	s0,s0,-3
    56b0:	00500793          	li	a5,5
    56b4:	00f41a63          	bne	s0,a5,0x56c8
    56b8:	b15ff0ef          	jal	ra,0x51cc
    56bc:	00c0006f          	j	0x56c8
    56c0:	00b00793          	li	a5,11
    56c4:	02f40463          	beq	s0,a5,0x56ec
    56c8:	02013403          	ld	s0,32(sp)
    56cc:	02813083          	ld	ra,40(sp)
    56d0:	01813483          	ld	s1,24(sp)
    56d4:	01013903          	ld	s2,16(sp)
    56d8:	00813983          	ld	s3,8(sp)
    56dc:	00013a03          	ld	s4,0(sp)
    56e0:	00000513          	li	a0,0
    56e4:	03010113          	addi	sp,sp,48
    56e8:	995fa06f          	j	0x7c
    56ec:	d79fa0ef          	jal	ra,0x464
    56f0:	00050413          	mv	s0,a0
    56f4:	d89fa0ef          	jal	ra,0x47c
    56f8:	00441713          	slli	a4,s0,0x4
    56fc:	0001c797          	auipc	a5,0x1c
    5700:	24c78793          	addi	a5,a5,588 # 0x21948
    5704:	00e787b3          	add	a5,a5,a4
    5708:	0007b703          	ld	a4,0(a5)
    570c:	0087b583          	ld	a1,8(a5)
    5710:	00040513          	mv	a0,s0
    5714:	000700e7          	jalr	a4
    5718:	fb1ff06f          	j	0x56c8
    571c:	00050493          	mv	s1,a0
    5720:	00058a13          	mv	s4,a1
    5724:	00060913          	mv	s2,a2
    5728:	00068993          	mv	s3,a3
    572c:	949fa0ef          	jal	ra,0x74
    5730:	00048593          	mv	a1,s1
    5734:	00090693          	mv	a3,s2
    5738:	000a0613          	mv	a2,s4
    573c:	00009517          	auipc	a0,0x9
    5740:	e5450513          	addi	a0,a0,-428 # 0xe590
    5744:	df5fe0ef          	jal	ra,0x4538
    5748:	90dfc0ef          	jal	ra,0x2054
    574c:	00050493          	mv	s1,a0
    5750:	00009517          	auipc	a0,0x9
    5754:	e6850513          	addi	a0,a0,-408 # 0xe5b8
    5758:	de1fe0ef          	jal	ra,0x4538
    575c:	00b00793          	li	a5,11
    5760:	0e87e863          	bltu	a5,s0,0x5850
    5764:	00009717          	auipc	a4,0x9
    5768:	00470713          	addi	a4,a4,4 # 0xe768
    576c:	00241413          	slli	s0,s0,0x2
    5770:	00e40433          	add	s0,s0,a4
    5774:	00042783          	lw	a5,0(s0)
    5778:	00e787b3          	add	a5,a5,a4
    577c:	00078067          	jr	a5
    5780:	00009517          	auipc	a0,0x9
    5784:	e4850513          	addi	a0,a0,-440 # 0xe5c8
    5788:	db1fe0ef          	jal	ra,0x4538
    578c:	0000a517          	auipc	a0,0xa
    5790:	6ac50513          	addi	a0,a0,1708 # 0xfe38
    5794:	da5fe0ef          	jal	ra,0x4538
    5798:	00098513          	mv	a0,s3
    579c:	c21ff0ef          	jal	ra,0x53bc
    57a0:	00090593          	mv	a1,s2
    57a4:	00009517          	auipc	a0,0x9
    57a8:	f9450513          	addi	a0,a0,-108 # 0xe738
    57ac:	d8dfe0ef          	jal	ra,0x4538
    57b0:	00048613          	mv	a2,s1
    57b4:	01400593          	li	a1,20
    57b8:	00009517          	auipc	a0,0x9
    57bc:	f9850513          	addi	a0,a0,-104 # 0xe750
    57c0:	d79fe0ef          	jal	ra,0x4538
    57c4:	219060ef          	jal	ra,0xc1dc
    57c8:	0000006f          	j	0x57c8
    57cc:	00009517          	auipc	a0,0x9
    57d0:	e1c50513          	addi	a0,a0,-484 # 0xe5e8
    57d4:	fb5ff06f          	j	0x5788
    57d8:	00009517          	auipc	a0,0x9
    57dc:	e3050513          	addi	a0,a0,-464 # 0xe608
    57e0:	fa9ff06f          	j	0x5788
    57e4:	00009517          	auipc	a0,0x9
    57e8:	e3c50513          	addi	a0,a0,-452 # 0xe620
    57ec:	f9dff06f          	j	0x5788
    57f0:	00009517          	auipc	a0,0x9
    57f4:	e4050513          	addi	a0,a0,-448 # 0xe630
    57f8:	f91ff06f          	j	0x5788
    57fc:	00009517          	auipc	a0,0x9
    5800:	e4c50513          	addi	a0,a0,-436 # 0xe648
    5804:	f85ff06f          	j	0x5788
    5808:	00009517          	auipc	a0,0x9
    580c:	e5850513          	addi	a0,a0,-424 # 0xe660
    5810:	f79ff06f          	j	0x5788
    5814:	00009517          	auipc	a0,0x9
    5818:	e6c50513          	addi	a0,a0,-404 # 0xe680
    581c:	f6dff06f          	j	0x5788
    5820:	00009517          	auipc	a0,0x9
    5824:	e7850513          	addi	a0,a0,-392 # 0xe698
    5828:	f61ff06f          	j	0x5788
    582c:	00009517          	auipc	a0,0x9
    5830:	e8c50513          	addi	a0,a0,-372 # 0xe6b8
    5834:	f55ff06f          	j	0x5788
    5838:	00009517          	auipc	a0,0x9
    583c:	ea050513          	addi	a0,a0,-352 # 0xe6d8
    5840:	f49ff06f          	j	0x5788
    5844:	00009517          	auipc	a0,0x9
    5848:	eb450513          	addi	a0,a0,-332 # 0xe6f8
    584c:	f3dff06f          	j	0x5788
    5850:	00040593          	mv	a1,s0
    5854:	00009517          	auipc	a0,0x9
    5858:	ec450513          	addi	a0,a0,-316 # 0xe718
    585c:	cddfe0ef          	jal	ra,0x4538
    5860:	f2dff06f          	j	0x578c
    5864:	00860613          	addi	a2,a2,8
    5868:	ff867613          	andi	a2,a2,-8
    586c:	37ab77b7          	lui	a5,0x37ab7
    5870:	00050813          	mv	a6,a0
    5874:	00279793          	slli	a5,a5,0x2
    5878:	ef860513          	addi	a0,a2,-264
    587c:	00050713          	mv	a4,a0
    5880:	eef78793          	addi	a5,a5,-273 # 0x37ab6eef
    5884:	00f73023          	sd	a5,0(a4)
    5888:	00870713          	addi	a4,a4,8
    588c:	fee61ce3          	bne	a2,a4,0x5884
    5890:	00018793          	mv	a5,gp
    5894:	f0f63823          	sd	a5,-240(a2)
    5898:	10850793          	addi	a5,a0,264
    589c:	fef63c23          	sd	a5,-8(a2)
    58a0:	000087b7          	lui	a5,0x8
    58a4:	88078793          	addi	a5,a5,-1920 # 0x7880
    58a8:	f0d63023          	sd	a3,-256(a2)
    58ac:	f4b63423          	sd	a1,-184(a2)
    58b0:	ef063c23          	sd	a6,-264(a2)
    58b4:	f0f63423          	sd	a5,-248(a2)
    58b8:	00008067          	ret
    58bc:	00014797          	auipc	a5,0x14
    58c0:	a4c78793          	addi	a5,a5,-1460 # 0x19308
    58c4:	0007b703          	ld	a4,0(a5)
    58c8:	00071663          	bnez	a4,0x58d4
    58cc:	00014717          	auipc	a4,0x14
    58d0:	a2a73623          	sd	a0,-1492(a4) # 0x192f8
    58d4:	00014717          	auipc	a4,0x14
    58d8:	a2b73623          	sd	a1,-1492(a4) # 0x19300
    58dc:	00100713          	li	a4,1
    58e0:	00e7b023          	sd	a4,0(a5)
    58e4:	00008067          	ret
    58e8:	fe010113          	addi	sp,sp,-32
    58ec:	00913423          	sd	s1,8(sp)
    58f0:	09053483          	ld	s1,144(a0)
    58f4:	00813823          	sd	s0,16(sp)
    58f8:	00113c23          	sd	ra,24(sp)
    58fc:	00050413          	mv	s0,a0
    5900:	00049e63          	bnez	s1,0x591c
    5904:	17100613          	li	a2,369
    5908:	00009597          	auipc	a1,0x9
    590c:	07858593          	addi	a1,a1,120 # 0xe980
    5910:	00009517          	auipc	a0,0x9
    5914:	f6050513          	addi	a0,a0,-160 # 0xe870
    5918:	dadfe0ef          	jal	ra,0x46c4
    591c:	0084d503          	lhu	a0,8(s1)
    5920:	00a4d703          	lhu	a4,10(s1)
    5924:	02e51a63          	bne	a0,a4,0x5958
    5928:	00c4a783          	lw	a5,12(s1)
    592c:	00000513          	li	a0,0
    5930:	00078a63          	beqz	a5,0x5944
    5934:	08843503          	ld	a0,136(s0)
    5938:	02a55513          	srli	a0,a0,0x2a
    593c:	03051513          	slli	a0,a0,0x30
    5940:	03055513          	srli	a0,a0,0x30
    5944:	01813083          	ld	ra,24(sp)
    5948:	01013403          	ld	s0,16(sp)
    594c:	00813483          	ld	s1,8(sp)
    5950:	02010113          	addi	sp,sp,32
    5954:	00008067          	ret
    5958:	00a77663          	bgeu	a4,a0,0x5964
    595c:	40e5053b          	subw	a0,a0,a4
    5960:	fe5ff06f          	j	0x5944
    5964:	08843783          	ld	a5,136(s0)
    5968:	40a7053b          	subw	a0,a4,a0
    596c:	02a7d793          	srli	a5,a5,0x2a
    5970:	0107979b          	slliw	a5,a5,0x10
    5974:	0107d79b          	srliw	a5,a5,0x10
    5978:	40a7853b          	subw	a0,a5,a0
    597c:	fc9ff06f          	j	0x5944
    5980:	ff010113          	addi	sp,sp,-16
    5984:	00813023          	sd	s0,0(sp)
    5988:	00113423          	sd	ra,8(sp)
    598c:	00050413          	mv	s0,a0
    5990:	00051e63          	bnez	a0,0x59ac
    5994:	24000613          	li	a2,576
    5998:	00009597          	auipc	a1,0x9
    599c:	03858593          	addi	a1,a1,56 # 0xe9d0
    59a0:	00008517          	auipc	a0,0x8
    59a4:	04050513          	addi	a0,a0,64 # 0xd9e0
    59a8:	d1dfe0ef          	jal	ra,0x46c4
    59ac:	08043783          	ld	a5,128(s0)
    59b0:	08043823          	sd	zero,144(s0)
    59b4:	08043c23          	sd	zero,152(s0)
    59b8:	0007b303          	ld	t1,0(a5)
    59bc:	00030e63          	beqz	t1,0x59d8
    59c0:	08840593          	addi	a1,s0,136
    59c4:	00040513          	mv	a0,s0
    59c8:	00013403          	ld	s0,0(sp)
    59cc:	00813083          	ld	ra,8(sp)
    59d0:	01010113          	addi	sp,sp,16
    59d4:	00030067          	jr	t1
    59d8:	00813083          	ld	ra,8(sp)
    59dc:	00013403          	ld	s0,0(sp)
    59e0:	00000513          	li	a0,0
    59e4:	01010113          	addi	sp,sp,16
    59e8:	00008067          	ret
    59ec:	fd010113          	addi	sp,sp,-48
    59f0:	02813023          	sd	s0,32(sp)
    59f4:	00913c23          	sd	s1,24(sp)
    59f8:	02113423          	sd	ra,40(sp)
    59fc:	01213823          	sd	s2,16(sp)
    5a00:	01313423          	sd	s3,8(sp)
    5a04:	01413023          	sd	s4,0(sp)
    5a08:	00050413          	mv	s0,a0
    5a0c:	00058493          	mv	s1,a1
    5a10:	00051e63          	bnez	a0,0x5a2c
    5a14:	25300613          	li	a2,595
    5a18:	00009597          	auipc	a1,0x9
    5a1c:	fc858593          	addi	a1,a1,-56 # 0xe9e0
    5a20:	00008517          	auipc	a0,0x8
    5a24:	fc050513          	addi	a0,a0,-64 # 0xd9e0
    5a28:	c9dfe0ef          	jal	ra,0x46c4
    5a2c:	2004f713          	andi	a4,s1,512
    5a30:	00070a63          	beqz	a4,0x5a44
    5a34:	02c45783          	lhu	a5,44(s0)
    5a38:	ff800513          	li	a0,-8
    5a3c:	2007f793          	andi	a5,a5,512
    5a40:	16078e63          	beqz	a5,0x5bbc
    5a44:	000017b7          	lui	a5,0x1
    5a48:	80078793          	addi	a5,a5,-2048 # 0x800
    5a4c:	00f4f9b3          	and	s3,s1,a5
    5a50:	00098a63          	beqz	s3,0x5a64
    5a54:	02c45683          	lhu	a3,44(s0)
    5a58:	ff800513          	li	a0,-8
    5a5c:	00d7f7b3          	and	a5,a5,a3
    5a60:	14078e63          	beqz	a5,0x5bbc
    5a64:	1004f793          	andi	a5,s1,256
    5a68:	00078a63          	beqz	a5,0x5a7c
    5a6c:	02c45683          	lhu	a3,44(s0)
    5a70:	ff800513          	li	a0,-8
    5a74:	1006f693          	andi	a3,a3,256
    5a78:	14068263          	beqz	a3,0x5bbc
    5a7c:	4004fa13          	andi	s4,s1,1024
    5a80:	000a0a63          	beqz	s4,0x5a94
    5a84:	02c45683          	lhu	a3,44(s0)
    5a88:	ff800513          	li	a0,-8
    5a8c:	4006f693          	andi	a3,a3,1024
    5a90:	12068663          	beqz	a3,0x5bbc
    5a94:	0404f693          	andi	a3,s1,64
    5a98:	04000913          	li	s2,64
    5a9c:	00069a63          	bnez	a3,0x5ab0
    5aa0:	02e45903          	lhu	s2,46(s0)
    5aa4:	04097913          	andi	s2,s2,64
    5aa8:	00090463          	beqz	s2,0x5ab0
    5aac:	04000913          	li	s2,64
    5ab0:	09043683          	ld	a3,144(s0)
    5ab4:	0ff4f493          	andi	s1,s1,255
    5ab8:	02941723          	sh	s1,46(s0)
    5abc:	1e069a63          	bnez	a3,0x5cb0
    5ac0:	10078e63          	beqz	a5,0x5bdc
    5ac4:	08843503          	ld	a0,136(s0)
    5ac8:	02a55513          	srli	a0,a0,0x2a
    5acc:	03051513          	slli	a0,a0,0x30
    5ad0:	03055513          	srli	a0,a0,0x30
    5ad4:	01050513          	addi	a0,a0,16
    5ad8:	934fb0ef          	jal	ra,0xc0c
    5adc:	00050493          	mv	s1,a0
    5ae0:	00051e63          	bnez	a0,0x5afc
    5ae4:	27200613          	li	a2,626
    5ae8:	00009597          	auipc	a1,0x9
    5aec:	ef858593          	addi	a1,a1,-264 # 0xe9e0
    5af0:	00009517          	auipc	a0,0x9
    5af4:	d8050513          	addi	a0,a0,-640 # 0xe870
    5af8:	bcdfe0ef          	jal	ra,0x46c4
    5afc:	08843603          	ld	a2,136(s0)
    5b00:	01048513          	addi	a0,s1,16
    5b04:	00000593          	li	a1,0
    5b08:	02a65613          	srli	a2,a2,0x2a
    5b0c:	03061613          	slli	a2,a2,0x30
    5b10:	03065613          	srli	a2,a2,0x30
    5b14:	00a4b023          	sd	a0,0(s1)
    5b18:	850fe0ef          	jal	ra,0x3b68
    5b1c:	0004b423          	sd	zero,8(s1)
    5b20:	02e45783          	lhu	a5,46(s0)
    5b24:	08943823          	sd	s1,144(s0)
    5b28:	10000613          	li	a2,256
    5b2c:	1007e793          	ori	a5,a5,256
    5b30:	02f41723          	sh	a5,46(s0)
    5b34:	08043783          	ld	a5,128(s0)
    5b38:	01000593          	li	a1,16
    5b3c:	00040513          	mv	a0,s0
    5b40:	0087b783          	ld	a5,8(a5)
    5b44:	000780e7          	jalr	a5
    5b48:	09843783          	ld	a5,152(s0)
    5b4c:	1e079663          	bnez	a5,0x5d38
    5b50:	160a0e63          	beqz	s4,0x5ccc
    5b54:	01800513          	li	a0,24
    5b58:	8b4fb0ef          	jal	ra,0xc0c
    5b5c:	00050493          	mv	s1,a0
    5b60:	00051e63          	bnez	a0,0x5b7c
    5b64:	2b100613          	li	a2,689
    5b68:	00009597          	auipc	a1,0x9
    5b6c:	e7858593          	addi	a1,a1,-392 # 0xe9e0
    5b70:	00009517          	auipc	a0,0x9
    5b74:	d3050513          	addi	a0,a0,-720 # 0xe8a0
    5b78:	b4dfe0ef          	jal	ra,0x46c4
    5b7c:	00048513          	mv	a0,s1
    5b80:	311000ef          	jal	ra,0x6690
    5b84:	02e45783          	lhu	a5,46(s0)
    5b88:	08943c23          	sd	s1,152(s0)
    5b8c:	40000613          	li	a2,1024
    5b90:	4007e793          	ori	a5,a5,1024
    5b94:	02f41723          	sh	a5,46(s0)
    5b98:	08043783          	ld	a5,128(s0)
    5b9c:	01000593          	li	a1,16
    5ba0:	0087b783          	ld	a5,8(a5)
    5ba4:	00040513          	mv	a0,s0
    5ba8:	000780e7          	jalr	a5
    5bac:	02e45783          	lhu	a5,46(s0)
    5bb0:	00000513          	li	a0,0
    5bb4:	00f96933          	or	s2,s2,a5
    5bb8:	03241723          	sh	s2,46(s0)
    5bbc:	02813083          	ld	ra,40(sp)
    5bc0:	02013403          	ld	s0,32(sp)
    5bc4:	01813483          	ld	s1,24(sp)
    5bc8:	01013903          	ld	s2,16(sp)
    5bcc:	00813983          	ld	s3,8(sp)
    5bd0:	00013a03          	ld	s4,0(sp)
    5bd4:	03010113          	addi	sp,sp,48
    5bd8:	00008067          	ret
    5bdc:	f60706e3          	beqz	a4,0x5b48
    5be0:	08c42703          	lw	a4,140(s0)
    5be4:	040007b7          	lui	a5,0x4000
    5be8:	c0078793          	addi	a5,a5,-1024 # 0x3fffc00
    5bec:	00e7f7b3          	and	a5,a5,a4
    5bf0:	04079263          	bnez	a5,0x5c34
    5bf4:	00400513          	li	a0,4
    5bf8:	814fb0ef          	jal	ra,0xc0c
    5bfc:	00050493          	mv	s1,a0
    5c00:	00051e63          	bnez	a0,0x5c1c
    5c04:	28500613          	li	a2,645
    5c08:	00009597          	auipc	a1,0x9
    5c0c:	dd858593          	addi	a1,a1,-552 # 0xe9e0
    5c10:	00009517          	auipc	a0,0x9
    5c14:	c7850513          	addi	a0,a0,-904 # 0xe888
    5c18:	aadfe0ef          	jal	ra,0x46c4
    5c1c:	0004a023          	sw	zero,0(s1)
    5c20:	08943823          	sd	s1,144(s0)
    5c24:	02e45783          	lhu	a5,46(s0)
    5c28:	2007e793          	ori	a5,a5,512
    5c2c:	02f41723          	sh	a5,46(s0)
    5c30:	f19ff06f          	j	0x5b48
    5c34:	08843503          	ld	a0,136(s0)
    5c38:	02a55513          	srli	a0,a0,0x2a
    5c3c:	03051513          	slli	a0,a0,0x30
    5c40:	03055513          	srli	a0,a0,0x30
    5c44:	01050513          	addi	a0,a0,16
    5c48:	fc5fa0ef          	jal	ra,0xc0c
    5c4c:	00050493          	mv	s1,a0
    5c50:	00051e63          	bnez	a0,0x5c6c
    5c54:	28e00613          	li	a2,654
    5c58:	00009597          	auipc	a1,0x9
    5c5c:	d8858593          	addi	a1,a1,-632 # 0xe9e0
    5c60:	00009517          	auipc	a0,0x9
    5c64:	c1050513          	addi	a0,a0,-1008 # 0xe870
    5c68:	a5dfe0ef          	jal	ra,0x46c4
    5c6c:	08843603          	ld	a2,136(s0)
    5c70:	01048513          	addi	a0,s1,16
    5c74:	00a4b023          	sd	a0,0(s1)
    5c78:	02a65613          	srli	a2,a2,0x2a
    5c7c:	03061613          	slli	a2,a2,0x30
    5c80:	03065613          	srli	a2,a2,0x30
    5c84:	00000593          	li	a1,0
    5c88:	ee1fd0ef          	jal	ra,0x3b68
    5c8c:	0004b423          	sd	zero,8(s1)
    5c90:	08043783          	ld	a5,128(s0)
    5c94:	08943823          	sd	s1,144(s0)
    5c98:	20000613          	li	a2,512
    5c9c:	0087b783          	ld	a5,8(a5)
    5ca0:	00300593          	li	a1,3
    5ca4:	00040513          	mv	a0,s0
    5ca8:	000780e7          	jalr	a5
    5cac:	f79ff06f          	j	0x5c24
    5cb0:	00078863          	beqz	a5,0x5cc0
    5cb4:	1004e493          	ori	s1,s1,256
    5cb8:	02941723          	sh	s1,46(s0)
    5cbc:	e8dff06f          	j	0x5b48
    5cc0:	e80704e3          	beqz	a4,0x5b48
    5cc4:	2004e493          	ori	s1,s1,512
    5cc8:	ff1ff06f          	j	0x5cb8
    5ccc:	ee0980e3          	beqz	s3,0x5bac
    5cd0:	04800513          	li	a0,72
    5cd4:	f39fa0ef          	jal	ra,0xc0c
    5cd8:	00050493          	mv	s1,a0
    5cdc:	00051e63          	bnez	a0,0x5cf8
    5ce0:	2c000613          	li	a2,704
    5ce4:	00009597          	auipc	a1,0x9
    5ce8:	cfc58593          	addi	a1,a1,-772 # 0xe9e0
    5cec:	00009517          	auipc	a0,0x9
    5cf0:	bcc50513          	addi	a0,a0,-1076 # 0xe8b8
    5cf4:	9d1fe0ef          	jal	ra,0x46c4
    5cf8:	00400613          	li	a2,4
    5cfc:	00800593          	li	a1,8
    5d00:	0004a023          	sw	zero,0(s1)
    5d04:	00000693          	li	a3,0
    5d08:	00848513          	addi	a0,s1,8
    5d0c:	33d000ef          	jal	ra,0x6848
    5d10:	02e45783          	lhu	a5,46(s0)
    5d14:	00001637          	lui	a2,0x1
    5d18:	80060613          	addi	a2,a2,-2048 # 0x800
    5d1c:	00c7e7b3          	or	a5,a5,a2
    5d20:	02f41723          	sh	a5,46(s0)
    5d24:	08043783          	ld	a5,128(s0)
    5d28:	08943c23          	sd	s1,152(s0)
    5d2c:	00300593          	li	a1,3
    5d30:	0087b783          	ld	a5,8(a5)
    5d34:	e71ff06f          	j	0x5ba4
    5d38:	02e45783          	lhu	a5,46(s0)
    5d3c:	000a0863          	beqz	s4,0x5d4c
    5d40:	4007e793          	ori	a5,a5,1024
    5d44:	02f41723          	sh	a5,46(s0)
    5d48:	e65ff06f          	j	0x5bac
    5d4c:	e60980e3          	beqz	s3,0x5bac
    5d50:	00001737          	lui	a4,0x1
    5d54:	80070713          	addi	a4,a4,-2048 # 0x800
    5d58:	00e7e7b3          	or	a5,a5,a4
    5d5c:	fe9ff06f          	j	0x5d44
    5d60:	fe010113          	addi	sp,sp,-32
    5d64:	00813823          	sd	s0,16(sp)
    5d68:	00913423          	sd	s1,8(sp)
    5d6c:	01213023          	sd	s2,0(sp)
    5d70:	00113c23          	sd	ra,24(sp)
    5d74:	00050413          	mv	s0,a0
    5d78:	00058913          	mv	s2,a1
    5d7c:	00060493          	mv	s1,a2
    5d80:	00051e63          	bnez	a0,0x5d9c
    5d84:	3dc00613          	li	a2,988
    5d88:	00009597          	auipc	a1,0x9
    5d8c:	c9858593          	addi	a1,a1,-872 # 0xea20
    5d90:	00008517          	auipc	a0,0x8
    5d94:	c5050513          	addi	a0,a0,-944 # 0xd9e0
    5d98:	92dfe0ef          	jal	ra,0x46c4
    5d9c:	00200793          	li	a5,2
    5da0:	02f90063          	beq	s2,a5,0x5dc0
    5da4:	00300793          	li	a5,3
    5da8:	04f90063          	beq	s2,a5,0x5de8
    5dac:	00100793          	li	a5,1
    5db0:	08f91c63          	bne	s2,a5,0x5e48
    5db4:	02c45783          	lhu	a5,44(s0)
    5db8:	fdf7f793          	andi	a5,a5,-33
    5dbc:	00c0006f          	j	0x5dc8
    5dc0:	02c45783          	lhu	a5,44(s0)
    5dc4:	0207e793          	ori	a5,a5,32
    5dc8:	02f41623          	sh	a5,44(s0)
    5dcc:	00000513          	li	a0,0
    5dd0:	01813083          	ld	ra,24(sp)
    5dd4:	01013403          	ld	s0,16(sp)
    5dd8:	00813483          	ld	s1,8(sp)
    5ddc:	00013903          	ld	s2,0(sp)
    5de0:	02010113          	addi	sp,sp,32
    5de4:	00008067          	ret
    5de8:	fe0482e3          	beqz	s1,0x5dcc
    5dec:	0044a703          	lw	a4,4(s1)
    5df0:	08843783          	ld	a5,136(s0)
    5df4:	03044683          	lbu	a3,48(s0)
    5df8:	00a7571b          	srliw	a4,a4,0xa
    5dfc:	02a7d793          	srli	a5,a5,0x2a
    5e00:	03071713          	slli	a4,a4,0x30
    5e04:	03079793          	slli	a5,a5,0x30
    5e08:	03075713          	srli	a4,a4,0x30
    5e0c:	0307d793          	srli	a5,a5,0x30
    5e10:	00f70663          	beq	a4,a5,0x5e1c
    5e14:	00700513          	li	a0,7
    5e18:	fa069ce3          	bnez	a3,0x5dd0
    5e1c:	0004a783          	lw	a5,0(s1)
    5e20:	08f42423          	sw	a5,136(s0)
    5e24:	0044a783          	lw	a5,4(s1)
    5e28:	08f42623          	sw	a5,140(s0)
    5e2c:	fa0680e3          	beqz	a3,0x5dcc
    5e30:	08043783          	ld	a5,128(s0)
    5e34:	00048593          	mv	a1,s1
    5e38:	00040513          	mv	a0,s0
    5e3c:	0007b783          	ld	a5,0(a5)
    5e40:	000780e7          	jalr	a5
    5e44:	f89ff06f          	j	0x5dcc
    5e48:	08043783          	ld	a5,128(s0)
    5e4c:	00040513          	mv	a0,s0
    5e50:	01013403          	ld	s0,16(sp)
    5e54:	01813083          	ld	ra,24(sp)
    5e58:	0087b303          	ld	t1,8(a5)
    5e5c:	00048613          	mv	a2,s1
    5e60:	00090593          	mv	a1,s2
    5e64:	00813483          	ld	s1,8(sp)
    5e68:	00013903          	ld	s2,0(sp)
    5e6c:	02010113          	addi	sp,sp,32
    5e70:	00030067          	jr	t1
    5e74:	fc010113          	addi	sp,sp,-64
    5e78:	02813823          	sd	s0,48(sp)
    5e7c:	02913423          	sd	s1,40(sp)
    5e80:	01313c23          	sd	s3,24(sp)
    5e84:	02113c23          	sd	ra,56(sp)
    5e88:	03213023          	sd	s2,32(sp)
    5e8c:	01413823          	sd	s4,16(sp)
    5e90:	01513423          	sd	s5,8(sp)
    5e94:	01613023          	sd	s6,0(sp)
    5e98:	00050413          	mv	s0,a0
    5e9c:	00060493          	mv	s1,a2
    5ea0:	00068993          	mv	s3,a3
    5ea4:	00051e63          	bnez	a0,0x5ec0
    5ea8:	36100613          	li	a2,865
    5eac:	00009597          	auipc	a1,0x9
    5eb0:	b6458593          	addi	a1,a1,-1180 # 0xea10
    5eb4:	00008517          	auipc	a0,0x8
    5eb8:	b2c50513          	addi	a0,a0,-1236 # 0xd9e0
    5ebc:	809fe0ef          	jal	ra,0x46c4
    5ec0:	04098263          	beqz	s3,0x5f04
    5ec4:	02e45783          	lhu	a5,46(s0)
    5ec8:	0009899b          	sext.w	s3,s3
    5ecc:	00098913          	mv	s2,s3
    5ed0:	4007f713          	andi	a4,a5,1024
    5ed4:	0a070e63          	beqz	a4,0x5f90
    5ed8:	09843a03          	ld	s4,152(s0)
    5edc:	000a1e63          	bnez	s4,0x5ef8
    5ee0:	14100613          	li	a2,321
    5ee4:	00009597          	auipc	a1,0x9
    5ee8:	a8c58593          	addi	a1,a1,-1396 # 0xe970
    5eec:	00009517          	auipc	a0,0x9
    5ef0:	9e450513          	addi	a0,a0,-1564 # 0xe8d0
    5ef4:	fd0fe0ef          	jal	ra,0x46c4
    5ef8:	00a00b13          	li	s6,10
    5efc:	fff00a93          	li	s5,-1
    5f00:	02091863          	bnez	s2,0x5f30
    5f04:	03813083          	ld	ra,56(sp)
    5f08:	03013403          	ld	s0,48(sp)
    5f0c:	02813483          	ld	s1,40(sp)
    5f10:	02013903          	ld	s2,32(sp)
    5f14:	01013a03          	ld	s4,16(sp)
    5f18:	00813a83          	ld	s5,8(sp)
    5f1c:	00013b03          	ld	s6,0(sp)
    5f20:	00098513          	mv	a0,s3
    5f24:	01813983          	ld	s3,24(sp)
    5f28:	04010113          	addi	sp,sp,64
    5f2c:	00008067          	ret
    5f30:	0004c783          	lbu	a5,0(s1)
    5f34:	03679c63          	bne	a5,s6,0x5f6c
    5f38:	02e45783          	lhu	a5,46(s0)
    5f3c:	0407f793          	andi	a5,a5,64
    5f40:	02078663          	beqz	a5,0x5f6c
    5f44:	08043783          	ld	a5,128(s0)
    5f48:	00d00593          	li	a1,13
    5f4c:	00040513          	mv	a0,s0
    5f50:	0107b783          	ld	a5,16(a5)
    5f54:	000780e7          	jalr	a5
    5f58:	01551a63          	bne	a0,s5,0x5f6c
    5f5c:	fff00593          	li	a1,-1
    5f60:	000a0513          	mv	a0,s4
    5f64:	77c000ef          	jal	ra,0x66e0
    5f68:	f99ff06f          	j	0x5f00
    5f6c:	08043783          	ld	a5,128(s0)
    5f70:	0004c583          	lbu	a1,0(s1)
    5f74:	00040513          	mv	a0,s0
    5f78:	0107b783          	ld	a5,16(a5)
    5f7c:	000780e7          	jalr	a5
    5f80:	fd550ee3          	beq	a0,s5,0x5f5c
    5f84:	00148493          	addi	s1,s1,1
    5f88:	fff9091b          	addiw	s2,s2,-1
    5f8c:	f75ff06f          	j	0x5f00
    5f90:	03479713          	slli	a4,a5,0x34
    5f94:	00a00a13          	li	s4,10
    5f98:	0a075a63          	bgez	a4,0x604c
    5f9c:	09843983          	ld	s3,152(s0)
    5fa0:	fff00693          	li	a3,-1
    5fa4:	00090613          	mv	a2,s2
    5fa8:	00048593          	mv	a1,s1
    5fac:	00898513          	addi	a0,s3,8
    5fb0:	169000ef          	jal	ra,0x6918
    5fb4:	04051463          	bnez	a0,0x5ffc
    5fb8:	8bcfa0ef          	jal	ra,0x74
    5fbc:	0009a703          	lw	a4,0(s3)
    5fc0:	00100793          	li	a5,1
    5fc4:	02f70863          	beq	a4,a5,0x5ff4
    5fc8:	00f9a023          	sw	a5,0(s3)
    5fcc:	8b0fa0ef          	jal	ra,0x7c
    5fd0:	08043783          	ld	a5,128(s0)
    5fd4:	00200693          	li	a3,2
    5fd8:	00090613          	mv	a2,s2
    5fdc:	0207b783          	ld	a5,32(a5)
    5fe0:	00048593          	mv	a1,s1
    5fe4:	00040513          	mv	a0,s0
    5fe8:	000780e7          	jalr	a5
    5fec:	00090993          	mv	s3,s2
    5ff0:	f15ff06f          	j	0x5f04
    5ff4:	888fa0ef          	jal	ra,0x7c
    5ff8:	ff5ff06f          	j	0x5fec
    5ffc:	b2dfd0ef          	jal	ra,0x3b28
    6000:	00000913          	li	s2,0
    6004:	fe9ff06f          	j	0x5fec
    6008:	0004c783          	lbu	a5,0(s1)
    600c:	03479263          	bne	a5,s4,0x6030
    6010:	02e45783          	lhu	a5,46(s0)
    6014:	0407f793          	andi	a5,a5,64
    6018:	00078c63          	beqz	a5,0x6030
    601c:	08043783          	ld	a5,128(s0)
    6020:	00d00593          	li	a1,13
    6024:	00040513          	mv	a0,s0
    6028:	0107b783          	ld	a5,16(a5)
    602c:	000780e7          	jalr	a5
    6030:	08043783          	ld	a5,128(s0)
    6034:	0004c583          	lbu	a1,0(s1)
    6038:	00040513          	mv	a0,s0
    603c:	0107b783          	ld	a5,16(a5)
    6040:	00148493          	addi	s1,s1,1
    6044:	fff9091b          	addiw	s2,s2,-1
    6048:	000780e7          	jalr	a5
    604c:	fa091ee3          	bnez	s2,0x6008
    6050:	eb5ff06f          	j	0x5f04
    6054:	fc010113          	addi	sp,sp,-64
    6058:	02813823          	sd	s0,48(sp)
    605c:	02913423          	sd	s1,40(sp)
    6060:	03213023          	sd	s2,32(sp)
    6064:	02113c23          	sd	ra,56(sp)
    6068:	01313c23          	sd	s3,24(sp)
    606c:	01413823          	sd	s4,16(sp)
    6070:	01513423          	sd	s5,8(sp)
    6074:	01613023          	sd	s6,0(sp)
    6078:	00050413          	mv	s0,a0
    607c:	00060913          	mv	s2,a2
    6080:	00068493          	mv	s1,a3
    6084:	00051e63          	bnez	a0,0x60a0
    6088:	34700613          	li	a2,839
    608c:	00009597          	auipc	a1,0x9
    6090:	97458593          	addi	a1,a1,-1676 # 0xea00
    6094:	00008517          	auipc	a0,0x8
    6098:	94c50513          	addi	a0,a0,-1716 # 0xd9e0
    609c:	e28fe0ef          	jal	ra,0x46c4
    60a0:	06048463          	beqz	s1,0x6108
    60a4:	02e45783          	lhu	a5,46(s0)
    60a8:	0004849b          	sext.w	s1,s1
    60ac:	1007f713          	andi	a4,a5,256
    60b0:	0c070e63          	beqz	a4,0x618c
    60b4:	09043983          	ld	s3,144(s0)
    60b8:	00099e63          	bnez	s3,0x60d4
    60bc:	11100613          	li	a2,273
    60c0:	00009597          	auipc	a1,0x9
    60c4:	8a058593          	addi	a1,a1,-1888 # 0xe960
    60c8:	00008517          	auipc	a0,0x8
    60cc:	7a850513          	addi	a0,a0,1960 # 0xe870
    60d0:	df4fe0ef          	jal	ra,0x46c4
    60d4:	00048a13          	mv	s4,s1
    60d8:	00100a93          	li	s5,1
    60dc:	020a0463          	beqz	s4,0x6104
    60e0:	f95f90ef          	jal	ra,0x74
    60e4:	00a9d783          	lhu	a5,10(s3)
    60e8:	0089d703          	lhu	a4,8(s3)
    60ec:	00c9a683          	lw	a3,12(s3)
    60f0:	00050613          	mv	a2,a0
    60f4:	04f71063          	bne	a4,a5,0x6134
    60f8:	0006871b          	sext.w	a4,a3
    60fc:	02071c63          	bnez	a4,0x6134
    6100:	f7df90ef          	jal	ra,0x7c
    6104:	414484bb          	subw	s1,s1,s4
    6108:	03813083          	ld	ra,56(sp)
    610c:	03013403          	ld	s0,48(sp)
    6110:	02013903          	ld	s2,32(sp)
    6114:	01813983          	ld	s3,24(sp)
    6118:	01013a03          	ld	s4,16(sp)
    611c:	00813a83          	ld	s5,8(sp)
    6120:	00013b03          	ld	s6,0(sp)
    6124:	00048513          	mv	a0,s1
    6128:	02813483          	ld	s1,40(sp)
    612c:	04010113          	addi	sp,sp,64
    6130:	00008067          	ret
    6134:	0009b703          	ld	a4,0(s3)
    6138:	00f70733          	add	a4,a4,a5
    613c:	00074b03          	lbu	s6,0(a4)
    6140:	08843703          	ld	a4,136(s0)
    6144:	0017879b          	addiw	a5,a5,1
    6148:	03079793          	slli	a5,a5,0x30
    614c:	02a75713          	srli	a4,a4,0x2a
    6150:	0307d793          	srli	a5,a5,0x30
    6154:	03071713          	slli	a4,a4,0x30
    6158:	00f99523          	sh	a5,10(s3)
    615c:	03075713          	srli	a4,a4,0x30
    6160:	00e7e463          	bltu	a5,a4,0x6168
    6164:	00099523          	sh	zero,10(s3)
    6168:	0006869b          	sext.w	a3,a3
    616c:	01569463          	bne	a3,s5,0x6174
    6170:	0009a623          	sw	zero,12(s3)
    6174:	00060513          	mv	a0,a2
    6178:	f05f90ef          	jal	ra,0x7c
    617c:	00190913          	addi	s2,s2,1
    6180:	ff690fa3          	sb	s6,-1(s2)
    6184:	fffa0a1b          	addiw	s4,s4,-1
    6188:	f55ff06f          	j	0x60dc
    618c:	2007f793          	andi	a5,a5,512
    6190:	00048993          	mv	s3,s1
    6194:	04079463          	bnez	a5,0x61dc
    6198:	fff00a13          	li	s4,-1
    619c:	00a00a93          	li	s5,10
    61a0:	02098a63          	beqz	s3,0x61d4
    61a4:	08043783          	ld	a5,128(s0)
    61a8:	00040513          	mv	a0,s0
    61ac:	0187b783          	ld	a5,24(a5)
    61b0:	000780e7          	jalr	a5
    61b4:	03450063          	beq	a0,s4,0x61d4
    61b8:	00a90023          	sb	a0,0(s2)
    61bc:	02e45783          	lhu	a5,46(s0)
    61c0:	00190913          	addi	s2,s2,1
    61c4:	fff9899b          	addiw	s3,s3,-1
    61c8:	0407f793          	andi	a5,a5,64
    61cc:	fc078ae3          	beqz	a5,0x61a0
    61d0:	fd5518e3          	bne	a0,s5,0x61a0
    61d4:	413484bb          	subw	s1,s1,s3
    61d8:	f31ff06f          	j	0x6108
    61dc:	00091e63          	bnez	s2,0x61f8
    61e0:	1df00613          	li	a2,479
    61e4:	00008597          	auipc	a1,0x8
    61e8:	7dc58593          	addi	a1,a1,2012 # 0xe9c0
    61ec:	00008517          	auipc	a0,0x8
    61f0:	6f450513          	addi	a0,a0,1780 # 0xe8e0
    61f4:	cd0fe0ef          	jal	ra,0x46c4
    61f8:	e7df90ef          	jal	ra,0x74
    61fc:	08c42703          	lw	a4,140(s0)
    6200:	040007b7          	lui	a5,0x4000
    6204:	c0078793          	addi	a5,a5,-1024 # 0x3fffc00
    6208:	00e7f7b3          	and	a5,a5,a4
    620c:	09043a03          	ld	s4,144(s0)
    6210:	00050a93          	mv	s5,a0
    6214:	08079a63          	bnez	a5,0x62a8
    6218:	000a1e63          	bnez	s4,0x6234
    621c:	1e900613          	li	a2,489
    6220:	00008597          	auipc	a1,0x8
    6224:	7a058593          	addi	a1,a1,1952 # 0xe9c0
    6228:	00008517          	auipc	a0,0x8
    622c:	66050513          	addi	a0,a0,1632 # 0xe888
    6230:	c94fe0ef          	jal	ra,0x46c4
    6234:	000a2703          	lw	a4,0(s4)
    6238:	00100793          	li	a5,1
    623c:	ff900993          	li	s3,-7
    6240:	04f70663          	beq	a4,a5,0x628c
    6244:	00fa2023          	sw	a5,0(s4)
    6248:	08043783          	ld	a5,128(s0)
    624c:	0207b783          	ld	a5,32(a5)
    6250:	00079e63          	bnez	a5,0x626c
    6254:	1ee00613          	li	a2,494
    6258:	00008597          	auipc	a1,0x8
    625c:	76858593          	addi	a1,a1,1896 # 0xe9c0
    6260:	00008517          	auipc	a0,0x8
    6264:	6b050513          	addi	a0,a0,1712 # 0xe910
    6268:	c5cfe0ef          	jal	ra,0x46c4
    626c:	08043783          	ld	a5,128(s0)
    6270:	00100693          	li	a3,1
    6274:	00048613          	mv	a2,s1
    6278:	0207b783          	ld	a5,32(a5)
    627c:	00090593          	mv	a1,s2
    6280:	00040513          	mv	a0,s0
    6284:	000780e7          	jalr	a5
    6288:	00000993          	li	s3,0
    628c:	000a8513          	mv	a0,s5
    6290:	dedf90ef          	jal	ra,0x7c
    6294:	e6098ae3          	beqz	s3,0x6108
    6298:	00098513          	mv	a0,s3
    629c:	88dfd0ef          	jal	ra,0x3b28
    62a0:	00000493          	li	s1,0
    62a4:	e65ff06f          	j	0x6108
    62a8:	00040513          	mv	a0,s0
    62ac:	e3cff0ef          	jal	ra,0x58e8
    62b0:	00050993          	mv	s3,a0
    62b4:	000a1e63          	bnez	s4,0x62d0
    62b8:	1fe00613          	li	a2,510
    62bc:	00008597          	auipc	a1,0x8
    62c0:	70458593          	addi	a1,a1,1796 # 0xe9c0
    62c4:	00008517          	auipc	a0,0x8
    62c8:	5ac50513          	addi	a0,a0,1452 # 0xe870
    62cc:	bf8fe0ef          	jal	ra,0x46c4
    62d0:	0009879b          	sext.w	a5,s3
    62d4:	00f4d463          	bge	s1,a5,0x62dc
    62d8:	00048993          	mv	s3,s1
    62dc:	08843783          	ld	a5,136(s0)
    62e0:	00aa5603          	lhu	a2,10(s4)
    62e4:	000a3583          	ld	a1,0(s4)
    62e8:	02a7d793          	srli	a5,a5,0x2a
    62ec:	03079793          	slli	a5,a5,0x30
    62f0:	0307d793          	srli	a5,a5,0x30
    62f4:	01360733          	add	a4,a2,s3
    62f8:	00c585b3          	add	a1,a1,a2
    62fc:	0af77263          	bgeu	a4,a5,0x63a0
    6300:	00098613          	mv	a2,s3
    6304:	00090513          	mv	a0,s2
    6308:	90dfd0ef          	jal	ra,0x3c14
    630c:	09043483          	ld	s1,144(s0)
    6310:	00049e63          	bnez	s1,0x632c
    6314:	19c00613          	li	a2,412
    6318:	00008597          	auipc	a1,0x8
    631c:	68858593          	addi	a1,a1,1672 # 0xe9a0
    6320:	00008517          	auipc	a0,0x8
    6324:	55050513          	addi	a0,a0,1360 # 0xe870
    6328:	b9cfe0ef          	jal	ra,0x46c4
    632c:	00040513          	mv	a0,s0
    6330:	db8ff0ef          	jal	ra,0x58e8
    6334:	01357e63          	bgeu	a0,s3,0x6350
    6338:	19d00613          	li	a2,413
    633c:	00008597          	auipc	a1,0x8
    6340:	66458593          	addi	a1,a1,1636 # 0xe9a0
    6344:	00008517          	auipc	a0,0x8
    6348:	5f450513          	addi	a0,a0,1524 # 0xe938
    634c:	b78fe0ef          	jal	ra,0x46c4
    6350:	00c4a783          	lw	a5,12(s1)
    6354:	00078663          	beqz	a5,0x6360
    6358:	00098463          	beqz	s3,0x6360
    635c:	0004a623          	sw	zero,12(s1)
    6360:	00a4d503          	lhu	a0,10(s1)
    6364:	08843583          	ld	a1,136(s0)
    6368:	013507bb          	addw	a5,a0,s3
    636c:	03079513          	slli	a0,a5,0x30
    6370:	02a5d593          	srli	a1,a1,0x2a
    6374:	03055513          	srli	a0,a0,0x30
    6378:	03059593          	slli	a1,a1,0x30
    637c:	00a49523          	sh	a0,10(s1)
    6380:	0305d593          	srli	a1,a1,0x30
    6384:	00b56663          	bltu	a0,a1,0x6390
    6388:	ed1f90ef          	jal	ra,0x258
    638c:	00a49523          	sh	a0,10(s1)
    6390:	000a8513          	mv	a0,s5
    6394:	ce9f90ef          	jal	ra,0x7c
    6398:	0009849b          	sext.w	s1,s3
    639c:	d6dff06f          	j	0x6108
    63a0:	40c7863b          	subw	a2,a5,a2
    63a4:	00090513          	mv	a0,s2
    63a8:	86dfd0ef          	jal	ra,0x3c14
    63ac:	08843783          	ld	a5,136(s0)
    63b0:	00aa5503          	lhu	a0,10(s4)
    63b4:	000a3583          	ld	a1,0(s4)
    63b8:	02a7d793          	srli	a5,a5,0x2a
    63bc:	03079793          	slli	a5,a5,0x30
    63c0:	0307d793          	srli	a5,a5,0x30
    63c4:	40f50633          	sub	a2,a0,a5
    63c8:	40a78533          	sub	a0,a5,a0
    63cc:	01360633          	add	a2,a2,s3
    63d0:	00a90533          	add	a0,s2,a0
    63d4:	f35ff06f          	j	0x6308
    63d8:	fe010113          	addi	sp,sp,-32
    63dc:	00813823          	sd	s0,16(sp)
    63e0:	00113c23          	sd	ra,24(sp)
    63e4:	00913423          	sd	s1,8(sp)
    63e8:	00050413          	mv	s0,a0
    63ec:	00051e63          	bnez	a0,0x6408
    63f0:	2e400613          	li	a2,740
    63f4:	00008597          	auipc	a1,0x8
    63f8:	5fc58593          	addi	a1,a1,1532 # 0xe9f0
    63fc:	00007517          	auipc	a0,0x7
    6400:	5e450513          	addi	a0,a0,1508 # 0xd9e0
    6404:	ac0fe0ef          	jal	ra,0x46c4
    6408:	03044703          	lbu	a4,48(s0)
    640c:	00100793          	li	a5,1
    6410:	0ce7e663          	bltu	a5,a4,0x64dc
    6414:	02e45783          	lhu	a5,46(s0)
    6418:	08043703          	ld	a4,128(s0)
    641c:	1007f693          	andi	a3,a5,256
    6420:	00873703          	ld	a4,8(a4)
    6424:	0c068863          	beqz	a3,0x64f4
    6428:	10000613          	li	a2,256
    642c:	01100593          	li	a1,17
    6430:	00040513          	mv	a0,s0
    6434:	000700e7          	jalr	a4
    6438:	02e45783          	lhu	a5,46(s0)
    643c:	09043483          	ld	s1,144(s0)
    6440:	2f300613          	li	a2,755
    6444:	eff7f793          	andi	a5,a5,-257
    6448:	02f41723          	sh	a5,46(s0)
    644c:	10048663          	beqz	s1,0x6558
    6450:	00048513          	mv	a0,s1
    6454:	b09fa0ef          	jal	ra,0xf5c
    6458:	08043823          	sd	zero,144(s0)
    645c:	02e45783          	lhu	a5,46(s0)
    6460:	08043703          	ld	a4,128(s0)
    6464:	4007f693          	andi	a3,a5,1024
    6468:	00873703          	ld	a4,8(a4)
    646c:	10068063          	beqz	a3,0x656c
    6470:	40000613          	li	a2,1024
    6474:	01100593          	li	a1,17
    6478:	00040513          	mv	a0,s0
    647c:	000700e7          	jalr	a4
    6480:	02e45783          	lhu	a5,46(s0)
    6484:	09843483          	ld	s1,152(s0)
    6488:	bff7f793          	andi	a5,a5,-1025
    648c:	02f41723          	sh	a5,46(s0)
    6490:	00049e63          	bnez	s1,0x64ac
    6494:	31f00613          	li	a2,799
    6498:	00008597          	auipc	a1,0x8
    649c:	55858593          	addi	a1,a1,1368 # 0xe9f0
    64a0:	00008517          	auipc	a0,0x8
    64a4:	40050513          	addi	a0,a0,1024 # 0xe8a0
    64a8:	a1cfe0ef          	jal	ra,0x46c4
    64ac:	00048513          	mv	a0,s1
    64b0:	aadfa0ef          	jal	ra,0xf5c
    64b4:	08043c23          	sd	zero,152(s0)
    64b8:	08043783          	ld	a5,128(s0)
    64bc:	00000613          	li	a2,0
    64c0:	00400593          	li	a1,4
    64c4:	0087b783          	ld	a5,8(a5)
    64c8:	00040513          	mv	a0,s0
    64cc:	000780e7          	jalr	a5
    64d0:	02c45783          	lhu	a5,44(s0)
    64d4:	fef7f793          	andi	a5,a5,-17
    64d8:	02f41623          	sh	a5,44(s0)
    64dc:	01813083          	ld	ra,24(sp)
    64e0:	01013403          	ld	s0,16(sp)
    64e4:	00813483          	ld	s1,8(sp)
    64e8:	00000513          	li	a0,0
    64ec:	02010113          	addi	sp,sp,32
    64f0:	00008067          	ret
    64f4:	2007f793          	andi	a5,a5,512
    64f8:	f60782e3          	beqz	a5,0x645c
    64fc:	20000613          	li	a2,512
    6500:	01100593          	li	a1,17
    6504:	00040513          	mv	a0,s0
    6508:	000700e7          	jalr	a4
    650c:	02e45783          	lhu	a5,46(s0)
    6510:	08c42703          	lw	a4,140(s0)
    6514:	09043483          	ld	s1,144(s0)
    6518:	dff7f793          	andi	a5,a5,-513
    651c:	02f41723          	sh	a5,46(s0)
    6520:	040007b7          	lui	a5,0x4000
    6524:	c0078793          	addi	a5,a5,-1024 # 0x3fffc00
    6528:	00e7f7b3          	and	a5,a5,a4
    652c:	02079263          	bnez	a5,0x6550
    6530:	f20490e3          	bnez	s1,0x6450
    6534:	30500613          	li	a2,773
    6538:	00008597          	auipc	a1,0x8
    653c:	4b858593          	addi	a1,a1,1208 # 0xe9f0
    6540:	00008517          	auipc	a0,0x8
    6544:	34850513          	addi	a0,a0,840 # 0xe888
    6548:	97cfe0ef          	jal	ra,0x46c4
    654c:	f05ff06f          	j	0x6450
    6550:	f00490e3          	bnez	s1,0x6450
    6554:	30e00613          	li	a2,782
    6558:	00008597          	auipc	a1,0x8
    655c:	49858593          	addi	a1,a1,1176 # 0xe9f0
    6560:	00008517          	auipc	a0,0x8
    6564:	31050513          	addi	a0,a0,784 # 0xe870
    6568:	fe1ff06f          	j	0x6548
    656c:	00001637          	lui	a2,0x1
    6570:	80060613          	addi	a2,a2,-2048 # 0x800
    6574:	00c7f7b3          	and	a5,a5,a2
    6578:	f40780e3          	beqz	a5,0x64b8
    657c:	01100593          	li	a1,17
    6580:	00040513          	mv	a0,s0
    6584:	000700e7          	jalr	a4
    6588:	02e45783          	lhu	a5,46(s0)
    658c:	fffff737          	lui	a4,0xfffff
    6590:	7ff70713          	addi	a4,a4,2047 # 0xfffffffffffff7ff
    6594:	09843483          	ld	s1,152(s0)
    6598:	00e7f7b3          	and	a5,a5,a4
    659c:	02f41723          	sh	a5,46(s0)
    65a0:	00049e63          	bnez	s1,0x65bc
    65a4:	33000613          	li	a2,816
    65a8:	00008597          	auipc	a1,0x8
    65ac:	44858593          	addi	a1,a1,1096 # 0xe9f0
    65b0:	00008517          	auipc	a0,0x8
    65b4:	30850513          	addi	a0,a0,776 # 0xe8b8
    65b8:	90cfe0ef          	jal	ra,0x46c4
    65bc:	00848513          	addi	a0,s1,8
    65c0:	700000ef          	jal	ra,0x6cc0
    65c4:	ee9ff06f          	j	0x64ac
    65c8:	fd010113          	addi	sp,sp,-48
    65cc:	02813023          	sd	s0,32(sp)
    65d0:	00913c23          	sd	s1,24(sp)
    65d4:	01213823          	sd	s2,16(sp)
    65d8:	01313423          	sd	s3,8(sp)
    65dc:	02113423          	sd	ra,40(sp)
    65e0:	00050413          	mv	s0,a0
    65e4:	00058493          	mv	s1,a1
    65e8:	00060913          	mv	s2,a2
    65ec:	00068993          	mv	s3,a3
    65f0:	00051e63          	bnez	a0,0x660c
    65f4:	49b00613          	li	a2,1179
    65f8:	00008597          	auipc	a1,0x8
    65fc:	44058593          	addi	a1,a1,1088 # 0xea38
    6600:	00007517          	auipc	a0,0x7
    6604:	a3050513          	addi	a0,a0,-1488 # 0xd030
    6608:	8bcfe0ef          	jal	ra,0x46c4
    660c:	fffff797          	auipc	a5,0xfffff
    6610:	37478793          	addi	a5,a5,884 # 0x5980
    6614:	04f43423          	sd	a5,72(s0)
    6618:	fffff797          	auipc	a5,0xfffff
    661c:	3d478793          	addi	a5,a5,980 # 0x59ec
    6620:	04f43823          	sd	a5,80(s0)
    6624:	00000797          	auipc	a5,0x0
    6628:	db478793          	addi	a5,a5,-588 # 0x63d8
    662c:	04f43c23          	sd	a5,88(s0)
    6630:	00000797          	auipc	a5,0x0
    6634:	a2478793          	addi	a5,a5,-1500 # 0x6054
    6638:	06f43023          	sd	a5,96(s0)
    663c:	00000797          	auipc	a5,0x0
    6640:	83878793          	addi	a5,a5,-1992 # 0x5e74
    6644:	06f43423          	sd	a5,104(s0)
    6648:	fffff797          	auipc	a5,0xfffff
    664c:	71878793          	addi	a5,a5,1816 # 0x5d60
    6650:	07343c23          	sd	s3,120(s0)
    6654:	02042423          	sw	zero,40(s0)
    6658:	02043c23          	sd	zero,56(s0)
    665c:	04043023          	sd	zero,64(s0)
    6660:	06f43823          	sd	a5,112(s0)
    6664:	00040513          	mv	a0,s0
    6668:	02013403          	ld	s0,32(sp)
    666c:	02813083          	ld	ra,40(sp)
    6670:	00813983          	ld	s3,8(sp)
    6674:	03091613          	slli	a2,s2,0x30
    6678:	00048593          	mv	a1,s1
    667c:	01013903          	ld	s2,16(sp)
    6680:	01813483          	ld	s1,24(sp)
    6684:	03065613          	srli	a2,a2,0x30
    6688:	03010113          	addi	sp,sp,48
    668c:	d18fc06f          	j	0x2ba4
    6690:	ff010113          	addi	sp,sp,-16
    6694:	00813023          	sd	s0,0(sp)
    6698:	00113423          	sd	ra,8(sp)
    669c:	00050413          	mv	s0,a0
    66a0:	00051e63          	bnez	a0,0x66bc
    66a4:	01500613          	li	a2,21
    66a8:	00008597          	auipc	a1,0x8
    66ac:	3f058593          	addi	a1,a1,1008 # 0xea98
    66b0:	00008517          	auipc	a0,0x8
    66b4:	3a050513          	addi	a0,a0,928 # 0xea50
    66b8:	80cfe0ef          	jal	ra,0x46c4
    66bc:	9b9f90ef          	jal	ra,0x74
    66c0:	00840793          	addi	a5,s0,8
    66c4:	00042023          	sw	zero,0(s0)
    66c8:	00f43823          	sd	a5,16(s0)
    66cc:	00f43423          	sd	a5,8(s0)
    66d0:	00013403          	ld	s0,0(sp)
    66d4:	00813083          	ld	ra,8(sp)
    66d8:	01010113          	addi	sp,sp,16
    66dc:	9a1f906f          	j	0x7c
    66e0:	fc010113          	addi	sp,sp,-64
    66e4:	02813823          	sd	s0,48(sp)
    66e8:	02113c23          	sd	ra,56(sp)
    66ec:	02913423          	sd	s1,40(sp)
    66f0:	03213023          	sd	s2,32(sp)
    66f4:	01313c23          	sd	s3,24(sp)
    66f8:	01413823          	sd	s4,16(sp)
    66fc:	00b12623          	sw	a1,12(sp)
    6700:	00050413          	mv	s0,a0
    6704:	00051e63          	bnez	a0,0x6720
    6708:	02400613          	li	a2,36
    670c:	00008597          	auipc	a1,0x8
    6710:	3a458593          	addi	a1,a1,932 # 0xeab0
    6714:	00008517          	auipc	a0,0x8
    6718:	33c50513          	addi	a0,a0,828 # 0xea50
    671c:	fa9fd0ef          	jal	ra,0x46c4
    6720:	935fb0ef          	jal	ra,0x2054
    6724:	00050493          	mv	s1,a0
    6728:	94df90ef          	jal	ra,0x74
    672c:	00042703          	lw	a4,0(s0)
    6730:	00100793          	li	a5,1
    6734:	00050913          	mv	s2,a0
    6738:	10f70463          	beq	a4,a5,0x6840
    673c:	00843783          	ld	a5,8(s0)
    6740:	00840a13          	addi	s4,s0,8
    6744:	00fa0e63          	beq	s4,a5,0x6760
    6748:	02d00613          	li	a2,45
    674c:	00008597          	auipc	a1,0x8
    6750:	36458593          	addi	a1,a1,868 # 0xeab0
    6754:	00008517          	auipc	a0,0x8
    6758:	31450513          	addi	a0,a0,788 # 0xea68
    675c:	f69fd0ef          	jal	ra,0x46c4
    6760:	00c12783          	lw	a5,12(sp)
    6764:	ffe00993          	li	s3,-2
    6768:	0a078663          	beqz	a5,0x6814
    676c:	0604b023          	sd	zero,96(s1)
    6770:	00048513          	mv	a0,s1
    6774:	b79fb0ef          	jal	ra,0x22ec
    6778:	01043703          	ld	a4,16(s0)
    677c:	02848793          	addi	a5,s1,40
    6780:	00f73023          	sd	a5,0(a4)
    6784:	02e4b823          	sd	a4,48(s1)
    6788:	00f43823          	sd	a5,16(s0)
    678c:	0344b423          	sd	s4,40(s1)
    6790:	8e5f90ef          	jal	ra,0x74
    6794:	00050993          	mv	s3,a0
    6798:	d0cfb0ef          	jal	ra,0x1ca4
    679c:	02050863          	beqz	a0,0x67cc
    67a0:	00008597          	auipc	a1,0x8
    67a4:	31058593          	addi	a1,a1,784 # 0xeab0
    67a8:	00007517          	auipc	a0,0x7
    67ac:	b2050513          	addi	a0,a0,-1248 # 0xd2c8
    67b0:	d89fd0ef          	jal	ra,0x4538
    67b4:	04000613          	li	a2,64
    67b8:	00008597          	auipc	a1,0x8
    67bc:	2f858593          	addi	a1,a1,760 # 0xeab0
    67c0:	00007517          	auipc	a0,0x7
    67c4:	b3050513          	addi	a0,a0,-1232 # 0xd2f0
    67c8:	efdfd0ef          	jal	ra,0x46c4
    67cc:	00098513          	mv	a0,s3
    67d0:	8adf90ef          	jal	ra,0x7c
    67d4:	00c12783          	lw	a5,12(sp)
    67d8:	02f05063          	blez	a5,0x67f8
    67dc:	08848993          	addi	s3,s1,136
    67e0:	00c10613          	addi	a2,sp,12
    67e4:	00000593          	li	a1,0
    67e8:	00098513          	mv	a0,s3
    67ec:	f59fa0ef          	jal	ra,0x1744
    67f0:	00098513          	mv	a0,s3
    67f4:	d01fa0ef          	jal	ra,0x14f4
    67f8:	00090513          	mv	a0,s2
    67fc:	881f90ef          	jal	ra,0x7c
    6800:	988fc0ef          	jal	ra,0x2988
    6804:	0604b983          	ld	s3,96(s1)
    6808:	86df90ef          	jal	ra,0x74
    680c:	00050913          	mv	s2,a0
    6810:	00042023          	sw	zero,0(s0)
    6814:	00090513          	mv	a0,s2
    6818:	865f90ef          	jal	ra,0x7c
    681c:	03813083          	ld	ra,56(sp)
    6820:	03013403          	ld	s0,48(sp)
    6824:	02813483          	ld	s1,40(sp)
    6828:	02013903          	ld	s2,32(sp)
    682c:	01013a03          	ld	s4,16(sp)
    6830:	00098513          	mv	a0,s3
    6834:	01813983          	ld	s3,24(sp)
    6838:	04010113          	addi	sp,sp,64
    683c:	00008067          	ret
    6840:	00000993          	li	s3,0
    6844:	fcdff06f          	j	0x6810
    6848:	fd010113          	addi	sp,sp,-48
    684c:	02813023          	sd	s0,32(sp)
    6850:	00913c23          	sd	s1,24(sp)
    6854:	01213823          	sd	s2,16(sp)
    6858:	01313423          	sd	s3,8(sp)
    685c:	02113423          	sd	ra,40(sp)
    6860:	00050413          	mv	s0,a0
    6864:	00058493          	mv	s1,a1
    6868:	00060913          	mv	s2,a2
    686c:	00068993          	mv	s3,a3
    6870:	00051e63          	bnez	a0,0x688c
    6874:	01e00613          	li	a2,30
    6878:	00008597          	auipc	a1,0x8
    687c:	29858593          	addi	a1,a1,664 # 0xeb10
    6880:	00008517          	auipc	a0,0x8
    6884:	24850513          	addi	a0,a0,584 # 0xeac8
    6888:	e3dfd0ef          	jal	ra,0x46c4
    688c:	00049e63          	bnez	s1,0x68a8
    6890:	01f00613          	li	a2,31
    6894:	00008597          	auipc	a1,0x8
    6898:	27c58593          	addi	a1,a1,636 # 0xeb10
    689c:	00008517          	auipc	a0,0x8
    68a0:	24450513          	addi	a0,a0,580 # 0xeae0
    68a4:	e21fd0ef          	jal	ra,0x46c4
    68a8:	bead17b7          	lui	a5,0xbead1
    68ac:	e0e7879b          	addiw	a5,a5,-498
    68b0:	00f42023          	sw	a5,0(s0)
    68b4:	000087b7          	lui	a5,0x8
    68b8:	00f42423          	sw	a5,8(s0)
    68bc:	01840793          	addi	a5,s0,24
    68c0:	02f43023          	sd	a5,32(s0)
    68c4:	00f43c23          	sd	a5,24(s0)
    68c8:	02840793          	addi	a5,s0,40
    68cc:	02f43823          	sd	a5,48(s0)
    68d0:	02f43423          	sd	a5,40(s0)
    68d4:	03343c23          	sd	s3,56(s0)
    68d8:	00941223          	sh	s1,4(s0)
    68dc:	01241323          	sh	s2,6(s0)
    68e0:	00449513          	slli	a0,s1,0x4
    68e4:	b28fa0ef          	jal	ra,0xc0c
    68e8:	00050793          	mv	a5,a0
    68ec:	00a43823          	sd	a0,16(s0)
    68f0:	00000513          	li	a0,0
    68f4:	00079463          	bnez	a5,0x68fc
    68f8:	ffb00513          	li	a0,-5
    68fc:	02813083          	ld	ra,40(sp)
    6900:	02013403          	ld	s0,32(sp)
    6904:	01813483          	ld	s1,24(sp)
    6908:	01013903          	ld	s2,16(sp)
    690c:	00813983          	ld	s3,8(sp)
    6910:	03010113          	addi	sp,sp,48
    6914:	00008067          	ret
    6918:	f8010113          	addi	sp,sp,-128
    691c:	06813823          	sd	s0,112(sp)
    6920:	05413823          	sd	s4,80(sp)
    6924:	05513423          	sd	s5,72(sp)
    6928:	06113c23          	sd	ra,120(sp)
    692c:	06913423          	sd	s1,104(sp)
    6930:	07213023          	sd	s2,96(sp)
    6934:	05313c23          	sd	s3,88(sp)
    6938:	05613023          	sd	s6,64(sp)
    693c:	03713c23          	sd	s7,56(sp)
    6940:	03813823          	sd	s8,48(sp)
    6944:	03913423          	sd	s9,40(sp)
    6948:	03a13023          	sd	s10,32(sp)
    694c:	01b13c23          	sd	s11,24(sp)
    6950:	00d12623          	sw	a3,12(sp)
    6954:	00050413          	mv	s0,a0
    6958:	00058a93          	mv	s5,a1
    695c:	00060a13          	mv	s4,a2
    6960:	00051e63          	bnez	a0,0x697c
    6964:	04200613          	li	a2,66
    6968:	00008597          	auipc	a1,0x8
    696c:	1c058593          	addi	a1,a1,448 # 0xeb28
    6970:	00008517          	auipc	a0,0x8
    6974:	15850513          	addi	a0,a0,344 # 0xeac8
    6978:	d4dfd0ef          	jal	ra,0x46c4
    697c:	00042703          	lw	a4,0(s0)
    6980:	bead17b7          	lui	a5,0xbead1
    6984:	e0e78793          	addi	a5,a5,-498 # 0xffffffffbead0e0e
    6988:	00f70e63          	beq	a4,a5,0x69a4
    698c:	04300613          	li	a2,67
    6990:	00008597          	auipc	a1,0x8
    6994:	19858593          	addi	a1,a1,408 # 0xeb28
    6998:	00008517          	auipc	a0,0x8
    699c:	15850513          	addi	a0,a0,344 # 0xeaf0
    69a0:	d25fd0ef          	jal	ra,0x46c4
    69a4:	eb0fb0ef          	jal	ra,0x2054
    69a8:	00050913          	mv	s2,a0
    69ac:	ec8f90ef          	jal	ra,0x74
    69b0:	00050493          	mv	s1,a0
    69b4:	00008b17          	auipc	s6,0x8
    69b8:	174b0b13          	addi	s6,s6,372 # 0xeb28
    69bc:	00007c97          	auipc	s9,0x7
    69c0:	90cc8c93          	addi	s9,s9,-1780 # 0xd2c8
    69c4:	00007d17          	auipc	s10,0x7
    69c8:	92cd0d13          	addi	s10,s10,-1748 # 0xd2f0
    69cc:	02890b93          	addi	s7,s2,40
    69d0:	01840d93          	addi	s11,s0,24
    69d4:	08890c13          	addi	s8,s2,136
    69d8:	00842783          	lw	a5,8(s0)
    69dc:	1207c263          	bltz	a5,0x6b00
    69e0:	00843783          	ld	a5,8(s0)
    69e4:	00008737          	lui	a4,0x8
    69e8:	fff70713          	addi	a4,a4,-1 # 0x7fff
    69ec:	0107d793          	srli	a5,a5,0x10
    69f0:	00e7f7b3          	and	a5,a5,a4
    69f4:	01043683          	ld	a3,16(s0)
    69f8:	03079793          	slli	a5,a5,0x30
    69fc:	0307d793          	srli	a5,a5,0x30
    6a00:	00479613          	slli	a2,a5,0x4
    6a04:	00c686b3          	add	a3,a3,a2
    6a08:	0017879b          	addiw	a5,a5,1
    6a0c:	0156b023          	sd	s5,0(a3)
    6a10:	0146b423          	sd	s4,8(a3)
    6a14:	00e7f7b3          	and	a5,a5,a4
    6a18:	00842683          	lw	a3,8(s0)
    6a1c:	03079793          	slli	a5,a5,0x30
    6a20:	0307d793          	srli	a5,a5,0x30
    6a24:	80010637          	lui	a2,0x80010
    6a28:	00e7f733          	and	a4,a5,a4
    6a2c:	fff60613          	addi	a2,a2,-1 # 0xffffffff8000ffff
    6a30:	00c6f6b3          	and	a3,a3,a2
    6a34:	0107171b          	slliw	a4,a4,0x10
    6a38:	00e6e733          	or	a4,a3,a4
    6a3c:	00445683          	lhu	a3,4(s0)
    6a40:	00e42423          	sw	a4,8(s0)
    6a44:	00f69663          	bne	a3,a5,0x6a50
    6a48:	00c77733          	and	a4,a4,a2
    6a4c:	00e42423          	sw	a4,8(s0)
    6a50:	00842783          	lw	a5,8(s0)
    6a54:	ffff8737          	lui	a4,0xffff8
    6a58:	fff70713          	addi	a4,a4,-1 # 0xffffffffffff7fff
    6a5c:	00e7f7b3          	and	a5,a5,a4
    6a60:	00f42423          	sw	a5,8(s0)
    6a64:	00843703          	ld	a4,8(s0)
    6a68:	00008637          	lui	a2,0x8
    6a6c:	fff60613          	addi	a2,a2,-1 # 0x7fff
    6a70:	01075693          	srli	a3,a4,0x10
    6a74:	00c6f6b3          	and	a3,a3,a2
    6a78:	00c77733          	and	a4,a4,a2
    6a7c:	03069693          	slli	a3,a3,0x30
    6a80:	03071713          	slli	a4,a4,0x30
    6a84:	0306d693          	srli	a3,a3,0x30
    6a88:	03075713          	srli	a4,a4,0x30
    6a8c:	00e69863          	bne	a3,a4,0x6a9c
    6a90:	80000737          	lui	a4,0x80000
    6a94:	00e7e7b3          	or	a5,a5,a4
    6a98:	00f42423          	sw	a5,8(s0)
    6a9c:	02843503          	ld	a0,40(s0)
    6aa0:	02840793          	addi	a5,s0,40
    6aa4:	00000993          	li	s3,0
    6aa8:	0ef50863          	beq	a0,a5,0x6b98
    6aac:	fd850513          	addi	a0,a0,-40
    6ab0:	a29fb0ef          	jal	ra,0x24d8
    6ab4:	00048513          	mv	a0,s1
    6ab8:	dc4f90ef          	jal	ra,0x7c
    6abc:	ecdfb0ef          	jal	ra,0x2988
    6ac0:	07813083          	ld	ra,120(sp)
    6ac4:	07013403          	ld	s0,112(sp)
    6ac8:	06813483          	ld	s1,104(sp)
    6acc:	06013903          	ld	s2,96(sp)
    6ad0:	05013a03          	ld	s4,80(sp)
    6ad4:	04813a83          	ld	s5,72(sp)
    6ad8:	04013b03          	ld	s6,64(sp)
    6adc:	03813b83          	ld	s7,56(sp)
    6ae0:	03013c03          	ld	s8,48(sp)
    6ae4:	02813c83          	ld	s9,40(sp)
    6ae8:	02013d03          	ld	s10,32(sp)
    6aec:	01813d83          	ld	s11,24(sp)
    6af0:	00098513          	mv	a0,s3
    6af4:	05813983          	ld	s3,88(sp)
    6af8:	08010113          	addi	sp,sp,128
    6afc:	00008067          	ret
    6b00:	00c12783          	lw	a5,12(sp)
    6b04:	0a078c63          	beqz	a5,0x6bbc
    6b08:	d6cf90ef          	jal	ra,0x74
    6b0c:	00050993          	mv	s3,a0
    6b10:	994fb0ef          	jal	ra,0x1ca4
    6b14:	02050063          	beqz	a0,0x6b34
    6b18:	000b0593          	mv	a1,s6
    6b1c:	000c8513          	mv	a0,s9
    6b20:	a19fd0ef          	jal	ra,0x4538
    6b24:	05400613          	li	a2,84
    6b28:	000b0593          	mv	a1,s6
    6b2c:	000d0513          	mv	a0,s10
    6b30:	b95fd0ef          	jal	ra,0x46c4
    6b34:	00098513          	mv	a0,s3
    6b38:	d44f90ef          	jal	ra,0x7c
    6b3c:	00090513          	mv	a0,s2
    6b40:	06093023          	sd	zero,96(s2)
    6b44:	fa8fb0ef          	jal	ra,0x22ec
    6b48:	02043783          	ld	a5,32(s0)
    6b4c:	0177b023          	sd	s7,0(a5)
    6b50:	02f93823          	sd	a5,48(s2)
    6b54:	00c12783          	lw	a5,12(sp)
    6b58:	03743023          	sd	s7,32(s0)
    6b5c:	03b93423          	sd	s11,40(s2)
    6b60:	00f05e63          	blez	a5,0x6b7c
    6b64:	00c10613          	addi	a2,sp,12
    6b68:	00000593          	li	a1,0
    6b6c:	000c0513          	mv	a0,s8
    6b70:	bd5fa0ef          	jal	ra,0x1744
    6b74:	000c0513          	mv	a0,s8
    6b78:	97dfa0ef          	jal	ra,0x14f4
    6b7c:	00048513          	mv	a0,s1
    6b80:	cfcf90ef          	jal	ra,0x7c
    6b84:	e05fb0ef          	jal	ra,0x2988
    6b88:	06093983          	ld	s3,96(s2)
    6b8c:	ce8f90ef          	jal	ra,0x74
    6b90:	00050493          	mv	s1,a0
    6b94:	e40982e3          	beqz	s3,0x69d8
    6b98:	00048513          	mv	a0,s1
    6b9c:	ce0f90ef          	jal	ra,0x7c
    6ba0:	f20990e3          	bnez	s3,0x6ac0
    6ba4:	03843783          	ld	a5,56(s0)
    6ba8:	f0078ce3          	beqz	a5,0x6ac0
    6bac:	00200593          	li	a1,2
    6bb0:	00040513          	mv	a0,s0
    6bb4:	000780e7          	jalr	a5
    6bb8:	f09ff06f          	j	0x6ac0
    6bbc:	ffe00993          	li	s3,-2
    6bc0:	fd9ff06f          	j	0x6b98
    6bc4:	fd010113          	addi	sp,sp,-48
    6bc8:	02813023          	sd	s0,32(sp)
    6bcc:	02113423          	sd	ra,40(sp)
    6bd0:	00913c23          	sd	s1,24(sp)
    6bd4:	01213823          	sd	s2,16(sp)
    6bd8:	01313423          	sd	s3,8(sp)
    6bdc:	00050413          	mv	s0,a0
    6be0:	00051e63          	bnez	a0,0x6bfc
    6be4:	12900613          	li	a2,297
    6be8:	00008597          	auipc	a1,0x8
    6bec:	f5858593          	addi	a1,a1,-168 # 0xeb40
    6bf0:	00008517          	auipc	a0,0x8
    6bf4:	ed850513          	addi	a0,a0,-296 # 0xeac8
    6bf8:	acdfd0ef          	jal	ra,0x46c4
    6bfc:	00042703          	lw	a4,0(s0)
    6c00:	bead17b7          	lui	a5,0xbead1
    6c04:	e0e78793          	addi	a5,a5,-498 # 0xffffffffbead0e0e
    6c08:	00f70e63          	beq	a4,a5,0x6c24
    6c0c:	12a00613          	li	a2,298
    6c10:	00008597          	auipc	a1,0x8
    6c14:	f3058593          	addi	a1,a1,-208 # 0xeb40
    6c18:	00008517          	auipc	a0,0x8
    6c1c:	ed850513          	addi	a0,a0,-296 # 0xeaf0
    6c20:	aa5fd0ef          	jal	ra,0x46c4
    6c24:	c50f90ef          	jal	ra,0x74
    6c28:	000087b7          	lui	a5,0x8
    6c2c:	00f42423          	sw	a5,8(s0)
    6c30:	c4cf90ef          	jal	ra,0x7c
    6c34:	02840913          	addi	s2,s0,40
    6c38:	ed1fb0ef          	jal	ra,0x2b08
    6c3c:	fff00993          	li	s3,-1
    6c40:	02843783          	ld	a5,40(s0)
    6c44:	03279a63          	bne	a5,s2,0x6c78
    6c48:	01840913          	addi	s2,s0,24
    6c4c:	fff00993          	li	s3,-1
    6c50:	01843783          	ld	a5,24(s0)
    6c54:	05279463          	bne	a5,s2,0x6c9c
    6c58:	eddfb0ef          	jal	ra,0x2b34
    6c5c:	02013403          	ld	s0,32(sp)
    6c60:	02813083          	ld	ra,40(sp)
    6c64:	01813483          	ld	s1,24(sp)
    6c68:	01013903          	ld	s2,16(sp)
    6c6c:	00813983          	ld	s3,8(sp)
    6c70:	03010113          	addi	sp,sp,48
    6c74:	d15fb06f          	j	0x2988
    6c78:	bfcf90ef          	jal	ra,0x74
    6c7c:	00050493          	mv	s1,a0
    6c80:	02843503          	ld	a0,40(s0)
    6c84:	03353c23          	sd	s3,56(a0)
    6c88:	fd850513          	addi	a0,a0,-40
    6c8c:	84dfb0ef          	jal	ra,0x24d8
    6c90:	00048513          	mv	a0,s1
    6c94:	be8f90ef          	jal	ra,0x7c
    6c98:	fa9ff06f          	j	0x6c40
    6c9c:	bd8f90ef          	jal	ra,0x74
    6ca0:	00050493          	mv	s1,a0
    6ca4:	01843503          	ld	a0,24(s0)
    6ca8:	03353c23          	sd	s3,56(a0)
    6cac:	fd850513          	addi	a0,a0,-40
    6cb0:	829fb0ef          	jal	ra,0x24d8
    6cb4:	00048513          	mv	a0,s1
    6cb8:	bc4f90ef          	jal	ra,0x7c
    6cbc:	f95ff06f          	j	0x6c50
    6cc0:	ff010113          	addi	sp,sp,-16
    6cc4:	00813023          	sd	s0,0(sp)
    6cc8:	00113423          	sd	ra,8(sp)
    6ccc:	00050413          	mv	s0,a0
    6cd0:	00051e63          	bnez	a0,0x6cec
    6cd4:	17100613          	li	a2,369
    6cd8:	00008597          	auipc	a1,0x8
    6cdc:	e8058593          	addi	a1,a1,-384 # 0xeb58
    6ce0:	00008517          	auipc	a0,0x8
    6ce4:	de850513          	addi	a0,a0,-536 # 0xeac8
    6ce8:	9ddfd0ef          	jal	ra,0x46c4
    6cec:	00042703          	lw	a4,0(s0)
    6cf0:	bead17b7          	lui	a5,0xbead1
    6cf4:	e0e78793          	addi	a5,a5,-498 # 0xffffffffbead0e0e
    6cf8:	00f70e63          	beq	a4,a5,0x6d14
    6cfc:	17200613          	li	a2,370
    6d00:	00008597          	auipc	a1,0x8
    6d04:	e5858593          	addi	a1,a1,-424 # 0xeb58
    6d08:	00008517          	auipc	a0,0x8
    6d0c:	de850513          	addi	a0,a0,-536 # 0xeaf0
    6d10:	9b5fd0ef          	jal	ra,0x46c4
    6d14:	00040513          	mv	a0,s0
    6d18:	eadff0ef          	jal	ra,0x6bc4
    6d1c:	b58f90ef          	jal	ra,0x74
    6d20:	00042023          	sw	zero,0(s0)
    6d24:	b58f90ef          	jal	ra,0x7c
    6d28:	01043503          	ld	a0,16(s0)
    6d2c:	a30fa0ef          	jal	ra,0xf5c
    6d30:	00813083          	ld	ra,8(sp)
    6d34:	00013403          	ld	s0,0(sp)
    6d38:	00000513          	li	a0,0
    6d3c:	01010113          	addi	sp,sp,16
    6d40:	00008067          	ret
    6d44:	0001b797          	auipc	a5,0x1b
    6d48:	40478793          	addi	a5,a5,1028 # 0x22148
    6d4c:	0807b703          	ld	a4,128(a5)
    6d50:	fe010113          	addi	sp,sp,-32
    6d54:	00813823          	sd	s0,16(sp)
    6d58:	00913423          	sd	s1,8(sp)
    6d5c:	01213023          	sd	s2,0(sp)
    6d60:	00113c23          	sd	ra,24(sp)
    6d64:	00050493          	mv	s1,a0
    6d68:	00058913          	mv	s2,a1
    6d6c:	00078413          	mv	s0,a5
    6d70:	00071e63          	bnez	a4,0x6d8c
    6d74:	08a00613          	li	a2,138
    6d78:	00008597          	auipc	a1,0x8
    6d7c:	e2058593          	addi	a1,a1,-480 # 0xeb98
    6d80:	00008517          	auipc	a0,0x8
    6d84:	df050513          	addi	a0,a0,-528 # 0xeb70
    6d88:	93dfd0ef          	jal	ra,0x46c4
    6d8c:	08043783          	ld	a5,128(s0)
    6d90:	01013403          	ld	s0,16(sp)
    6d94:	01813083          	ld	ra,24(sp)
    6d98:	0007b303          	ld	t1,0(a5)
    6d9c:	00090613          	mv	a2,s2
    6da0:	00048593          	mv	a1,s1
    6da4:	00013903          	ld	s2,0(sp)
    6da8:	00813483          	ld	s1,8(sp)
    6dac:	0001b517          	auipc	a0,0x1b
    6db0:	39c50513          	addi	a0,a0,924 # 0x22148
    6db4:	02010113          	addi	sp,sp,32
    6db8:	00030067          	jr	t1
    6dbc:	0001b797          	auipc	a5,0x1b
    6dc0:	38c78793          	addi	a5,a5,908 # 0x22148
    6dc4:	0807b703          	ld	a4,128(a5)
    6dc8:	fe010113          	addi	sp,sp,-32
    6dcc:	00813823          	sd	s0,16(sp)
    6dd0:	00913423          	sd	s1,8(sp)
    6dd4:	01213023          	sd	s2,0(sp)
    6dd8:	00113c23          	sd	ra,24(sp)
    6ddc:	00050493          	mv	s1,a0
    6de0:	00058913          	mv	s2,a1
    6de4:	00078413          	mv	s0,a5
    6de8:	00071e63          	bnez	a4,0x6e04
    6dec:	09100613          	li	a2,145
    6df0:	00008597          	auipc	a1,0x8
    6df4:	db858593          	addi	a1,a1,-584 # 0xeba8
    6df8:	00008517          	auipc	a0,0x8
    6dfc:	d7850513          	addi	a0,a0,-648 # 0xeb70
    6e00:	8c5fd0ef          	jal	ra,0x46c4
    6e04:	08043783          	ld	a5,128(s0)
    6e08:	01013403          	ld	s0,16(sp)
    6e0c:	01813083          	ld	ra,24(sp)
    6e10:	0087b303          	ld	t1,8(a5)
    6e14:	00090613          	mv	a2,s2
    6e18:	00048593          	mv	a1,s1
    6e1c:	00013903          	ld	s2,0(sp)
    6e20:	00813483          	ld	s1,8(sp)
    6e24:	0001b517          	auipc	a0,0x1b
    6e28:	32450513          	addi	a0,a0,804 # 0x22148
    6e2c:	02010113          	addi	sp,sp,32
    6e30:	00030067          	jr	t1
    6e34:	0001b797          	auipc	a5,0x1b
    6e38:	31478793          	addi	a5,a5,788 # 0x22148
    6e3c:	0807b703          	ld	a4,128(a5)
    6e40:	fe010113          	addi	sp,sp,-32
    6e44:	00813823          	sd	s0,16(sp)
    6e48:	00913423          	sd	s1,8(sp)
    6e4c:	00113c23          	sd	ra,24(sp)
    6e50:	00050493          	mv	s1,a0
    6e54:	00078413          	mv	s0,a5
    6e58:	00071e63          	bnez	a4,0x6e74
    6e5c:	09800613          	li	a2,152
    6e60:	00008597          	auipc	a1,0x8
    6e64:	d5858593          	addi	a1,a1,-680 # 0xebb8
    6e68:	00008517          	auipc	a0,0x8
    6e6c:	d0850513          	addi	a0,a0,-760 # 0xeb70
    6e70:	855fd0ef          	jal	ra,0x46c4
    6e74:	08043783          	ld	a5,128(s0)
    6e78:	01013403          	ld	s0,16(sp)
    6e7c:	01813083          	ld	ra,24(sp)
    6e80:	0107b303          	ld	t1,16(a5)
    6e84:	00048593          	mv	a1,s1
    6e88:	00813483          	ld	s1,8(sp)
    6e8c:	0001b517          	auipc	a0,0x1b
    6e90:	2bc50513          	addi	a0,a0,700 # 0x22148
    6e94:	02010113          	addi	sp,sp,32
    6e98:	00030067          	jr	t1
    6e9c:	0001b797          	auipc	a5,0x1b
    6ea0:	2ac78793          	addi	a5,a5,684 # 0x22148
    6ea4:	0807b703          	ld	a4,128(a5)
    6ea8:	fe010113          	addi	sp,sp,-32
    6eac:	00813823          	sd	s0,16(sp)
    6eb0:	00913423          	sd	s1,8(sp)
    6eb4:	00113c23          	sd	ra,24(sp)
    6eb8:	00050413          	mv	s0,a0
    6ebc:	00078493          	mv	s1,a5
    6ec0:	00071e63          	bnez	a4,0x6edc
    6ec4:	09f00613          	li	a2,159
    6ec8:	00008597          	auipc	a1,0x8
    6ecc:	d0058593          	addi	a1,a1,-768 # 0xebc8
    6ed0:	00008517          	auipc	a0,0x8
    6ed4:	ca050513          	addi	a0,a0,-864 # 0xeb70
    6ed8:	fecfd0ef          	jal	ra,0x46c4
    6edc:	00044703          	lbu	a4,0(s0)
    6ee0:	05000793          	li	a5,80
    6ee4:	00f70e63          	beq	a4,a5,0x6f00
    6ee8:	0a000613          	li	a2,160
    6eec:	00008597          	auipc	a1,0x8
    6ef0:	cdc58593          	addi	a1,a1,-804 # 0xebc8
    6ef4:	00008517          	auipc	a0,0x8
    6ef8:	c9450513          	addi	a0,a0,-876 # 0xeb88
    6efc:	fc8fd0ef          	jal	ra,0x46c4
    6f00:	0804b783          	ld	a5,128(s1)
    6f04:	0307b303          	ld	t1,48(a5)
    6f08:	00030e63          	beqz	t1,0x6f24
    6f0c:	00040513          	mv	a0,s0
    6f10:	01013403          	ld	s0,16(sp)
    6f14:	01813083          	ld	ra,24(sp)
    6f18:	00813483          	ld	s1,8(sp)
    6f1c:	02010113          	addi	sp,sp,32
    6f20:	00030067          	jr	t1
    6f24:	01813083          	ld	ra,24(sp)
    6f28:	01013403          	ld	s0,16(sp)
    6f2c:	00813483          	ld	s1,8(sp)
    6f30:	ffa00513          	li	a0,-6
    6f34:	02010113          	addi	sp,sp,32
    6f38:	00008067          	ret
    6f3c:	fa010113          	addi	sp,sp,-96
    6f40:	04113c23          	sd	ra,88(sp)
    6f44:	04913423          	sd	s1,72(sp)
    6f48:	05213023          	sd	s2,64(sp)
    6f4c:	03313c23          	sd	s3,56(sp)
    6f50:	03413823          	sd	s4,48(sp)
    6f54:	03513423          	sd	s5,40(sp)
    6f58:	03613023          	sd	s6,32(sp)
    6f5c:	01713c23          	sd	s7,24(sp)
    6f60:	01813823          	sd	s8,16(sp)
    6f64:	01913423          	sd	s9,8(sp)
    6f68:	04813823          	sd	s0,80(sp)
    6f6c:	b9dfb0ef          	jal	ra,0x2b08
    6f70:	00008517          	auipc	a0,0x8
    6f74:	d1050513          	addi	a0,a0,-752 # 0xec80
    6f78:	dc0fd0ef          	jal	ra,0x4538
    6f7c:	00008517          	auipc	a0,0x8
    6f80:	d2450513          	addi	a0,a0,-732 # 0xeca0
    6f84:	db4fd0ef          	jal	ra,0x4538
    6f88:	00000493          	li	s1,0
    6f8c:	0001b917          	auipc	s2,0x1b
    6f90:	24490913          	addi	s2,s2,580 # 0x221d0
    6f94:	00008997          	auipc	s3,0x8
    6f98:	d2c98993          	addi	s3,s3,-724 # 0xecc0
    6f9c:	00200a13          	li	s4,2
    6fa0:	00008a97          	auipc	s5,0x8
    6fa4:	d68a8a93          	addi	s5,s5,-664 # 0xed08
    6fa8:	00008b17          	auipc	s6,0x8
    6fac:	d68b0b13          	addi	s6,s6,-664 # 0xed10
    6fb0:	00009b97          	auipc	s7,0x9
    6fb4:	e88b8b93          	addi	s7,s7,-376 # 0xfe38
    6fb8:	00008c17          	auipc	s8,0x8
    6fbc:	548c0c13          	addi	s8,s8,1352 # 0xf500
    6fc0:	00100c93          	li	s9,1
    6fc4:	00092703          	lw	a4,0(s2)
    6fc8:	0004879b          	sext.w	a5,s1
    6fcc:	04e7c063          	blt	a5,a4,0x700c
    6fd0:	b65fb0ef          	jal	ra,0x2b34
    6fd4:	05813083          	ld	ra,88(sp)
    6fd8:	05013403          	ld	s0,80(sp)
    6fdc:	04813483          	ld	s1,72(sp)
    6fe0:	04013903          	ld	s2,64(sp)
    6fe4:	03813983          	ld	s3,56(sp)
    6fe8:	03013a03          	ld	s4,48(sp)
    6fec:	02813a83          	ld	s5,40(sp)
    6ff0:	02013b03          	ld	s6,32(sp)
    6ff4:	01813b83          	ld	s7,24(sp)
    6ff8:	01013c03          	ld	s8,16(sp)
    6ffc:	00813c83          	ld	s9,8(sp)
    7000:	00000513          	li	a0,0
    7004:	06010113          	addi	sp,sp,96
    7008:	00008067          	ret
    700c:	00893783          	ld	a5,8(s2)
    7010:	00349713          	slli	a4,s1,0x3
    7014:	00e787b3          	add	a5,a5,a4
    7018:	0007b403          	ld	s0,0(a5)
    701c:	08040c63          	beqz	s0,0x70b4
    7020:	02043783          	ld	a5,32(s0)
    7024:	08078863          	beqz	a5,0x70b4
    7028:	0034859b          	addiw	a1,s1,3
    702c:	00098513          	mv	a0,s3
    7030:	d08fd0ef          	jal	ra,0x4538
    7034:	00245703          	lhu	a4,2(s0)
    7038:	00008597          	auipc	a1,0x8
    703c:	c9058593          	addi	a1,a1,-880 # 0xecc8
    7040:	0007079b          	sext.w	a5,a4
    7044:	03470e63          	beq	a4,s4,0x7080
    7048:	00008597          	auipc	a1,0x8
    704c:	c9058593          	addi	a1,a1,-880 # 0xecd8
    7050:	02070863          	beqz	a4,0x7080
    7054:	00008597          	auipc	a1,0x8
    7058:	c8c58593          	addi	a1,a1,-884 # 0xece0
    705c:	03978263          	beq	a5,s9,0x7080
    7060:	00300713          	li	a4,3
    7064:	00008597          	auipc	a1,0x8
    7068:	c8458593          	addi	a1,a1,-892 # 0xece8
    706c:	00e78a63          	beq	a5,a4,0x7080
    7070:	00400713          	li	a4,4
    7074:	04e79463          	bne	a5,a4,0x70bc
    7078:	00008597          	auipc	a1,0x8
    707c:	c7858593          	addi	a1,a1,-904 # 0xecf0
    7080:	00008517          	auipc	a0,0x8
    7084:	c5050513          	addi	a0,a0,-944 # 0xecd0
    7088:	cb0fd0ef          	jal	ra,0x4538
    708c:	01042583          	lw	a1,16(s0)
    7090:	000a8513          	mv	a0,s5
    7094:	ca4fd0ef          	jal	ra,0x4538
    7098:	00045583          	lhu	a1,0(s0)
    709c:	000b0513          	mv	a0,s6
    70a0:	c98fd0ef          	jal	ra,0x4538
    70a4:	00843583          	ld	a1,8(s0)
    70a8:	02058463          	beqz	a1,0x70d0
    70ac:	000c0513          	mv	a0,s8
    70b0:	c88fd0ef          	jal	ra,0x4538
    70b4:	00148493          	addi	s1,s1,1
    70b8:	f0dff06f          	j	0x6fc4
    70bc:	00008597          	auipc	a1,0x8
    70c0:	c3c58593          	addi	a1,a1,-964 # 0xecf8
    70c4:	00008517          	auipc	a0,0x8
    70c8:	c3c50513          	addi	a0,a0,-964 # 0xed00
    70cc:	fbdff06f          	j	0x7088
    70d0:	000b8513          	mv	a0,s7
    70d4:	c64fd0ef          	jal	ra,0x4538
    70d8:	fddff06f          	j	0x70b4
    70dc:	fe010113          	addi	sp,sp,-32
    70e0:	00813823          	sd	s0,16(sp)
    70e4:	00012417          	auipc	s0,0x12
    70e8:	22c40413          	addi	s0,s0,556 # 0x19310
    70ec:	00042783          	lw	a5,0(s0)
    70f0:	00113c23          	sd	ra,24(sp)
    70f4:	00913423          	sd	s1,8(sp)
    70f8:	02078463          	beqz	a5,0x7120
    70fc:	00008517          	auipc	a0,0x8
    7100:	c1c50513          	addi	a0,a0,-996 # 0xed18
    7104:	c34fd0ef          	jal	ra,0x4538
    7108:	01813083          	ld	ra,24(sp)
    710c:	01013403          	ld	s0,16(sp)
    7110:	00813483          	ld	s1,8(sp)
    7114:	00000513          	li	a0,0
    7118:	02010113          	addi	sp,sp,32
    711c:	00008067          	ret
    7120:	01000613          	li	a2,16
    7124:	00000593          	li	a1,0
    7128:	0001b517          	auipc	a0,0x1b
    712c:	0b850513          	addi	a0,a0,184 # 0x221e0
    7130:	c90f90ef          	jal	ra,0x5c0
    7134:	04000613          	li	a2,64
    7138:	00000593          	li	a1,0
    713c:	0001b517          	auipc	a0,0x1b
    7140:	0b450513          	addi	a0,a0,180 # 0x221f0
    7144:	c7cf90ef          	jal	ra,0x5c0
    7148:	01000613          	li	a2,16
    714c:	00000593          	li	a1,0
    7150:	0001b517          	auipc	a0,0x1b
    7154:	08050513          	addi	a0,a0,128 # 0x221d0
    7158:	c68f90ef          	jal	ra,0x5c0
    715c:	00000613          	li	a2,0
    7160:	00008597          	auipc	a1,0x8
    7164:	bd058593          	addi	a1,a1,-1072 # 0xed30
    7168:	0001b517          	auipc	a0,0x1b
    716c:	0c850513          	addi	a0,a0,200 # 0x22230
    7170:	bb1fd0ef          	jal	ra,0x4d20
    7174:	0000a497          	auipc	s1,0xa
    7178:	f5448493          	addi	s1,s1,-172 # 0x110c8
    717c:	10000613          	li	a2,256
    7180:	00000593          	li	a1,0
    7184:	00048513          	mv	a0,s1
    7188:	c38f90ef          	jal	ra,0x5c0
    718c:	02f00793          	li	a5,47
    7190:	00f48023          	sb	a5,0(s1)
    7194:	095020ef          	jal	ra,0x9a28
    7198:	00000713          	li	a4,0
    719c:	00000693          	li	a3,0
    71a0:	00008617          	auipc	a2,0x8
    71a4:	b9860613          	addi	a2,a2,-1128 # 0xed38
    71a8:	00008597          	auipc	a1,0x8
    71ac:	b9858593          	addi	a1,a1,-1128 # 0xed40
    71b0:	00000513          	li	a0,0
    71b4:	4c5010ef          	jal	ra,0x8e78
    71b8:	00100793          	li	a5,1
    71bc:	00f42023          	sw	a5,0(s0)
    71c0:	f49ff06f          	j	0x7108
    71c4:	fe010113          	addi	sp,sp,-32
    71c8:	00813823          	sd	s0,16(sp)
    71cc:	00913423          	sd	s1,8(sp)
    71d0:	00113c23          	sd	ra,24(sp)
    71d4:	0001b497          	auipc	s1,0x1b
    71d8:	05c48493          	addi	s1,s1,92 # 0x22230
    71dc:	ff900413          	li	s0,-7
    71e0:	fff00593          	li	a1,-1
    71e4:	00048513          	mv	a0,s1
    71e8:	bb9fd0ef          	jal	ra,0x4da0
    71ec:	fe850ae3          	beq	a0,s0,0x71e0
    71f0:	02050663          	beqz	a0,0x721c
    71f4:	01013403          	ld	s0,16(sp)
    71f8:	01813083          	ld	ra,24(sp)
    71fc:	00813483          	ld	s1,8(sp)
    7200:	06b00613          	li	a2,107
    7204:	00008597          	auipc	a1,0x8
    7208:	bc458593          	addi	a1,a1,-1084 # 0xedc8
    720c:	00006517          	auipc	a0,0x6
    7210:	0e450513          	addi	a0,a0,228 # 0xd2f0
    7214:	02010113          	addi	sp,sp,32
    7218:	cacfd06f          	j	0x46c4
    721c:	01813083          	ld	ra,24(sp)
    7220:	01013403          	ld	s0,16(sp)
    7224:	00813483          	ld	s1,8(sp)
    7228:	02010113          	addi	sp,sp,32
    722c:	00008067          	ret
    7230:	0001b517          	auipc	a0,0x1b
    7234:	00050513          	mv	a0,a0
    7238:	d95fd06f          	j	0x4fcc
    723c:	fd010113          	addi	sp,sp,-48
    7240:	02813023          	sd	s0,32(sp)
    7244:	02113423          	sd	ra,40(sp)
    7248:	0001b417          	auipc	s0,0x1b
    724c:	f8840413          	addi	s0,s0,-120 # 0x221d0
    7250:	00913c23          	sd	s1,24(sp)
    7254:	01213823          	sd	s2,16(sp)
    7258:	01313423          	sd	s3,8(sp)
    725c:	f69ff0ef          	jal	ra,0x71c4
    7260:	00042683          	lw	a3,0(s0)
    7264:	00843503          	ld	a0,8(s0)
    7268:	00000793          	li	a5,0
    726c:	0006861b          	sext.w	a2,a3
    7270:	0007891b          	sext.w	s2,a5
    7274:	02c95063          	bge	s2,a2,0x7294
    7278:	00379713          	slli	a4,a5,0x3
    727c:	00e50733          	add	a4,a0,a4
    7280:	00073703          	ld	a4,0(a4) # 0xffffffff80000000
    7284:	00070863          	beqz	a4,0x7294
    7288:	01072703          	lw	a4,16(a4)
    728c:	00178793          	addi	a5,a5,1
    7290:	fe0710e3          	bnez	a4,0x7270
    7294:	05269063          	bne	a3,s2,0x72d4
    7298:	01f00793          	li	a5,31
    729c:	0327ec63          	bltu	a5,s2,0x72d4
    72a0:	0049071b          	addiw	a4,s2,4
    72a4:	02000793          	li	a5,32
    72a8:	00070493          	mv	s1,a4
    72ac:	00e7d463          	bge	a5,a4,0x72b4
    72b0:	02000493          	li	s1,32
    72b4:	00349593          	slli	a1,s1,0x3
    72b8:	eb5f90ef          	jal	ra,0x116c
    72bc:	04050c63          	beqz	a0,0x7314
    72c0:	00042783          	lw	a5,0(s0)
    72c4:	0007871b          	sext.w	a4,a5
    72c8:	0a974063          	blt	a4,s1,0x7368
    72cc:	00a43423          	sd	a0,8(s0)
    72d0:	00942023          	sw	s1,0(s0)
    72d4:	00042783          	lw	a5,0(s0)
    72d8:	02f95e63          	bge	s2,a5,0x7314
    72dc:	00843483          	ld	s1,8(s0)
    72e0:	00391993          	slli	s3,s2,0x3
    72e4:	013484b3          	add	s1,s1,s3
    72e8:	0004b783          	ld	a5,0(s1)
    72ec:	02079463          	bnez	a5,0x7314
    72f0:	04800593          	li	a1,72
    72f4:	00100513          	li	a0,1
    72f8:	c25f90ef          	jal	ra,0xf1c
    72fc:	00843783          	ld	a5,8(s0)
    7300:	00a4b023          	sd	a0,0(s1)
    7304:	013787b3          	add	a5,a5,s3
    7308:	0007b783          	ld	a5,0(a5)
    730c:	00079463          	bnez	a5,0x7314
    7310:	00042903          	lw	s2,0(s0)
    7314:	00042783          	lw	a5,0(s0)
    7318:	07279263          	bne	a5,s2,0x737c
    731c:	00008517          	auipc	a0,0x8
    7320:	a2c50513          	addi	a0,a0,-1492 # 0xed48
    7324:	a14fd0ef          	jal	ra,0x4538
    7328:	00008517          	auipc	a0,0x8
    732c:	a3050513          	addi	a0,a0,-1488 # 0xed58
    7330:	a08fd0ef          	jal	ra,0x4538
    7334:	00009517          	auipc	a0,0x9
    7338:	b0450513          	addi	a0,a0,-1276 # 0xfe38
    733c:	9fcfd0ef          	jal	ra,0x4538
    7340:	ffc00913          	li	s2,-4
    7344:	eedff0ef          	jal	ra,0x7230
    7348:	02813083          	ld	ra,40(sp)
    734c:	02013403          	ld	s0,32(sp)
    7350:	01813483          	ld	s1,24(sp)
    7354:	00813983          	ld	s3,8(sp)
    7358:	0039051b          	addiw	a0,s2,3
    735c:	01013903          	ld	s2,16(sp)
    7360:	03010113          	addi	sp,sp,48
    7364:	00008067          	ret
    7368:	00379713          	slli	a4,a5,0x3
    736c:	00e50733          	add	a4,a0,a4
    7370:	00073023          	sd	zero,0(a4)
    7374:	00178793          	addi	a5,a5,1
    7378:	f4dff06f          	j	0x72c4
    737c:	00843783          	ld	a5,8(s0)
    7380:	00391713          	slli	a4,s2,0x3
    7384:	00e787b3          	add	a5,a5,a4
    7388:	0007b783          	ld	a5,0(a5)
    738c:	00100713          	li	a4,1
    7390:	00e7a823          	sw	a4,16(a5)
    7394:	dfd00713          	li	a4,-515
    7398:	00e79023          	sh	a4,0(a5)
    739c:	fa9ff06f          	j	0x7344
    73a0:	fe010113          	addi	sp,sp,-32
    73a4:	00913423          	sd	s1,8(sp)
    73a8:	00113c23          	sd	ra,24(sp)
    73ac:	00813823          	sd	s0,16(sp)
    73b0:	01213023          	sd	s2,0(sp)
    73b4:	ffd5049b          	addiw	s1,a0,-3
    73b8:	0404c263          	bltz	s1,0x73fc
    73bc:	0001b917          	auipc	s2,0x1b
    73c0:	e1490913          	addi	s2,s2,-492 # 0x221d0
    73c4:	00092783          	lw	a5,0(s2)
    73c8:	00000413          	li	s0,0
    73cc:	04f4d463          	bge	s1,a5,0x7414
    73d0:	df5ff0ef          	jal	ra,0x71c4
    73d4:	00893503          	ld	a0,8(s2)
    73d8:	00349493          	slli	s1,s1,0x3
    73dc:	009504b3          	add	s1,a0,s1
    73e0:	0004b403          	ld	s0,0(s1)
    73e4:	00040a63          	beqz	s0,0x73f8
    73e8:	00045703          	lhu	a4,0(s0)
    73ec:	000107b7          	lui	a5,0x10
    73f0:	dfd78793          	addi	a5,a5,-515 # 0xfdfd
    73f4:	00f70863          	beq	a4,a5,0x7404
    73f8:	e39ff0ef          	jal	ra,0x7230
    73fc:	00000413          	li	s0,0
    7400:	0140006f          	j	0x7414
    7404:	01042783          	lw	a5,16(s0)
    7408:	0017879b          	addiw	a5,a5,1
    740c:	00f42823          	sw	a5,16(s0)
    7410:	e21ff0ef          	jal	ra,0x7230
    7414:	01813083          	ld	ra,24(sp)
    7418:	00040513          	mv	a0,s0
    741c:	01013403          	ld	s0,16(sp)
    7420:	00813483          	ld	s1,8(sp)
    7424:	00013903          	ld	s2,0(sp)
    7428:	02010113          	addi	sp,sp,32
    742c:	00008067          	ret
    7430:	fe010113          	addi	sp,sp,-32
    7434:	00813823          	sd	s0,16(sp)
    7438:	00113c23          	sd	ra,24(sp)
    743c:	00913423          	sd	s1,8(sp)
    7440:	01213023          	sd	s2,0(sp)
    7444:	00050413          	mv	s0,a0
    7448:	00051e63          	bnez	a0,0x7464
    744c:	0fd00613          	li	a2,253
    7450:	0000a597          	auipc	a1,0xa
    7454:	b4058593          	addi	a1,a1,-1216 # 0x10f90
    7458:	00008517          	auipc	a0,0x8
    745c:	94050513          	addi	a0,a0,-1728 # 0xed98
    7460:	a64fd0ef          	jal	ra,0x46c4
    7464:	d61ff0ef          	jal	ra,0x71c4
    7468:	01042783          	lw	a5,16(s0)
    746c:	fff7871b          	addiw	a4,a5,-1
    7470:	00e42823          	sw	a4,16(s0)
    7474:	04071663          	bnez	a4,0x74c0
    7478:	0001b797          	auipc	a5,0x1b
    747c:	d5878793          	addi	a5,a5,-680 # 0x221d0
    7480:	0007a603          	lw	a2,0(a5)
    7484:	0087b583          	ld	a1,8(a5)
    7488:	00078493          	mv	s1,a5
    748c:	0007079b          	sext.w	a5,a4
    7490:	02c7d863          	bge	a5,a2,0x74c0
    7494:	00371913          	slli	s2,a4,0x3
    7498:	00890693          	addi	a3,s2,8
    749c:	00d586b3          	add	a3,a1,a3
    74a0:	ff86b783          	ld	a5,-8(a3)
    74a4:	00170713          	addi	a4,a4,1
    74a8:	fe8792e3          	bne	a5,s0,0x748c
    74ac:	00040513          	mv	a0,s0
    74b0:	aadf90ef          	jal	ra,0xf5c
    74b4:	0084b783          	ld	a5,8(s1)
    74b8:	012787b3          	add	a5,a5,s2
    74bc:	0007b023          	sd	zero,0(a5)
    74c0:	01013403          	ld	s0,16(sp)
    74c4:	01813083          	ld	ra,24(sp)
    74c8:	00813483          	ld	s1,8(sp)
    74cc:	00013903          	ld	s2,0(sp)
    74d0:	02010113          	addi	sp,sp,32
    74d4:	d5dff06f          	j	0x7230
    74d8:	fe010113          	addi	sp,sp,-32
    74dc:	00813823          	sd	s0,16(sp)
    74e0:	00913423          	sd	s1,8(sp)
    74e4:	00113c23          	sd	ra,24(sp)
    74e8:	00058493          	mv	s1,a1
    74ec:	868f90ef          	jal	ra,0x554
    74f0:	00050413          	mv	s0,a0
    74f4:	00048513          	mv	a0,s1
    74f8:	85cf90ef          	jal	ra,0x554
    74fc:	02a40863          	beq	s0,a0,0x752c
    7500:	00848533          	add	a0,s1,s0
    7504:	00054703          	lbu	a4,0(a0)
    7508:	02f00793          	li	a5,47
    750c:	00f70663          	beq	a4,a5,0x7518
    7510:	00a48463          	beq	s1,a0,0x7518
    7514:	fff50513          	addi	a0,a0,-1
    7518:	01813083          	ld	ra,24(sp)
    751c:	01013403          	ld	s0,16(sp)
    7520:	00813483          	ld	s1,8(sp)
    7524:	02010113          	addi	sp,sp,32
    7528:	00008067          	ret
    752c:	00000513          	li	a0,0
    7530:	fe9ff06f          	j	0x7518
    7534:	fd010113          	addi	sp,sp,-48
    7538:	00913c23          	sd	s1,24(sp)
    753c:	01213823          	sd	s2,16(sp)
    7540:	02113423          	sd	ra,40(sp)
    7544:	02813023          	sd	s0,32(sp)
    7548:	01313423          	sd	s3,8(sp)
    754c:	00050913          	mv	s2,a0
    7550:	00058493          	mv	s1,a1
    7554:	00059e63          	bnez	a1,0x7570
    7558:	17c00613          	li	a2,380
    755c:	00008597          	auipc	a1,0x8
    7560:	87c58593          	addi	a1,a1,-1924 # 0xedd8
    7564:	00008517          	auipc	a0,0x8
    7568:	84450513          	addi	a0,a0,-1980 # 0xeda8
    756c:	958fd0ef          	jal	ra,0x46c4
    7570:	00091663          	bnez	s2,0x757c
    7574:	0000a917          	auipc	s2,0xa
    7578:	b5490913          	addi	s2,s2,-1196 # 0x110c8
    757c:	0004c703          	lbu	a4,0(s1)
    7580:	02f00793          	li	a5,47
    7584:	0cf70c63          	beq	a4,a5,0x765c
    7588:	00090513          	mv	a0,s2
    758c:	fc9f80ef          	jal	ra,0x554
    7590:	00050413          	mv	s0,a0
    7594:	00048513          	mv	a0,s1
    7598:	fbdf80ef          	jal	ra,0x554
    759c:	00a40533          	add	a0,s0,a0
    75a0:	00250513          	addi	a0,a0,2
    75a4:	e68f90ef          	jal	ra,0xc0c
    75a8:	00050413          	mv	s0,a0
    75ac:	02051463          	bnez	a0,0x75d4
    75b0:	00000413          	li	s0,0
    75b4:	02813083          	ld	ra,40(sp)
    75b8:	00040513          	mv	a0,s0
    75bc:	02013403          	ld	s0,32(sp)
    75c0:	01813483          	ld	s1,24(sp)
    75c4:	01013903          	ld	s2,16(sp)
    75c8:	00813983          	ld	s3,8(sp)
    75cc:	03010113          	addi	sp,sp,48
    75d0:	00008067          	ret
    75d4:	00090513          	mv	a0,s2
    75d8:	f7df80ef          	jal	ra,0x554
    75dc:	00050993          	mv	s3,a0
    75e0:	00048513          	mv	a0,s1
    75e4:	f71f80ef          	jal	ra,0x554
    75e8:	00a98533          	add	a0,s3,a0
    75ec:	00250593          	addi	a1,a0,2
    75f0:	00048713          	mv	a4,s1
    75f4:	00090693          	mv	a3,s2
    75f8:	00007617          	auipc	a2,0x7
    75fc:	7c860613          	addi	a2,a2,1992 # 0xedc0
    7600:	00040513          	mv	a0,s0
    7604:	e39fc0ef          	jal	ra,0x443c
    7608:	00040713          	mv	a4,s0
    760c:	00040793          	mv	a5,s0
    7610:	02e00513          	li	a0,46
    7614:	02f00613          	li	a2,47
    7618:	00074683          	lbu	a3,0(a4)
    761c:	00a69863          	bne	a3,a0,0x762c
    7620:	00174683          	lbu	a3,1(a4)
    7624:	04069c63          	bnez	a3,0x767c
    7628:	00170713          	addi	a4,a4,1
    762c:	00074683          	lbu	a3,0(a4)
    7630:	00170713          	addi	a4,a4,1
    7634:	00078593          	mv	a1,a5
    7638:	0a068a63          	beqz	a3,0x76ec
    763c:	00178793          	addi	a5,a5,1
    7640:	08c69863          	bne	a3,a2,0x76d0
    7644:	00c58023          	sb	a2,0(a1)
    7648:	00070693          	mv	a3,a4
    764c:	00074583          	lbu	a1,0(a4)
    7650:	00170713          	addi	a4,a4,1
    7654:	fec58ae3          	beq	a1,a2,0x7648
    7658:	01c0006f          	j	0x7674
    765c:	00048513          	mv	a0,s1
    7660:	871fc0ef          	jal	ra,0x3ed0
    7664:	00050413          	mv	s0,a0
    7668:	fa0510e3          	bnez	a0,0x7608
    766c:	f45ff06f          	j	0x75b0
    7670:	00040793          	mv	a5,s0
    7674:	00068713          	mv	a4,a3
    7678:	fa1ff06f          	j	0x7618
    767c:	00c69c63          	bne	a3,a2,0x7694
    7680:	00270693          	addi	a3,a4,2
    7684:	0006c703          	lbu	a4,0(a3)
    7688:	fec716e3          	bne	a4,a2,0x7674
    768c:	00168693          	addi	a3,a3,1
    7690:	ff5ff06f          	j	0x7684
    7694:	f8a69ce3          	bne	a3,a0,0x762c
    7698:	00274683          	lbu	a3,2(a4)
    769c:	00069e63          	bnez	a3,0x76b8
    76a0:	00270693          	addi	a3,a4,2
    76a4:	fff78793          	addi	a5,a5,-1
    76a8:	0287fa63          	bgeu	a5,s0,0x76dc
    76ac:	00040513          	mv	a0,s0
    76b0:	8adf90ef          	jal	ra,0xf5c
    76b4:	efdff06f          	j	0x75b0
    76b8:	f6c69ae3          	bne	a3,a2,0x762c
    76bc:	00370693          	addi	a3,a4,3
    76c0:	0006c703          	lbu	a4,0(a3)
    76c4:	fec710e3          	bne	a4,a2,0x76a4
    76c8:	00168693          	addi	a3,a3,1
    76cc:	ff5ff06f          	j	0x76c0
    76d0:	fed78fa3          	sb	a3,-1(a5)
    76d4:	f59ff06f          	j	0x762c
    76d8:	fff78793          	addi	a5,a5,-1
    76dc:	f8f40ae3          	beq	s0,a5,0x7670
    76e0:	fff7c703          	lbu	a4,-1(a5)
    76e4:	fec71ae3          	bne	a4,a2,0x76d8
    76e8:	f8dff06f          	j	0x7674
    76ec:	00078023          	sb	zero,0(a5)
    76f0:	fff78713          	addi	a4,a5,-1
    76f4:	00e40a63          	beq	s0,a4,0x7708
    76f8:	fff7c683          	lbu	a3,-1(a5)
    76fc:	02f00713          	li	a4,47
    7700:	00e69463          	bne	a3,a4,0x7708
    7704:	fe078fa3          	sb	zero,-1(a5)
    7708:	00044783          	lbu	a5,0(s0)
    770c:	ea0794e3          	bnez	a5,0x75b4
    7710:	02f00793          	li	a5,47
    7714:	00f40023          	sb	a5,0(s0)
    7718:	000400a3          	sb	zero,1(s0)
    771c:	e99ff06f          	j	0x75b4
    7720:	fc010113          	addi	sp,sp,-64
    7724:	00050593          	mv	a1,a0
    7728:	00000513          	li	a0,0
    772c:	02113c23          	sd	ra,56(sp)
    7730:	02813823          	sd	s0,48(sp)
    7734:	02913423          	sd	s1,40(sp)
    7738:	03213023          	sd	s2,32(sp)
    773c:	01313c23          	sd	s3,24(sp)
    7740:	01413823          	sd	s4,16(sp)
    7744:	01513423          	sd	s5,8(sp)
    7748:	01613023          	sd	s6,0(sp)
    774c:	de9ff0ef          	jal	ra,0x7534
    7750:	00050e63          	beqz	a0,0x776c
    7754:	00050413          	mv	s0,a0
    7758:	5f8010ef          	jal	ra,0x8d50
    775c:	00050913          	mv	s2,a0
    7760:	00051a63          	bnez	a0,0x7774
    7764:	00040513          	mv	a0,s0
    7768:	ff4f90ef          	jal	ra,0xf5c
    776c:	fff00493          	li	s1,-1
    7770:	0940006f          	j	0x7804
    7774:	00853503          	ld	a0,8(a0)
    7778:	02f00793          	li	a5,47
    777c:	00054703          	lbu	a4,0(a0)
    7780:	00f71863          	bne	a4,a5,0x7790
    7784:	00154783          	lbu	a5,1(a0)
    7788:	00040a13          	mv	s4,s0
    778c:	00078663          	beqz	a5,0x7798
    7790:	dc5f80ef          	jal	ra,0x554
    7794:	00a40a33          	add	s4,s0,a0
    7798:	a2dff0ef          	jal	ra,0x71c4
    779c:	0001b797          	auipc	a5,0x1b
    77a0:	a3478793          	addi	a5,a5,-1484 # 0x221d0
    77a4:	0007aa83          	lw	s5,0(a5)
    77a8:	0087bb03          	ld	s6,8(a5)
    77ac:	00000993          	li	s3,0
    77b0:	0009879b          	sext.w	a5,s3
    77b4:	0157e663          	bltu	a5,s5,0x77c0
    77b8:	a79ff0ef          	jal	ra,0x7230
    77bc:	fa9ff06f          	j	0x7764
    77c0:	00399793          	slli	a5,s3,0x3
    77c4:	00fb07b3          	add	a5,s6,a5
    77c8:	0007b783          	ld	a5,0(a5)
    77cc:	06078263          	beqz	a5,0x7830
    77d0:	0207b703          	ld	a4,32(a5)
    77d4:	04070e63          	beqz	a4,0x7830
    77d8:	0087b503          	ld	a0,8(a5)
    77dc:	04050a63          	beqz	a0,0x7830
    77e0:	0187b783          	ld	a5,24(a5)
    77e4:	05279663          	bne	a5,s2,0x7830
    77e8:	000a0593          	mv	a1,s4
    77ec:	dcdf80ef          	jal	ra,0x5b8
    77f0:	00050493          	mv	s1,a0
    77f4:	02051e63          	bnez	a0,0x7830
    77f8:	00040513          	mv	a0,s0
    77fc:	f60f90ef          	jal	ra,0xf5c
    7800:	a31ff0ef          	jal	ra,0x7230
    7804:	03813083          	ld	ra,56(sp)
    7808:	03013403          	ld	s0,48(sp)
    780c:	02013903          	ld	s2,32(sp)
    7810:	01813983          	ld	s3,24(sp)
    7814:	01013a03          	ld	s4,16(sp)
    7818:	00813a83          	ld	s5,8(sp)
    781c:	00013b03          	ld	s6,0(sp)
    7820:	00048513          	mv	a0,s1
    7824:	02813483          	ld	s1,40(sp)
    7828:	04010113          	addi	sp,sp,64
    782c:	00008067          	ret
    7830:	00198993          	addi	s3,s3,1
    7834:	f7dff06f          	j	0x77b0
    7838:	fe010113          	addi	sp,sp,-32
    783c:	00913423          	sd	s1,8(sp)
    7840:	00113c23          	sd	ra,24(sp)
    7844:	00813823          	sd	s0,16(sp)
    7848:	00050493          	mv	s1,a0
    784c:	9f1ff0ef          	jal	ra,0x723c
    7850:	fff00793          	li	a5,-1
    7854:	02f51463          	bne	a0,a5,0x787c
    7858:	00050413          	mv	s0,a0
    785c:	ff400513          	li	a0,-12
    7860:	ac8fc0ef          	jal	ra,0x3b28
    7864:	01813083          	ld	ra,24(sp)
    7868:	00040513          	mv	a0,s0
    786c:	01013403          	ld	s0,16(sp)
    7870:	00813483          	ld	s1,8(sp)
    7874:	02010113          	addi	sp,sp,32
    7878:	00008067          	ret
    787c:	b25ff0ef          	jal	ra,0x73a0
    7880:	00010637          	lui	a2,0x10
    7884:	00048593          	mv	a1,s1
    7888:	04060613          	addi	a2,a2,64 # 0x10040
    788c:	00050413          	mv	s0,a0
    7890:	6e8000ef          	jal	ra,0x7f78
    7894:	00050493          	mv	s1,a0
    7898:	00040513          	mv	a0,s0
    789c:	0204d063          	bgez	s1,0x78bc
    78a0:	b91ff0ef          	jal	ra,0x7430
    78a4:	00040513          	mv	a0,s0
    78a8:	b89ff0ef          	jal	ra,0x7430
    78ac:	00048513          	mv	a0,s1
    78b0:	a78fc0ef          	jal	ra,0x3b28
    78b4:	fff00413          	li	s0,-1
    78b8:	fadff06f          	j	0x7864
    78bc:	019000ef          	jal	ra,0x80d4
    78c0:	00040513          	mv	a0,s0
    78c4:	b6dff0ef          	jal	ra,0x7430
    78c8:	00040513          	mv	a0,s0
    78cc:	b65ff0ef          	jal	ra,0x7430
    78d0:	00000413          	li	s0,0
    78d4:	f91ff06f          	j	0x7864
    78d8:	fa010113          	addi	sp,sp,-96
    78dc:	01213823          	sd	s2,16(sp)
    78e0:	01313423          	sd	s3,8(sp)
    78e4:	02113423          	sd	ra,40(sp)
    78e8:	02813023          	sd	s0,32(sp)
    78ec:	00913c23          	sd	s1,24(sp)
    78f0:	00050913          	mv	s2,a0
    78f4:	00058993          	mv	s3,a1
    78f8:	02c13823          	sd	a2,48(sp)
    78fc:	02d13c23          	sd	a3,56(sp)
    7900:	04e13023          	sd	a4,64(sp)
    7904:	04f13423          	sd	a5,72(sp)
    7908:	05013823          	sd	a6,80(sp)
    790c:	05113c23          	sd	a7,88(sp)
    7910:	92dff0ef          	jal	ra,0x723c
    7914:	02055863          	bgez	a0,0x7944
    7918:	ff400513          	li	a0,-12
    791c:	a0cfc0ef          	jal	ra,0x3b28
    7920:	fff00413          	li	s0,-1
    7924:	02813083          	ld	ra,40(sp)
    7928:	00040513          	mv	a0,s0
    792c:	02013403          	ld	s0,32(sp)
    7930:	01813483          	ld	s1,24(sp)
    7934:	01013903          	ld	s2,16(sp)
    7938:	00813983          	ld	s3,8(sp)
    793c:	06010113          	addi	sp,sp,96
    7940:	00008067          	ret
    7944:	00050413          	mv	s0,a0
    7948:	a59ff0ef          	jal	ra,0x73a0
    794c:	00090593          	mv	a1,s2
    7950:	00098613          	mv	a2,s3
    7954:	00050493          	mv	s1,a0
    7958:	620000ef          	jal	ra,0x7f78
    795c:	00050913          	mv	s2,a0
    7960:	00048513          	mv	a0,s1
    7964:	00095c63          	bgez	s2,0x797c
    7968:	ac9ff0ef          	jal	ra,0x7430
    796c:	00048513          	mv	a0,s1
    7970:	ac1ff0ef          	jal	ra,0x7430
    7974:	00090513          	mv	a0,s2
    7978:	fa5ff06f          	j	0x791c
    797c:	ab5ff0ef          	jal	ra,0x7430
    7980:	fa5ff06f          	j	0x7924
    7984:	fe010113          	addi	sp,sp,-32
    7988:	00113c23          	sd	ra,24(sp)
    798c:	00813823          	sd	s0,16(sp)
    7990:	00913423          	sd	s1,8(sp)
    7994:	a0dff0ef          	jal	ra,0x73a0
    7998:	02051263          	bnez	a0,0x79bc
    799c:	ff700513          	li	a0,-9
    79a0:	988fc0ef          	jal	ra,0x3b28
    79a4:	fff00513          	li	a0,-1
    79a8:	01813083          	ld	ra,24(sp)
    79ac:	01013403          	ld	s0,16(sp)
    79b0:	00813483          	ld	s1,8(sp)
    79b4:	02010113          	addi	sp,sp,32
    79b8:	00008067          	ret
    79bc:	00050413          	mv	s0,a0
    79c0:	714000ef          	jal	ra,0x80d4
    79c4:	00050493          	mv	s1,a0
    79c8:	00040513          	mv	a0,s0
    79cc:	a65ff0ef          	jal	ra,0x7430
    79d0:	0004d663          	bgez	s1,0x79dc
    79d4:	00048513          	mv	a0,s1
    79d8:	fc9ff06f          	j	0x79a0
    79dc:	00040513          	mv	a0,s0
    79e0:	a51ff0ef          	jal	ra,0x7430
    79e4:	00000513          	li	a0,0
    79e8:	fc1ff06f          	j	0x79a8
    79ec:	fd010113          	addi	sp,sp,-48
    79f0:	00b13423          	sd	a1,8(sp)
    79f4:	00c13023          	sd	a2,0(sp)
    79f8:	02113423          	sd	ra,40(sp)
    79fc:	02813023          	sd	s0,32(sp)
    7a00:	00913c23          	sd	s1,24(sp)
    7a04:	99dff0ef          	jal	ra,0x73a0
    7a08:	00013603          	ld	a2,0(sp)
    7a0c:	00813583          	ld	a1,8(sp)
    7a10:	02051463          	bnez	a0,0x7a38
    7a14:	ff700513          	li	a0,-9
    7a18:	910fc0ef          	jal	ra,0x3b28
    7a1c:	fff00413          	li	s0,-1
    7a20:	02813083          	ld	ra,40(sp)
    7a24:	00040513          	mv	a0,s0
    7a28:	02013403          	ld	s0,32(sp)
    7a2c:	01813483          	ld	s1,24(sp)
    7a30:	03010113          	addi	sp,sp,48
    7a34:	00008067          	ret
    7a38:	00050493          	mv	s1,a0
    7a3c:	6f8000ef          	jal	ra,0x8134
    7a40:	00050413          	mv	s0,a0
    7a44:	00048513          	mv	a0,s1
    7a48:	00045863          	bgez	s0,0x7a58
    7a4c:	9e5ff0ef          	jal	ra,0x7430
    7a50:	00040513          	mv	a0,s0
    7a54:	fc5ff06f          	j	0x7a18
    7a58:	9d9ff0ef          	jal	ra,0x7430
    7a5c:	fc5ff06f          	j	0x7a20
    7a60:	fd010113          	addi	sp,sp,-48
    7a64:	00b13423          	sd	a1,8(sp)
    7a68:	00c13023          	sd	a2,0(sp)
    7a6c:	02113423          	sd	ra,40(sp)
    7a70:	02813023          	sd	s0,32(sp)
    7a74:	00913c23          	sd	s1,24(sp)
    7a78:	929ff0ef          	jal	ra,0x73a0
    7a7c:	00013603          	ld	a2,0(sp)
    7a80:	00813583          	ld	a1,8(sp)
    7a84:	02051463          	bnez	a0,0x7aac
    7a88:	ff700513          	li	a0,-9
    7a8c:	89cfc0ef          	jal	ra,0x3b28
    7a90:	fff00413          	li	s0,-1
    7a94:	02813083          	ld	ra,40(sp)
    7a98:	00040513          	mv	a0,s0
    7a9c:	02013403          	ld	s0,32(sp)
    7aa0:	01813483          	ld	s1,24(sp)
    7aa4:	03010113          	addi	sp,sp,48
    7aa8:	00008067          	ret
    7aac:	00050493          	mv	s1,a0
    7ab0:	0d9000ef          	jal	ra,0x8388
    7ab4:	00050413          	mv	s0,a0
    7ab8:	00048513          	mv	a0,s1
    7abc:	00045863          	bgez	s0,0x7acc
    7ac0:	971ff0ef          	jal	ra,0x7430
    7ac4:	00040513          	mv	a0,s0
    7ac8:	fc5ff06f          	j	0x7a8c
    7acc:	965ff0ef          	jal	ra,0x7430
    7ad0:	fc5ff06f          	j	0x7a94
    7ad4:	fe010113          	addi	sp,sp,-32
    7ad8:	00813823          	sd	s0,16(sp)
    7adc:	01213023          	sd	s2,0(sp)
    7ae0:	00113c23          	sd	ra,24(sp)
    7ae4:	00913423          	sd	s1,8(sp)
    7ae8:	00058413          	mv	s0,a1
    7aec:	00060913          	mv	s2,a2
    7af0:	8b1ff0ef          	jal	ra,0x73a0
    7af4:	02051663          	bnez	a0,0x7b20
    7af8:	ff700513          	li	a0,-9
    7afc:	82cfc0ef          	jal	ra,0x3b28
    7b00:	fff00413          	li	s0,-1
    7b04:	01813083          	ld	ra,24(sp)
    7b08:	00040513          	mv	a0,s0
    7b0c:	01013403          	ld	s0,16(sp)
    7b10:	00813483          	ld	s1,8(sp)
    7b14:	00013903          	ld	s2,0(sp)
    7b18:	02010113          	addi	sp,sp,32
    7b1c:	00008067          	ret
    7b20:	00100793          	li	a5,1
    7b24:	00050493          	mv	s1,a0
    7b28:	02f90c63          	beq	s2,a5,0x7b60
    7b2c:	00200793          	li	a5,2
    7b30:	02f90e63          	beq	s2,a5,0x7b6c
    7b34:	04091063          	bnez	s2,0x7b74
    7b38:	00048513          	mv	a0,s1
    7b3c:	02044c63          	bltz	s0,0x7b74
    7b40:	00040593          	mv	a1,s0
    7b44:	185000ef          	jal	ra,0x84c8
    7b48:	00050913          	mv	s2,a0
    7b4c:	00048513          	mv	a0,s1
    7b50:	02095863          	bgez	s2,0x7b80
    7b54:	8ddff0ef          	jal	ra,0x7430
    7b58:	00090513          	mv	a0,s2
    7b5c:	fa1ff06f          	j	0x7afc
    7b60:	03853783          	ld	a5,56(a0)
    7b64:	00f40433          	add	s0,s0,a5
    7b68:	fd1ff06f          	j	0x7b38
    7b6c:	03053783          	ld	a5,48(a0)
    7b70:	ff5ff06f          	j	0x7b64
    7b74:	8bdff0ef          	jal	ra,0x7430
    7b78:	fea00513          	li	a0,-22
    7b7c:	f81ff06f          	j	0x7afc
    7b80:	8b1ff0ef          	jal	ra,0x7430
    7b84:	f81ff06f          	j	0x7b04
    7b88:	ff010113          	addi	sp,sp,-16
    7b8c:	00113423          	sd	ra,8(sp)
    7b90:	7ed000ef          	jal	ra,0x8b7c
    7b94:	00055c63          	bgez	a0,0x7bac
    7b98:	f91fb0ef          	jal	ra,0x3b28
    7b9c:	fff00513          	li	a0,-1
    7ba0:	00813083          	ld	ra,8(sp)
    7ba4:	01010113          	addi	sp,sp,16
    7ba8:	00008067          	ret
    7bac:	00000513          	li	a0,0
    7bb0:	ff1ff06f          	j	0x7ba0
    7bb4:	ff010113          	addi	sp,sp,-16
    7bb8:	00113423          	sd	ra,8(sp)
    7bbc:	6b0000ef          	jal	ra,0x826c
    7bc0:	00055c63          	bgez	a0,0x7bd8
    7bc4:	f65fb0ef          	jal	ra,0x3b28
    7bc8:	fff00513          	li	a0,-1
    7bcc:	00813083          	ld	ra,8(sp)
    7bd0:	01010113          	addi	sp,sp,16
    7bd4:	00008067          	ret
    7bd8:	00000513          	li	a0,0
    7bdc:	ff1ff06f          	j	0x7bcc
    7be0:	ff010113          	addi	sp,sp,-16
    7be4:	00113423          	sd	ra,8(sp)
    7be8:	135000ef          	jal	ra,0x851c
    7bec:	00050793          	mv	a5,a0
    7bf0:	00055663          	bgez	a0,0x7bfc
    7bf4:	f35fb0ef          	jal	ra,0x3b28
    7bf8:	fff00793          	li	a5,-1
    7bfc:	00813083          	ld	ra,8(sp)
    7c00:	00078513          	mv	a0,a5
    7c04:	01010113          	addi	sp,sp,16
    7c08:	00008067          	ret
    7c0c:	fe010113          	addi	sp,sp,-32
    7c10:	00813823          	sd	s0,16(sp)
    7c14:	00113c23          	sd	ra,24(sp)
    7c18:	00913423          	sd	s1,8(sp)
    7c1c:	01213023          	sd	s2,0(sp)
    7c20:	00050413          	mv	s0,a0
    7c24:	e18ff0ef          	jal	ra,0x723c
    7c28:	fff00793          	li	a5,-1
    7c2c:	00f51a63          	bne	a0,a5,0x7c40
    7c30:	ff400513          	li	a0,-12
    7c34:	ef5fb0ef          	jal	ra,0x3b28
    7c38:	00000413          	li	s0,0
    7c3c:	04c0006f          	j	0x7c88
    7c40:	00050913          	mv	s2,a0
    7c44:	f5cff0ef          	jal	ra,0x73a0
    7c48:	00040593          	mv	a1,s0
    7c4c:	00010637          	lui	a2,0x10
    7c50:	00050493          	mv	s1,a0
    7c54:	324000ef          	jal	ra,0x7f78
    7c58:	00050413          	mv	s0,a0
    7c5c:	04054e63          	bltz	a0,0x7cb8
    7c60:	20c00513          	li	a0,524
    7c64:	fa9f80ef          	jal	ra,0xc0c
    7c68:	00050413          	mv	s0,a0
    7c6c:	02051c63          	bnez	a0,0x7ca4
    7c70:	00048513          	mv	a0,s1
    7c74:	460000ef          	jal	ra,0x80d4
    7c78:	00048513          	mv	a0,s1
    7c7c:	fb4ff0ef          	jal	ra,0x7430
    7c80:	00048513          	mv	a0,s1
    7c84:	facff0ef          	jal	ra,0x7430
    7c88:	01813083          	ld	ra,24(sp)
    7c8c:	00040513          	mv	a0,s0
    7c90:	01013403          	ld	s0,16(sp)
    7c94:	00813483          	ld	s1,8(sp)
    7c98:	00013903          	ld	s2,0(sp)
    7c9c:	02010113          	addi	sp,sp,32
    7ca0:	00008067          	ret
    7ca4:	20c00613          	li	a2,524
    7ca8:	00000593          	li	a1,0
    7cac:	915f80ef          	jal	ra,0x5c0
    7cb0:	01242023          	sw	s2,0(s0)
    7cb4:	fcdff06f          	j	0x7c80
    7cb8:	00048513          	mv	a0,s1
    7cbc:	f74ff0ef          	jal	ra,0x7430
    7cc0:	00048513          	mv	a0,s1
    7cc4:	f6cff0ef          	jal	ra,0x7430
    7cc8:	00040513          	mv	a0,s0
    7ccc:	f69ff06f          	j	0x7c34
    7cd0:	fd010113          	addi	sp,sp,-48
    7cd4:	00913c23          	sd	s1,24(sp)
    7cd8:	00050493          	mv	s1,a0
    7cdc:	00052503          	lw	a0,0(a0)
    7ce0:	02813023          	sd	s0,32(sp)
    7ce4:	02113423          	sd	ra,40(sp)
    7ce8:	01213823          	sd	s2,16(sp)
    7cec:	01313423          	sd	s3,8(sp)
    7cf0:	eb0ff0ef          	jal	ra,0x73a0
    7cf4:	00050413          	mv	s0,a0
    7cf8:	02051663          	bnez	a0,0x7d24
    7cfc:	ff700513          	li	a0,-9
    7d00:	e29fb0ef          	jal	ra,0x3b28
    7d04:	02813083          	ld	ra,40(sp)
    7d08:	00040513          	mv	a0,s0
    7d0c:	02013403          	ld	s0,32(sp)
    7d10:	01813483          	ld	s1,24(sp)
    7d14:	01013903          	ld	s2,16(sp)
    7d18:	00813983          	ld	s3,8(sp)
    7d1c:	03010113          	addi	sp,sp,48
    7d20:	00008067          	ret
    7d24:	2044a703          	lw	a4,516(s1)
    7d28:	00448993          	addi	s3,s1,4
    7d2c:	02071a63          	bnez	a4,0x7d60
    7d30:	1ff00613          	li	a2,511
    7d34:	00098593          	mv	a1,s3
    7d38:	00040513          	mv	a0,s0
    7d3c:	4fc000ef          	jal	ra,0x8238
    7d40:	00050913          	mv	s2,a0
    7d44:	04a04463          	bgtz	a0,0x7d8c
    7d48:	00040513          	mv	a0,s0
    7d4c:	ee4ff0ef          	jal	ra,0x7430
    7d50:	00090513          	mv	a0,s2
    7d54:	dd5fb0ef          	jal	ra,0x3b28
    7d58:	00000413          	li	s0,0
    7d5c:	fa9ff06f          	j	0x7d04
    7d60:	2084a683          	lw	a3,520(s1)
    7d64:	00d487b3          	add	a5,s1,a3
    7d68:	0067d783          	lhu	a5,6(a5)
    7d6c:	00d786bb          	addw	a3,a5,a3
    7d70:	20d4a423          	sw	a3,520(s1)
    7d74:	fae6dee3          	bge	a3,a4,0x7d30
    7d78:	00040513          	mv	a0,s0
    7d7c:	eb4ff0ef          	jal	ra,0x7430
    7d80:	2084a403          	lw	s0,520(s1)
    7d84:	00898433          	add	s0,s3,s0
    7d88:	f7dff06f          	j	0x7d04
    7d8c:	20a4a223          	sw	a0,516(s1)
    7d90:	2004a423          	sw	zero,520(s1)
    7d94:	fe5ff06f          	j	0x7d78
    7d98:	fe010113          	addi	sp,sp,-32
    7d9c:	00813823          	sd	s0,16(sp)
    7da0:	00050413          	mv	s0,a0
    7da4:	00052503          	lw	a0,0(a0)
    7da8:	00113c23          	sd	ra,24(sp)
    7dac:	00913423          	sd	s1,8(sp)
    7db0:	df0ff0ef          	jal	ra,0x73a0
    7db4:	00051e63          	bnez	a0,0x7dd0
    7db8:	01013403          	ld	s0,16(sp)
    7dbc:	01813083          	ld	ra,24(sp)
    7dc0:	00813483          	ld	s1,8(sp)
    7dc4:	ff700513          	li	a0,-9
    7dc8:	02010113          	addi	sp,sp,32
    7dcc:	d5dfb06f          	j	0x3b28
    7dd0:	00000593          	li	a1,0
    7dd4:	00050493          	mv	s1,a0
    7dd8:	6f0000ef          	jal	ra,0x84c8
    7ddc:	00054663          	bltz	a0,0x7de8
    7de0:	20042423          	sw	zero,520(s0)
    7de4:	20042223          	sw	zero,516(s0)
    7de8:	01013403          	ld	s0,16(sp)
    7dec:	01813083          	ld	ra,24(sp)
    7df0:	00048513          	mv	a0,s1
    7df4:	00813483          	ld	s1,8(sp)
    7df8:	02010113          	addi	sp,sp,32
    7dfc:	e34ff06f          	j	0x7430
    7e00:	fe010113          	addi	sp,sp,-32
    7e04:	01213023          	sd	s2,0(sp)
    7e08:	00050913          	mv	s2,a0
    7e0c:	00052503          	lw	a0,0(a0)
    7e10:	00113c23          	sd	ra,24(sp)
    7e14:	00813823          	sd	s0,16(sp)
    7e18:	00913423          	sd	s1,8(sp)
    7e1c:	d84ff0ef          	jal	ra,0x73a0
    7e20:	02051463          	bnez	a0,0x7e48
    7e24:	ff700513          	li	a0,-9
    7e28:	d01fb0ef          	jal	ra,0x3b28
    7e2c:	fff00513          	li	a0,-1
    7e30:	01813083          	ld	ra,24(sp)
    7e34:	01013403          	ld	s0,16(sp)
    7e38:	00813483          	ld	s1,8(sp)
    7e3c:	00013903          	ld	s2,0(sp)
    7e40:	02010113          	addi	sp,sp,32
    7e44:	00008067          	ret
    7e48:	00050413          	mv	s0,a0
    7e4c:	288000ef          	jal	ra,0x80d4
    7e50:	00050493          	mv	s1,a0
    7e54:	00040513          	mv	a0,s0
    7e58:	dd8ff0ef          	jal	ra,0x7430
    7e5c:	00040513          	mv	a0,s0
    7e60:	dd0ff0ef          	jal	ra,0x7430
    7e64:	00090513          	mv	a0,s2
    7e68:	8f4f90ef          	jal	ra,0xf5c
    7e6c:	00000513          	li	a0,0
    7e70:	fc04d0e3          	bgez	s1,0x7e30
    7e74:	00048513          	mv	a0,s1
    7e78:	fb1ff06f          	j	0x7e28
    7e7c:	fe010113          	addi	sp,sp,-32
    7e80:	00113c23          	sd	ra,24(sp)
    7e84:	00813823          	sd	s0,16(sp)
    7e88:	02051463          	bnez	a0,0x7eb0
    7e8c:	b38ff0ef          	jal	ra,0x71c4
    7e90:	00009597          	auipc	a1,0x9
    7e94:	23858593          	addi	a1,a1,568 # 0x110c8
    7e98:	00007517          	auipc	a0,0x7
    7e9c:	66850513          	addi	a0,a0,1640 # 0xf500
    7ea0:	e98fc0ef          	jal	ra,0x4538
    7ea4:	b8cff0ef          	jal	ra,0x7230
    7ea8:	00000513          	li	a0,0
    7eac:	0240006f          	j	0x7ed0
    7eb0:	00a13423          	sd	a0,8(sp)
    7eb4:	ea0f80ef          	jal	ra,0x554
    7eb8:	10000793          	li	a5,256
    7ebc:	00813583          	ld	a1,8(sp)
    7ec0:	02a7f063          	bgeu	a5,a0,0x7ee0
    7ec4:	fec00513          	li	a0,-20
    7ec8:	c61fb0ef          	jal	ra,0x3b28
    7ecc:	fff00513          	li	a0,-1
    7ed0:	01813083          	ld	ra,24(sp)
    7ed4:	01013403          	ld	s0,16(sp)
    7ed8:	02010113          	addi	sp,sp,32
    7edc:	00008067          	ret
    7ee0:	00000513          	li	a0,0
    7ee4:	e50ff0ef          	jal	ra,0x7534
    7ee8:	00050413          	mv	s0,a0
    7eec:	fc050ce3          	beqz	a0,0x7ec4
    7ef0:	ad4ff0ef          	jal	ra,0x71c4
    7ef4:	00040513          	mv	a0,s0
    7ef8:	d15ff0ef          	jal	ra,0x7c0c
    7efc:	00051a63          	bnez	a0,0x7f10
    7f00:	00040513          	mv	a0,s0
    7f04:	858f90ef          	jal	ra,0xf5c
    7f08:	b28ff0ef          	jal	ra,0x7230
    7f0c:	fc1ff06f          	j	0x7ecc
    7f10:	ef1ff0ef          	jal	ra,0x7e00
    7f14:	10000613          	li	a2,256
    7f18:	00040593          	mv	a1,s0
    7f1c:	00009517          	auipc	a0,0x9
    7f20:	1ac50513          	addi	a0,a0,428 # 0x110c8
    7f24:	e58f80ef          	jal	ra,0x57c
    7f28:	00040513          	mv	a0,s0
    7f2c:	830f90ef          	jal	ra,0xf5c
    7f30:	f75ff06f          	j	0x7ea4
    7f34:	fe010113          	addi	sp,sp,-32
    7f38:	00113c23          	sd	ra,24(sp)
    7f3c:	00813823          	sd	s0,16(sp)
    7f40:	00b13423          	sd	a1,8(sp)
    7f44:	00050413          	mv	s0,a0
    7f48:	a7cff0ef          	jal	ra,0x71c4
    7f4c:	00813603          	ld	a2,8(sp)
    7f50:	00009597          	auipc	a1,0x9
    7f54:	17858593          	addi	a1,a1,376 # 0x110c8
    7f58:	00040513          	mv	a0,s0
    7f5c:	e20f80ef          	jal	ra,0x57c
    7f60:	ad0ff0ef          	jal	ra,0x7230
    7f64:	01813083          	ld	ra,24(sp)
    7f68:	00040513          	mv	a0,s0
    7f6c:	01013403          	ld	s0,16(sp)
    7f70:	02010113          	addi	sp,sp,32
    7f74:	00008067          	ret
    7f78:	fd010113          	addi	sp,sp,-48
    7f7c:	00913c23          	sd	s1,24(sp)
    7f80:	02113423          	sd	ra,40(sp)
    7f84:	02813023          	sd	s0,32(sp)
    7f88:	01213823          	sd	s2,16(sp)
    7f8c:	01313423          	sd	s3,8(sp)
    7f90:	fea00493          	li	s1,-22
    7f94:	02050c63          	beqz	a0,0x7fcc
    7f98:	00050413          	mv	s0,a0
    7f9c:	00000513          	li	a0,0
    7fa0:	00060993          	mv	s3,a2
    7fa4:	d90ff0ef          	jal	ra,0x7534
    7fa8:	00050913          	mv	s2,a0
    7fac:	ff400493          	li	s1,-12
    7fb0:	00050e63          	beqz	a0,0x7fcc
    7fb4:	59d000ef          	jal	ra,0x8d50
    7fb8:	00050493          	mv	s1,a0
    7fbc:	02051863          	bnez	a0,0x7fec
    7fc0:	00090513          	mv	a0,s2
    7fc4:	f99f80ef          	jal	ra,0xf5c
    7fc8:	ffe00493          	li	s1,-2
    7fcc:	02813083          	ld	ra,40(sp)
    7fd0:	02013403          	ld	s0,32(sp)
    7fd4:	01013903          	ld	s2,16(sp)
    7fd8:	00813983          	ld	s3,8(sp)
    7fdc:	00048513          	mv	a0,s1
    7fe0:	01813483          	ld	s1,24(sp)
    7fe4:	03010113          	addi	sp,sp,48
    7fe8:	00008067          	ret
    7fec:	01053783          	ld	a5,16(a0)
    7ff0:	00a43c23          	sd	a0,24(s0)
    7ff4:	0107b703          	ld	a4,16(a5)
    7ff8:	0087a783          	lw	a5,8(a5)
    7ffc:	00041123          	sh	zero,2(s0)
    8000:	02e43023          	sd	a4,32(s0)
    8004:	03342423          	sw	s3,40(s0)
    8008:	02043823          	sd	zero,48(s0)
    800c:	02043c23          	sd	zero,56(s0)
    8010:	04a43023          	sd	a0,64(s0)
    8014:	0017f793          	andi	a5,a5,1
    8018:	04079e63          	bnez	a5,0x8074
    801c:	00853503          	ld	a0,8(a0)
    8020:	00090593          	mv	a1,s2
    8024:	cb4ff0ef          	jal	ra,0x74d8
    8028:	02051e63          	bnez	a0,0x8064
    802c:	00007517          	auipc	a0,0x7
    8030:	e3c50513          	addi	a0,a0,-452 # 0xee68
    8034:	e9dfb0ef          	jal	ra,0x3ed0
    8038:	00a43423          	sd	a0,8(s0)
    803c:	00090513          	mv	a0,s2
    8040:	f1df80ef          	jal	ra,0xf5c
    8044:	02043783          	ld	a5,32(s0)
    8048:	0007b783          	ld	a5,0(a5)
    804c:	02079863          	bnez	a5,0x807c
    8050:	00843503          	ld	a0,8(s0)
    8054:	fda00493          	li	s1,-38
    8058:	f05f80ef          	jal	ra,0xf5c
    805c:	00043423          	sd	zero,8(s0)
    8060:	f6dff06f          	j	0x7fcc
    8064:	0084b503          	ld	a0,8(s1)
    8068:	00090593          	mv	a1,s2
    806c:	c6cff0ef          	jal	ra,0x74d8
    8070:	fc5ff06f          	j	0x8034
    8074:	01243423          	sd	s2,8(s0)
    8078:	fcdff06f          	j	0x8044
    807c:	00040513          	mv	a0,s0
    8080:	000780e7          	jalr	a5
    8084:	00050493          	mv	s1,a0
    8088:	00055a63          	bgez	a0,0x809c
    808c:	00843503          	ld	a0,8(s0)
    8090:	ecdf80ef          	jal	ra,0xf5c
    8094:	00043423          	sd	zero,8(s0)
    8098:	f35ff06f          	j	0x7fcc
    809c:	02842783          	lw	a5,40(s0)
    80a0:	01000737          	lui	a4,0x1000
    80a4:	000104b7          	lui	s1,0x10
    80a8:	00e7e733          	or	a4,a5,a4
    80ac:	02e42423          	sw	a4,40(s0)
    80b0:	0099f4b3          	and	s1,s3,s1
    80b4:	f0048ce3          	beqz	s1,0x7fcc
    80b8:	00200713          	li	a4,2
    80bc:	00e41123          	sh	a4,2(s0)
    80c0:	03000737          	lui	a4,0x3000
    80c4:	00e7e7b3          	or	a5,a5,a4
    80c8:	02f42423          	sw	a5,40(s0)
    80cc:	00000493          	li	s1,0
    80d0:	efdff06f          	j	0x7fcc
    80d4:	fe010113          	addi	sp,sp,-32
    80d8:	00813823          	sd	s0,16(sp)
    80dc:	00113c23          	sd	ra,24(sp)
    80e0:	00913423          	sd	s1,8(sp)
    80e4:	ffa00413          	li	s0,-6
    80e8:	02050063          	beqz	a0,0x8108
    80ec:	02053783          	ld	a5,32(a0)
    80f0:	00050493          	mv	s1,a0
    80f4:	0087b783          	ld	a5,8(a5)
    80f8:	02078463          	beqz	a5,0x8120
    80fc:	000780e7          	jalr	a5
    8100:	00050413          	mv	s0,a0
    8104:	02055063          	bgez	a0,0x8124
    8108:	01813083          	ld	ra,24(sp)
    810c:	00040513          	mv	a0,s0
    8110:	01013403          	ld	s0,16(sp)
    8114:	00813483          	ld	s1,8(sp)
    8118:	02010113          	addi	sp,sp,32
    811c:	00008067          	ret
    8120:	00000413          	li	s0,0
    8124:	0084b503          	ld	a0,8(s1) # 0x10008
    8128:	e35f80ef          	jal	ra,0xf5c
    812c:	0004b423          	sd	zero,8(s1)
    8130:	fd9ff06f          	j	0x8108
    8134:	04050a63          	beqz	a0,0x8188
    8138:	02053783          	ld	a5,32(a0)
    813c:	ff010113          	addi	sp,sp,-16
    8140:	00813023          	sd	s0,0(sp)
    8144:	0187b703          	ld	a4,24(a5)
    8148:	00113423          	sd	ra,8(sp)
    814c:	00050413          	mv	s0,a0
    8150:	fda00793          	li	a5,-38
    8154:	02070063          	beqz	a4,0x8174
    8158:	000700e7          	jalr	a4 # 0x3000000
    815c:	00050793          	mv	a5,a0
    8160:	00055a63          	bgez	a0,0x8174
    8164:	02842703          	lw	a4,40(s0)
    8168:	040006b7          	lui	a3,0x4000
    816c:	00d76733          	or	a4,a4,a3
    8170:	02e42423          	sw	a4,40(s0)
    8174:	00813083          	ld	ra,8(sp)
    8178:	00013403          	ld	s0,0(sp)
    817c:	00078513          	mv	a0,a5
    8180:	01010113          	addi	sp,sp,16
    8184:	00008067          	ret
    8188:	fea00793          	li	a5,-22
    818c:	00078513          	mv	a0,a5
    8190:	00008067          	ret
    8194:	f8010113          	addi	sp,sp,-128
    8198:	00050593          	mv	a1,a0
    819c:	00a13423          	sd	a0,8(sp)
    81a0:	00000613          	li	a2,0
    81a4:	0001a517          	auipc	a0,0x1a
    81a8:	1dc50513          	addi	a0,a0,476 # 0x22380
    81ac:	06813823          	sd	s0,112(sp)
    81b0:	06113c23          	sd	ra,120(sp)
    81b4:	dc5ff0ef          	jal	ra,0x7f78
    81b8:	00813583          	ld	a1,8(sp)
    81bc:	00007417          	auipc	s0,0x7
    81c0:	cc440413          	addi	s0,s0,-828 # 0xee80
    81c4:	02055063          	bgez	a0,0x81e4
    81c8:	00007517          	auipc	a0,0x7
    81cc:	ca850513          	addi	a0,a0,-856 # 0xee70
    81d0:	b68fc0ef          	jal	ra,0x4538
    81d4:	07813083          	ld	ra,120(sp)
    81d8:	07013403          	ld	s0,112(sp)
    81dc:	08010113          	addi	sp,sp,128
    81e0:	00008067          	ret
    81e4:	05100613          	li	a2,81
    81e8:	00000593          	li	a1,0
    81ec:	01810513          	addi	a0,sp,24
    81f0:	bd0f80ef          	jal	ra,0x5c0
    81f4:	05000613          	li	a2,80
    81f8:	01810593          	addi	a1,sp,24
    81fc:	0001a517          	auipc	a0,0x1a
    8200:	18450513          	addi	a0,a0,388 # 0x22380
    8204:	f31ff0ef          	jal	ra,0x8134
    8208:	00050a63          	beqz	a0,0x821c
    820c:	01810593          	addi	a1,sp,24
    8210:	00040513          	mv	a0,s0
    8214:	b24fc0ef          	jal	ra,0x4538
    8218:	fcdff06f          	j	0x81e4
    821c:	00008517          	auipc	a0,0x8
    8220:	c1c50513          	addi	a0,a0,-996 # 0xfe38
    8224:	b14fc0ef          	jal	ra,0x4538
    8228:	0001a517          	auipc	a0,0x1a
    822c:	15850513          	addi	a0,a0,344 # 0x22380
    8230:	ea5ff0ef          	jal	ra,0x80d4
    8234:	fa1ff06f          	j	0x81d4
    8238:	02050263          	beqz	a0,0x825c
    823c:	00255683          	lhu	a3,2(a0)
    8240:	00200713          	li	a4,2
    8244:	00e69c63          	bne	a3,a4,0x825c
    8248:	02053783          	ld	a5,32(a0)
    824c:	0387b303          	ld	t1,56(a5)
    8250:	00030a63          	beqz	t1,0x8264
    8254:	0006061b          	sext.w	a2,a2
    8258:	00030067          	jr	t1
    825c:	fea00513          	li	a0,-22
    8260:	00008067          	ret
    8264:	fda00513          	li	a0,-38
    8268:	00008067          	ret
    826c:	fe010113          	addi	sp,sp,-32
    8270:	00050593          	mv	a1,a0
    8274:	00000513          	li	a0,0
    8278:	00813823          	sd	s0,16(sp)
    827c:	00113c23          	sd	ra,24(sp)
    8280:	00913423          	sd	s1,8(sp)
    8284:	01213023          	sd	s2,0(sp)
    8288:	aacff0ef          	jal	ra,0x7534
    828c:	fea00413          	li	s0,-22
    8290:	06050c63          	beqz	a0,0x8308
    8294:	00050913          	mv	s2,a0
    8298:	2b9000ef          	jal	ra,0x8d50
    829c:	00050493          	mv	s1,a0
    82a0:	ffe00413          	li	s0,-2
    82a4:	04050e63          	beqz	a0,0x8300
    82a8:	00090513          	mv	a0,s2
    82ac:	c74ff0ef          	jal	ra,0x7720
    82b0:	ff000413          	li	s0,-16
    82b4:	04050663          	beqz	a0,0x8300
    82b8:	0104b783          	ld	a5,16(s1)
    82bc:	fda00413          	li	s0,-38
    82c0:	0387b703          	ld	a4,56(a5)
    82c4:	02070e63          	beqz	a4,0x8300
    82c8:	0087a783          	lw	a5,8(a5)
    82cc:	00090593          	mv	a1,s2
    82d0:	0017f793          	andi	a5,a5,1
    82d4:	06079863          	bnez	a5,0x8344
    82d8:	0084b503          	ld	a0,8(s1)
    82dc:	9fcff0ef          	jal	ra,0x74d8
    82e0:	0104b783          	ld	a5,16(s1)
    82e4:	04051063          	bnez	a0,0x8324
    82e8:	0387b783          	ld	a5,56(a5)
    82ec:	00007597          	auipc	a1,0x7
    82f0:	b7c58593          	addi	a1,a1,-1156 # 0xee68
    82f4:	00048513          	mv	a0,s1
    82f8:	000780e7          	jalr	a5
    82fc:	00050413          	mv	s0,a0
    8300:	00090513          	mv	a0,s2
    8304:	c59f80ef          	jal	ra,0xf5c
    8308:	01813083          	ld	ra,24(sp)
    830c:	00040513          	mv	a0,s0
    8310:	01013403          	ld	s0,16(sp)
    8314:	00813483          	ld	s1,8(sp)
    8318:	00013903          	ld	s2,0(sp)
    831c:	02010113          	addi	sp,sp,32
    8320:	00008067          	ret
    8324:	0084b503          	ld	a0,8(s1)
    8328:	00090593          	mv	a1,s2
    832c:	0387b403          	ld	s0,56(a5)
    8330:	9a8ff0ef          	jal	ra,0x74d8
    8334:	00050593          	mv	a1,a0
    8338:	00048513          	mv	a0,s1
    833c:	000400e7          	jalr	s0
    8340:	fbdff06f          	j	0x82fc
    8344:	00048513          	mv	a0,s1
    8348:	000700e7          	jalr	a4
    834c:	fb1ff06f          	j	0x82fc
    8350:	fe010113          	addi	sp,sp,-32
    8354:	00113c23          	sd	ra,24(sp)
    8358:	00a13423          	sd	a0,8(sp)
    835c:	f11ff0ef          	jal	ra,0x826c
    8360:	00813583          	ld	a1,8(sp)
    8364:	00055c63          	bgez	a0,0x837c
    8368:	01813083          	ld	ra,24(sp)
    836c:	00007517          	auipc	a0,0x7
    8370:	b1c50513          	addi	a0,a0,-1252 # 0xee88
    8374:	02010113          	addi	sp,sp,32
    8378:	9c0fc06f          	j	0x4538
    837c:	01813083          	ld	ra,24(sp)
    8380:	02010113          	addi	sp,sp,32
    8384:	00008067          	ret
    8388:	00050a63          	beqz	a0,0x839c
    838c:	02053783          	ld	a5,32(a0)
    8390:	0207b303          	ld	t1,32(a5)
    8394:	00030863          	beqz	t1,0x83a4
    8398:	00030067          	jr	t1
    839c:	fea00513          	li	a0,-22
    83a0:	00008067          	ret
    83a4:	fda00513          	li	a0,-38
    83a8:	00008067          	ret
    83ac:	f9010113          	addi	sp,sp,-112
    83b0:	05213823          	sd	s2,80(sp)
    83b4:	00050913          	mv	s2,a0
    83b8:	00001537          	lui	a0,0x1
    83bc:	04913c23          	sd	s1,88(sp)
    83c0:	06113423          	sd	ra,104(sp)
    83c4:	06813023          	sd	s0,96(sp)
    83c8:	00058493          	mv	s1,a1
    83cc:	841f80ef          	jal	ra,0xc0c
    83d0:	02051463          	bnez	a0,0x83f8
    83d4:	00007517          	auipc	a0,0x7
    83d8:	acc50513          	addi	a0,a0,-1332 # 0xeea0
    83dc:	95cfc0ef          	jal	ra,0x4538
    83e0:	06813083          	ld	ra,104(sp)
    83e4:	06013403          	ld	s0,96(sp)
    83e8:	05813483          	ld	s1,88(sp)
    83ec:	05013903          	ld	s2,80(sp)
    83f0:	07010113          	addi	sp,sp,112
    83f4:	00008067          	ret
    83f8:	00050413          	mv	s0,a0
    83fc:	00000613          	li	a2,0
    8400:	00090593          	mv	a1,s2
    8404:	00810513          	addi	a0,sp,8
    8408:	b71ff0ef          	jal	ra,0x7f78
    840c:	02055063          	bgez	a0,0x842c
    8410:	00040513          	mv	a0,s0
    8414:	b49f80ef          	jal	ra,0xf5c
    8418:	00090593          	mv	a1,s2
    841c:	00007517          	auipc	a0,0x7
    8420:	a9450513          	addi	a0,a0,-1388 # 0xeeb0
    8424:	914fc0ef          	jal	ra,0x4538
    8428:	fb9ff06f          	j	0x83e0
    842c:	04100613          	li	a2,65
    8430:	00048593          	mv	a1,s1
    8434:	0001a517          	auipc	a0,0x1a
    8438:	f4c50513          	addi	a0,a0,-180 # 0x22380
    843c:	b3dff0ef          	jal	ra,0x7f78
    8440:	0001a917          	auipc	s2,0x1a
    8444:	f4090913          	addi	s2,s2,-192 # 0x22380
    8448:	02055263          	bgez	a0,0x846c
    844c:	00040513          	mv	a0,s0
    8450:	b0df80ef          	jal	ra,0xf5c
    8454:	00810513          	addi	a0,sp,8
    8458:	c7dff0ef          	jal	ra,0x80d4
    845c:	00048593          	mv	a1,s1
    8460:	00007517          	auipc	a0,0x7
    8464:	a6050513          	addi	a0,a0,-1440 # 0xeec0
    8468:	fbdff06f          	j	0x8424
    846c:	00001637          	lui	a2,0x1
    8470:	00040593          	mv	a1,s0
    8474:	00810513          	addi	a0,sp,8
    8478:	cbdff0ef          	jal	ra,0x8134
    847c:	00050493          	mv	s1,a0
    8480:	02a05463          	blez	a0,0x84a8
    8484:	00050613          	mv	a2,a0
    8488:	00040593          	mv	a1,s0
    848c:	00090513          	mv	a0,s2
    8490:	ef9ff0ef          	jal	ra,0x8388
    8494:	00050593          	mv	a1,a0
    8498:	fca48ae3          	beq	s1,a0,0x846c
    849c:	00007517          	auipc	a0,0x7
    84a0:	a3c50513          	addi	a0,a0,-1476 # 0xeed8
    84a4:	894fc0ef          	jal	ra,0x4538
    84a8:	00810513          	addi	a0,sp,8
    84ac:	c29ff0ef          	jal	ra,0x80d4
    84b0:	0001a517          	auipc	a0,0x1a
    84b4:	ed050513          	addi	a0,a0,-304 # 0x22380
    84b8:	c1dff0ef          	jal	ra,0x80d4
    84bc:	00040513          	mv	a0,s0
    84c0:	a9df80ef          	jal	ra,0xf5c
    84c4:	f1dff06f          	j	0x83e0
    84c8:	04050463          	beqz	a0,0x8510
    84cc:	02053783          	ld	a5,32(a0)
    84d0:	ff010113          	addi	sp,sp,-16
    84d4:	00813023          	sd	s0,0(sp)
    84d8:	0307b703          	ld	a4,48(a5)
    84dc:	00113423          	sd	ra,8(sp)
    84e0:	00050413          	mv	s0,a0
    84e4:	fda00793          	li	a5,-38
    84e8:	00070a63          	beqz	a4,0x84fc
    84ec:	000700e7          	jalr	a4
    84f0:	00050793          	mv	a5,a0
    84f4:	00054463          	bltz	a0,0x84fc
    84f8:	02a43c23          	sd	a0,56(s0)
    84fc:	00813083          	ld	ra,8(sp)
    8500:	00013403          	ld	s0,0(sp)
    8504:	00078513          	mv	a0,a5
    8508:	01010113          	addi	sp,sp,16
    850c:	00008067          	ret
    8510:	fea00793          	li	a5,-22
    8514:	00078513          	mv	a0,a5
    8518:	00008067          	ret
    851c:	fd010113          	addi	sp,sp,-48
    8520:	01213823          	sd	s2,16(sp)
    8524:	00058913          	mv	s2,a1
    8528:	00050593          	mv	a1,a0
    852c:	00000513          	li	a0,0
    8530:	00913c23          	sd	s1,24(sp)
    8534:	02113423          	sd	ra,40(sp)
    8538:	02813023          	sd	s0,32(sp)
    853c:	01313423          	sd	s3,8(sp)
    8540:	ff5fe0ef          	jal	ra,0x7534
    8544:	fff00493          	li	s1,-1
    8548:	04050463          	beqz	a0,0x8590
    854c:	00050413          	mv	s0,a0
    8550:	001000ef          	jal	ra,0x8d50
    8554:	00050493          	mv	s1,a0
    8558:	04051c63          	bnez	a0,0x85b0
    855c:	00006517          	auipc	a0,0x6
    8560:	7ec50513          	addi	a0,a0,2028 # 0xed48
    8564:	fd5fb0ef          	jal	ra,0x4538
    8568:	00040593          	mv	a1,s0
    856c:	00007517          	auipc	a0,0x7
    8570:	99450513          	addi	a0,a0,-1644 # 0xef00
    8574:	fc5fb0ef          	jal	ra,0x4538
    8578:	00008517          	auipc	a0,0x8
    857c:	8c050513          	addi	a0,a0,-1856 # 0xfe38
    8580:	fb9fb0ef          	jal	ra,0x4538
    8584:	00040513          	mv	a0,s0
    8588:	9d5f80ef          	jal	ra,0xf5c
    858c:	ffe00493          	li	s1,-2
    8590:	02813083          	ld	ra,40(sp)
    8594:	02013403          	ld	s0,32(sp)
    8598:	01013903          	ld	s2,16(sp)
    859c:	00813983          	ld	s3,8(sp)
    85a0:	00048513          	mv	a0,s1
    85a4:	01813483          	ld	s1,24(sp)
    85a8:	03010113          	addi	sp,sp,48
    85ac:	00008067          	ret
    85b0:	00044703          	lbu	a4,0(s0)
    85b4:	02f00793          	li	a5,47
    85b8:	02f71a63          	bne	a4,a5,0x85ec
    85bc:	00144783          	lbu	a5,1(s0)
    85c0:	02079663          	bnez	a5,0x85ec
    85c4:	000047b7          	lui	a5,0x4
    85c8:	1ff7879b          	addiw	a5,a5,511
    85cc:	00093023          	sd	zero,0(s2)
    85d0:	00f92823          	sw	a5,16(s2)
    85d4:	02093823          	sd	zero,48(s2)
    85d8:	04093c23          	sd	zero,88(s2)
    85dc:	00040513          	mv	a0,s0
    85e0:	97df80ef          	jal	ra,0xf5c
    85e4:	00000493          	li	s1,0
    85e8:	fa9ff06f          	j	0x8590
    85ec:	0084b503          	ld	a0,8(s1)
    85f0:	00040593          	mv	a1,s0
    85f4:	ee5fe0ef          	jal	ra,0x74d8
    85f8:	fc0506e3          	beqz	a0,0x85c4
    85fc:	0104b783          	ld	a5,16(s1)
    8600:	0407b983          	ld	s3,64(a5) # 0x4040
    8604:	02099c63          	bnez	s3,0x863c
    8608:	00040513          	mv	a0,s0
    860c:	951f80ef          	jal	ra,0xf5c
    8610:	00006517          	auipc	a0,0x6
    8614:	73850513          	addi	a0,a0,1848 # 0xed48
    8618:	f21fb0ef          	jal	ra,0x4538
    861c:	00007517          	auipc	a0,0x7
    8620:	91450513          	addi	a0,a0,-1772 # 0xef30
    8624:	f15fb0ef          	jal	ra,0x4538
    8628:	00008517          	auipc	a0,0x8
    862c:	81050513          	addi	a0,a0,-2032 # 0xfe38
    8630:	f09fb0ef          	jal	ra,0x4538
    8634:	fda00493          	li	s1,-38
    8638:	f59ff06f          	j	0x8590
    863c:	0087a783          	lw	a5,8(a5)
    8640:	0017f793          	andi	a5,a5,1
    8644:	02078263          	beqz	a5,0x8668
    8648:	00090613          	mv	a2,s2
    864c:	00040593          	mv	a1,s0
    8650:	00048513          	mv	a0,s1
    8654:	000980e7          	jalr	s3
    8658:	00050493          	mv	s1,a0
    865c:	00040513          	mv	a0,s0
    8660:	8fdf80ef          	jal	ra,0xf5c
    8664:	f2dff06f          	j	0x8590
    8668:	0084b503          	ld	a0,8(s1)
    866c:	00040593          	mv	a1,s0
    8670:	e69fe0ef          	jal	ra,0x74d8
    8674:	00050593          	mv	a1,a0
    8678:	00090613          	mv	a2,s2
    867c:	fd5ff06f          	j	0x8650
    8680:	f2010113          	addi	sp,sp,-224
    8684:	0c813823          	sd	s0,208(sp)
    8688:	0c913423          	sd	s1,200(sp)
    868c:	0c113c23          	sd	ra,216(sp)
    8690:	0d213023          	sd	s2,192(sp)
    8694:	0b313c23          	sd	s3,184(sp)
    8698:	0b413823          	sd	s4,176(sp)
    869c:	0b513423          	sd	s5,168(sp)
    86a0:	0b613023          	sd	s6,160(sp)
    86a4:	09713c23          	sd	s7,152(sp)
    86a8:	09813823          	sd	s8,144(sp)
    86ac:	09913423          	sd	s9,136(sp)
    86b0:	00050493          	mv	s1,a0
    86b4:	00050413          	mv	s0,a0
    86b8:	00051c63          	bnez	a0,0x86d0
    86bc:	00009517          	auipc	a0,0x9
    86c0:	a0c50513          	addi	a0,a0,-1524 # 0x110c8
    86c4:	80dfb0ef          	jal	ra,0x3ed0
    86c8:	00050413          	mv	s0,a0
    86cc:	10050e63          	beqz	a0,0x87e8
    86d0:	00010637          	lui	a2,0x10
    86d4:	00040593          	mv	a1,s0
    86d8:	0001a517          	auipc	a0,0x1a
    86dc:	ca850513          	addi	a0,a0,-856 # 0x22380
    86e0:	899ff0ef          	jal	ra,0x7f78
    86e4:	12051c63          	bnez	a0,0x881c
    86e8:	00040593          	mv	a1,s0
    86ec:	00007517          	auipc	a0,0x7
    86f0:	87450513          	addi	a0,a0,-1932 # 0xef60
    86f4:	e45fb0ef          	jal	ra,0x4538
    86f8:	0001aa17          	auipc	s4,0x1a
    86fc:	b80a0a13          	addi	s4,s4,-1152 # 0x22278
    8700:	0001aa97          	auipc	s5,0x1a
    8704:	c80a8a93          	addi	s5,s5,-896 # 0x22380
    8708:	0001a997          	auipc	s3,0x1a
    870c:	b7498993          	addi	s3,s3,-1164 # 0x2227c
    8710:	00007b17          	auipc	s6,0x7
    8714:	880b0b13          	addi	s6,s6,-1920 # 0xef90
    8718:	00007b97          	auipc	s7,0x7
    871c:	858b8b93          	addi	s7,s7,-1960 # 0xef70
    8720:	0000fc37          	lui	s8,0xf
    8724:	00004cb7          	lui	s9,0x4
    8728:	10400613          	li	a2,260
    872c:	00000593          	li	a1,0
    8730:	000a0513          	mv	a0,s4
    8734:	e8df70ef          	jal	ra,0x5c0
    8738:	10400613          	li	a2,260
    873c:	000a0593          	mv	a1,s4
    8740:	000a8513          	mv	a0,s5
    8744:	af5ff0ef          	jal	ra,0x8238
    8748:	08a05463          	blez	a0,0x87d0
    874c:	08000613          	li	a2,128
    8750:	00000593          	li	a1,0
    8754:	00010513          	mv	a0,sp
    8758:	e69f70ef          	jal	ra,0x5c0
    875c:	00098593          	mv	a1,s3
    8760:	00040513          	mv	a0,s0
    8764:	dd1fe0ef          	jal	ra,0x7534
    8768:	00050913          	mv	s2,a0
    876c:	06050263          	beqz	a0,0x87d0
    8770:	00010593          	mv	a1,sp
    8774:	da9ff0ef          	jal	ra,0x851c
    8778:	00098593          	mv	a1,s3
    877c:	04051663          	bnez	a0,0x87c8
    8780:	000b8513          	mv	a0,s7
    8784:	db5fb0ef          	jal	ra,0x4538
    8788:	01012783          	lw	a5,16(sp)
    878c:	0187f7b3          	and	a5,a5,s8
    8790:	0007879b          	sext.w	a5,a5
    8794:	03979263          	bne	a5,s9,0x87b8
    8798:	00006597          	auipc	a1,0x6
    879c:	7e058593          	addi	a1,a1,2016 # 0xef78
    87a0:	00006517          	auipc	a0,0x6
    87a4:	7e050513          	addi	a0,a0,2016 # 0xef80
    87a8:	d91fb0ef          	jal	ra,0x4538
    87ac:	00090513          	mv	a0,s2
    87b0:	facf80ef          	jal	ra,0xf5c
    87b4:	f75ff06f          	j	0x8728
    87b8:	03013583          	ld	a1,48(sp)
    87bc:	00006517          	auipc	a0,0x6
    87c0:	7cc50513          	addi	a0,a0,1996 # 0xef88
    87c4:	fe5ff06f          	j	0x87a8
    87c8:	000b0513          	mv	a0,s6
    87cc:	fddff06f          	j	0x87a8
    87d0:	0001a517          	auipc	a0,0x1a
    87d4:	bb050513          	addi	a0,a0,-1104 # 0x22380
    87d8:	8fdff0ef          	jal	ra,0x80d4
    87dc:	00049663          	bnez	s1,0x87e8
    87e0:	00040513          	mv	a0,s0
    87e4:	f78f80ef          	jal	ra,0xf5c
    87e8:	0d813083          	ld	ra,216(sp)
    87ec:	0d013403          	ld	s0,208(sp)
    87f0:	0c813483          	ld	s1,200(sp)
    87f4:	0c013903          	ld	s2,192(sp)
    87f8:	0b813983          	ld	s3,184(sp)
    87fc:	0b013a03          	ld	s4,176(sp)
    8800:	0a813a83          	ld	s5,168(sp)
    8804:	0a013b03          	ld	s6,160(sp)
    8808:	09813b83          	ld	s7,152(sp)
    880c:	09013c03          	ld	s8,144(sp)
    8810:	08813c83          	ld	s9,136(sp)
    8814:	0e010113          	addi	sp,sp,224
    8818:	00008067          	ret
    881c:	00006517          	auipc	a0,0x6
    8820:	78450513          	addi	a0,a0,1924 # 0xefa0
    8824:	d15fb0ef          	jal	ra,0x4538
    8828:	fb5ff06f          	j	0x87dc
    882c:	de010113          	addi	sp,sp,-544
    8830:	21213023          	sd	s2,512(sp)
    8834:	1f313c23          	sd	s3,504(sp)
    8838:	00050913          	mv	s2,a0
    883c:	00058993          	mv	s3,a1
    8840:	00010637          	lui	a2,0x10
    8844:	00050593          	mv	a1,a0
    8848:	00010513          	mv	a0,sp
    884c:	20113c23          	sd	ra,536(sp)
    8850:	20813823          	sd	s0,528(sp)
    8854:	20913423          	sd	s1,520(sp)
    8858:	1f413823          	sd	s4,496(sp)
    885c:	1f513423          	sd	s5,488(sp)
    8860:	1f613023          	sd	s6,480(sp)
    8864:	1d713c23          	sd	s7,472(sp)
    8868:	1d813823          	sd	s8,464(sp)
    886c:	f0cff0ef          	jal	ra,0x7f78
    8870:	08054a63          	bltz	a0,0x8904
    8874:	00006a17          	auipc	s4,0x6
    8878:	754a0a13          	addi	s4,s4,1876 # 0xefc8
    887c:	00007a97          	auipc	s5,0x7
    8880:	8cca8a93          	addi	s5,s5,-1844 # 0xf148
    8884:	0000fb37          	lui	s6,0xf
    8888:	00004bb7          	lui	s7,0x4
    888c:	00006c17          	auipc	s8,0x6
    8890:	754c0c13          	addi	s8,s8,1876 # 0xefe0
    8894:	10400613          	li	a2,260
    8898:	00000593          	li	a1,0
    889c:	0c810513          	addi	a0,sp,200
    88a0:	d21f70ef          	jal	ra,0x5c0
    88a4:	10400613          	li	a2,260
    88a8:	0c810593          	addi	a1,sp,200
    88ac:	00010513          	mv	a0,sp
    88b0:	989ff0ef          	jal	ra,0x8238
    88b4:	04a05263          	blez	a0,0x88f8
    88b8:	000a0593          	mv	a1,s4
    88bc:	0cc10513          	addi	a0,sp,204
    88c0:	cf9f70ef          	jal	ra,0x5b8
    88c4:	fc0508e3          	beqz	a0,0x8894
    88c8:	000a8593          	mv	a1,s5
    88cc:	0cc10513          	addi	a0,sp,204
    88d0:	ce9f70ef          	jal	ra,0x5b8
    88d4:	fc0500e3          	beqz	a0,0x8894
    88d8:	0cc10593          	addi	a1,sp,204
    88dc:	00090513          	mv	a0,s2
    88e0:	c55fe0ef          	jal	ra,0x7534
    88e4:	00050413          	mv	s0,a0
    88e8:	04051e63          	bnez	a0,0x8944
    88ec:	00006517          	auipc	a0,0x6
    88f0:	6e450513          	addi	a0,a0,1764 # 0xefd0
    88f4:	c45fb0ef          	jal	ra,0x4538
    88f8:	00010513          	mv	a0,sp
    88fc:	fd8ff0ef          	jal	ra,0x80d4
    8900:	0140006f          	j	0x8914
    8904:	00090593          	mv	a1,s2
    8908:	00006517          	auipc	a0,0x6
    890c:	6b050513          	addi	a0,a0,1712 # 0xefb8
    8910:	c29fb0ef          	jal	ra,0x4538
    8914:	21813083          	ld	ra,536(sp)
    8918:	21013403          	ld	s0,528(sp)
    891c:	20813483          	ld	s1,520(sp)
    8920:	20013903          	ld	s2,512(sp)
    8924:	1f813983          	ld	s3,504(sp)
    8928:	1f013a03          	ld	s4,496(sp)
    892c:	1e813a83          	ld	s5,488(sp)
    8930:	1e013b03          	ld	s6,480(sp)
    8934:	1d813b83          	ld	s7,472(sp)
    8938:	1d013c03          	ld	s8,464(sp)
    893c:	22010113          	addi	sp,sp,544
    8940:	00008067          	ret
    8944:	0cc10593          	addi	a1,sp,204
    8948:	00098513          	mv	a0,s3
    894c:	be9fe0ef          	jal	ra,0x7534
    8950:	00050493          	mv	s1,a0
    8954:	00051e63          	bnez	a0,0x8970
    8958:	00006517          	auipc	a0,0x6
    895c:	67850513          	addi	a0,a0,1656 # 0xefd0
    8960:	bd9fb0ef          	jal	ra,0x4538
    8964:	00040513          	mv	a0,s0
    8968:	df4f80ef          	jal	ra,0xf5c
    896c:	f8dff06f          	j	0x88f8
    8970:	00000593          	li	a1,0
    8974:	08000613          	li	a2,128
    8978:	04810513          	addi	a0,sp,72
    897c:	c45f70ef          	jal	ra,0x5c0
    8980:	04810593          	addi	a1,sp,72
    8984:	00040513          	mv	a0,s0
    8988:	b95ff0ef          	jal	ra,0x851c
    898c:	00050a63          	beqz	a0,0x89a0
    8990:	0cc10593          	addi	a1,sp,204
    8994:	000c0513          	mv	a0,s8
    8998:	ba1fb0ef          	jal	ra,0x4538
    899c:	ef9ff06f          	j	0x8894
    89a0:	05812783          	lw	a5,88(sp)
    89a4:	0167f7b3          	and	a5,a5,s6
    89a8:	0007879b          	sext.w	a5,a5
    89ac:	03779863          	bne	a5,s7,0x89dc
    89b0:	00000593          	li	a1,0
    89b4:	00048513          	mv	a0,s1
    89b8:	e81fe0ef          	jal	ra,0x7838
    89bc:	00048593          	mv	a1,s1
    89c0:	00040513          	mv	a0,s0
    89c4:	e69ff0ef          	jal	ra,0x882c
    89c8:	00040513          	mv	a0,s0
    89cc:	d90f80ef          	jal	ra,0xf5c
    89d0:	00048513          	mv	a0,s1
    89d4:	d88f80ef          	jal	ra,0xf5c
    89d8:	ebdff06f          	j	0x8894
    89dc:	00048593          	mv	a1,s1
    89e0:	00040513          	mv	a0,s0
    89e4:	9c9ff0ef          	jal	ra,0x83ac
    89e8:	fe1ff06f          	j	0x89c8
    89ec:	f6010113          	addi	sp,sp,-160
    89f0:	09213023          	sd	s2,128(sp)
    89f4:	00058913          	mv	s2,a1
    89f8:	00010593          	mv	a1,sp
    89fc:	08813823          	sd	s0,144(sp)
    8a00:	08113c23          	sd	ra,152(sp)
    8a04:	08913423          	sd	s1,136(sp)
    8a08:	00050413          	mv	s0,a0
    8a0c:	b11ff0ef          	jal	ra,0x851c
    8a10:	02055663          	bgez	a0,0x8a3c
    8a14:	00040593          	mv	a1,s0
    8a18:	00006517          	auipc	a0,0x6
    8a1c:	5e050513          	addi	a0,a0,1504 # 0xeff8
    8a20:	b19fb0ef          	jal	ra,0x4538
    8a24:	09813083          	ld	ra,152(sp)
    8a28:	09013403          	ld	s0,144(sp)
    8a2c:	08813483          	ld	s1,136(sp)
    8a30:	08013903          	ld	s2,128(sp)
    8a34:	0a010113          	addi	sp,sp,160
    8a38:	00008067          	ret
    8a3c:	01012783          	lw	a5,16(sp)
    8a40:	0000f737          	lui	a4,0xf
    8a44:	00100493          	li	s1,1
    8a48:	00e7f7b3          	and	a5,a5,a4
    8a4c:	00004737          	lui	a4,0x4
    8a50:	00e78463          	beq	a5,a4,0x8a58
    8a54:	00200493          	li	s1,2
    8a58:	00010593          	mv	a1,sp
    8a5c:	00090513          	mv	a0,s2
    8a60:	abdff0ef          	jal	ra,0x851c
    8a64:	00054e63          	bltz	a0,0x8a80
    8a68:	01012783          	lw	a5,16(sp)
    8a6c:	0000f737          	lui	a4,0xf
    8a70:	00e7f7b3          	and	a5,a5,a4
    8a74:	00004737          	lui	a4,0x4
    8a78:	06e79663          	bne	a5,a4,0x8ae4
    8a7c:	0044e493          	ori	s1,s1,4
    8a80:	0094f793          	andi	a5,s1,9
    8a84:	00900693          	li	a3,9
    8a88:	00048713          	mv	a4,s1
    8a8c:	00006517          	auipc	a0,0x6
    8a90:	58450513          	addi	a0,a0,1412 # 0xf010
    8a94:	04d78463          	beq	a5,a3,0x8adc
    8a98:	0044f793          	andi	a5,s1,4
    8a9c:	0024f493          	andi	s1,s1,2
    8aa0:	0007879b          	sext.w	a5,a5
    8aa4:	06048863          	beqz	s1,0x8b14
    8aa8:	04078e63          	beqz	a5,0x8b04
    8aac:	02f00593          	li	a1,47
    8ab0:	00040513          	mv	a0,s0
    8ab4:	b1df70ef          	jal	ra,0x5d0
    8ab8:	00040593          	mv	a1,s0
    8abc:	00050463          	beqz	a0,0x8ac4
    8ac0:	00150593          	addi	a1,a0,1
    8ac4:	00090513          	mv	a0,s2
    8ac8:	a6dfe0ef          	jal	ra,0x7534
    8acc:	00050493          	mv	s1,a0
    8ad0:	00051e63          	bnez	a0,0x8aec
    8ad4:	00006517          	auipc	a0,0x6
    8ad8:	3cc50513          	addi	a0,a0,972 # 0xeea0
    8adc:	a5dfb0ef          	jal	ra,0x4538
    8ae0:	f45ff06f          	j	0x8a24
    8ae4:	0084e493          	ori	s1,s1,8
    8ae8:	f99ff06f          	j	0x8a80
    8aec:	00050593          	mv	a1,a0
    8af0:	00040513          	mv	a0,s0
    8af4:	8b9ff0ef          	jal	ra,0x83ac
    8af8:	00048513          	mv	a0,s1
    8afc:	c60f80ef          	jal	ra,0xf5c
    8b00:	f25ff06f          	j	0x8a24
    8b04:	00090593          	mv	a1,s2
    8b08:	00040513          	mv	a0,s0
    8b0c:	8a1ff0ef          	jal	ra,0x83ac
    8b10:	f15ff06f          	j	0x8a24
    8b14:	04078263          	beqz	a5,0x8b58
    8b18:	02f00593          	li	a1,47
    8b1c:	00040513          	mv	a0,s0
    8b20:	ab1f70ef          	jal	ra,0x5d0
    8b24:	00040593          	mv	a1,s0
    8b28:	00050463          	beqz	a0,0x8b30
    8b2c:	00150593          	addi	a1,a0,1
    8b30:	00090513          	mv	a0,s2
    8b34:	a01fe0ef          	jal	ra,0x7534
    8b38:	00050493          	mv	s1,a0
    8b3c:	f8050ce3          	beqz	a0,0x8ad4
    8b40:	00000593          	li	a1,0
    8b44:	cf5fe0ef          	jal	ra,0x7838
    8b48:	00048593          	mv	a1,s1
    8b4c:	00040513          	mv	a0,s0
    8b50:	cddff0ef          	jal	ra,0x882c
    8b54:	fa5ff06f          	j	0x8af8
    8b58:	00c77793          	andi	a5,a4,12
    8b5c:	00079863          	bnez	a5,0x8b6c
    8b60:	00000593          	li	a1,0
    8b64:	00090513          	mv	a0,s2
    8b68:	cd1fe0ef          	jal	ra,0x7838
    8b6c:	00090593          	mv	a1,s2
    8b70:	00040513          	mv	a0,s0
    8b74:	cb9ff0ef          	jal	ra,0x882c
    8b78:	eadff06f          	j	0x8a24
    8b7c:	fd010113          	addi	sp,sp,-48
    8b80:	02813023          	sd	s0,32(sp)
    8b84:	00058413          	mv	s0,a1
    8b88:	00050593          	mv	a1,a0
    8b8c:	00000513          	li	a0,0
    8b90:	01213823          	sd	s2,16(sp)
    8b94:	02113423          	sd	ra,40(sp)
    8b98:	00913c23          	sd	s1,24(sp)
    8b9c:	01313423          	sd	s3,8(sp)
    8ba0:	01413023          	sd	s4,0(sp)
    8ba4:	991fe0ef          	jal	ra,0x7534
    8ba8:	00050913          	mv	s2,a0
    8bac:	04051063          	bnez	a0,0x8bec
    8bb0:	00000493          	li	s1,0
    8bb4:	ffe00413          	li	s0,-2
    8bb8:	00090513          	mv	a0,s2
    8bbc:	ba0f80ef          	jal	ra,0xf5c
    8bc0:	00048513          	mv	a0,s1
    8bc4:	b98f80ef          	jal	ra,0xf5c
    8bc8:	02813083          	ld	ra,40(sp)
    8bcc:	00040513          	mv	a0,s0
    8bd0:	02013403          	ld	s0,32(sp)
    8bd4:	01813483          	ld	s1,24(sp)
    8bd8:	01013903          	ld	s2,16(sp)
    8bdc:	00813983          	ld	s3,8(sp)
    8be0:	00013a03          	ld	s4,0(sp)
    8be4:	03010113          	addi	sp,sp,48
    8be8:	00008067          	ret
    8bec:	00040593          	mv	a1,s0
    8bf0:	00000513          	li	a0,0
    8bf4:	941fe0ef          	jal	ra,0x7534
    8bf8:	00050493          	mv	s1,a0
    8bfc:	fa050ae3          	beqz	a0,0x8bb0
    8c00:	00090513          	mv	a0,s2
    8c04:	14c000ef          	jal	ra,0x8d50
    8c08:	00050993          	mv	s3,a0
    8c0c:	00048513          	mv	a0,s1
    8c10:	140000ef          	jal	ra,0x8d50
    8c14:	fee00413          	li	s0,-18
    8c18:	faa990e3          	bne	s3,a0,0x8bb8
    8c1c:	0109b783          	ld	a5,16(s3)
    8c20:	fda00413          	li	s0,-38
    8c24:	0487ba03          	ld	s4,72(a5)
    8c28:	f80a08e3          	beqz	s4,0x8bb8
    8c2c:	0087a783          	lw	a5,8(a5)
    8c30:	0017f793          	andi	a5,a5,1
    8c34:	00078c63          	beqz	a5,0x8c4c
    8c38:	00048613          	mv	a2,s1
    8c3c:	00090593          	mv	a1,s2
    8c40:	000a00e7          	jalr	s4
    8c44:	00050413          	mv	s0,a0
    8c48:	f71ff06f          	j	0x8bb8
    8c4c:	0089b503          	ld	a0,8(s3)
    8c50:	00090593          	mv	a1,s2
    8c54:	885fe0ef          	jal	ra,0x74d8
    8c58:	00050413          	mv	s0,a0
    8c5c:	0089b503          	ld	a0,8(s3)
    8c60:	00048593          	mv	a1,s1
    8c64:	875fe0ef          	jal	ra,0x74d8
    8c68:	00050613          	mv	a2,a0
    8c6c:	00040593          	mv	a1,s0
    8c70:	00098513          	mv	a0,s3
    8c74:	fcdff06f          	j	0x8c40
    8c78:	fc010113          	addi	sp,sp,-64
    8c7c:	02813823          	sd	s0,48(sp)
    8c80:	02913423          	sd	s1,40(sp)
    8c84:	03213023          	sd	s2,32(sp)
    8c88:	01313c23          	sd	s3,24(sp)
    8c8c:	02113c23          	sd	ra,56(sp)
    8c90:	00050413          	mv	s0,a0
    8c94:	00019917          	auipc	s2,0x19
    8c98:	54c90913          	addi	s2,s2,1356 # 0x221e0
    8c9c:	d28fe0ef          	jal	ra,0x71c4
    8ca0:	00000493          	li	s1,0
    8ca4:	00019997          	auipc	s3,0x19
    8ca8:	54c98993          	addi	s3,s3,1356 # 0x221f0
    8cac:	00093783          	ld	a5,0(s2)
    8cb0:	04079663          	bnez	a5,0x8cfc
    8cb4:	00049463          	bnez	s1,0x8cbc
    8cb8:	00090493          	mv	s1,s2
    8cbc:	00890913          	addi	s2,s2,8
    8cc0:	ff3916e3          	bne	s2,s3,0x8cac
    8cc4:	08049063          	bnez	s1,0x8d44
    8cc8:	fe400513          	li	a0,-28
    8ccc:	e5dfa0ef          	jal	ra,0x3b28
    8cd0:	00006517          	auipc	a0,0x6
    8cd4:	07850513          	addi	a0,a0,120 # 0xed48
    8cd8:	861fb0ef          	jal	ra,0x4538
    8cdc:	00043583          	ld	a1,0(s0)
    8ce0:	00006517          	auipc	a0,0x6
    8ce4:	3f850513          	addi	a0,a0,1016 # 0xf0d8
    8ce8:	851fb0ef          	jal	ra,0x4538
    8cec:	00007517          	auipc	a0,0x7
    8cf0:	14c50513          	addi	a0,a0,332 # 0xfe38
    8cf4:	845fb0ef          	jal	ra,0x4538
    8cf8:	0200006f          	j	0x8d18
    8cfc:	00043583          	ld	a1,0(s0)
    8d00:	0007b503          	ld	a0,0(a5)
    8d04:	8b5f70ef          	jal	ra,0x5b8
    8d08:	fa051ae3          	bnez	a0,0x8cbc
    8d0c:	fef00513          	li	a0,-17
    8d10:	e19fa0ef          	jal	ra,0x3b28
    8d14:	fa048ae3          	beqz	s1,0x8cc8
    8d18:	fff00513          	li	a0,-1
    8d1c:	00a13423          	sd	a0,8(sp)
    8d20:	d10fe0ef          	jal	ra,0x7230
    8d24:	03813083          	ld	ra,56(sp)
    8d28:	03013403          	ld	s0,48(sp)
    8d2c:	00813503          	ld	a0,8(sp)
    8d30:	02813483          	ld	s1,40(sp)
    8d34:	02013903          	ld	s2,32(sp)
    8d38:	01813983          	ld	s3,24(sp)
    8d3c:	04010113          	addi	sp,sp,64
    8d40:	00008067          	ret
    8d44:	0084b023          	sd	s0,0(s1)
    8d48:	00000513          	li	a0,0
    8d4c:	fd1ff06f          	j	0x8d1c
    8d50:	fa010113          	addi	sp,sp,-96
    8d54:	05213023          	sd	s2,64(sp)
    8d58:	04113c23          	sd	ra,88(sp)
    8d5c:	04813823          	sd	s0,80(sp)
    8d60:	04913423          	sd	s1,72(sp)
    8d64:	03313c23          	sd	s3,56(sp)
    8d68:	03413823          	sd	s4,48(sp)
    8d6c:	03513423          	sd	s5,40(sp)
    8d70:	03613023          	sd	s6,32(sp)
    8d74:	01713c23          	sd	s7,24(sp)
    8d78:	01813823          	sd	s8,16(sp)
    8d7c:	01913423          	sd	s9,8(sp)
    8d80:	01a13023          	sd	s10,0(sp)
    8d84:	00050913          	mv	s2,a0
    8d88:	00051e63          	bnez	a0,0x8da4
    8d8c:	05600613          	li	a2,86
    8d90:	00006597          	auipc	a1,0x6
    8d94:	48858593          	addi	a1,a1,1160 # 0xf218
    8d98:	00006517          	auipc	a0,0x6
    8d9c:	37850513          	addi	a0,a0,888 # 0xf110
    8da0:	925fb0ef          	jal	ra,0x46c4
    8da4:	fff00a93          	li	s5,-1
    8da8:	c1cfe0ef          	jal	ra,0x71c4
    8dac:	00000a13          	li	s4,0
    8db0:	00000993          	li	s3,0
    8db4:	00019497          	auipc	s1,0x19
    8db8:	43c48493          	addi	s1,s1,1084 # 0x221f0
    8dbc:	020ada93          	srli	s5,s5,0x20
    8dc0:	00100b93          	li	s7,1
    8dc4:	02f00c13          	li	s8,47
    8dc8:	00019b17          	auipc	s6,0x19
    8dcc:	468b0b13          	addi	s6,s6,1128 # 0x22230
    8dd0:	0084bd03          	ld	s10,8(s1)
    8dd4:	040d0863          	beqz	s10,0x8e24
    8dd8:	0104b783          	ld	a5,16(s1)
    8ddc:	04078463          	beqz	a5,0x8e24
    8de0:	000d0513          	mv	a0,s10
    8de4:	f70f70ef          	jal	ra,0x554
    8de8:	00050c9b          	sext.w	s9,a0
    8dec:	034cec63          	bltu	s9,s4,0x8e24
    8df0:	01557433          	and	s0,a0,s5
    8df4:	00040613          	mv	a2,s0
    8df8:	00090593          	mv	a1,s2
    8dfc:	000d0513          	mv	a0,s10
    8e00:	fbcf70ef          	jal	ra,0x5bc
    8e04:	02051063          	bnez	a0,0x8e24
    8e08:	079bf263          	bgeu	s7,s9,0x8e6c
    8e0c:	00090513          	mv	a0,s2
    8e10:	f44f70ef          	jal	ra,0x554
    8e14:	04a47c63          	bgeu	s0,a0,0x8e6c
    8e18:	00890433          	add	s0,s2,s0
    8e1c:	00044783          	lbu	a5,0(s0)
    8e20:	05878663          	beq	a5,s8,0x8e6c
    8e24:	02048493          	addi	s1,s1,32
    8e28:	fb6494e3          	bne	s1,s6,0x8dd0
    8e2c:	c04fe0ef          	jal	ra,0x7230
    8e30:	05813083          	ld	ra,88(sp)
    8e34:	05013403          	ld	s0,80(sp)
    8e38:	04813483          	ld	s1,72(sp)
    8e3c:	04013903          	ld	s2,64(sp)
    8e40:	03013a03          	ld	s4,48(sp)
    8e44:	02813a83          	ld	s5,40(sp)
    8e48:	02013b03          	ld	s6,32(sp)
    8e4c:	01813b83          	ld	s7,24(sp)
    8e50:	01013c03          	ld	s8,16(sp)
    8e54:	00813c83          	ld	s9,8(sp)
    8e58:	00013d03          	ld	s10,0(sp)
    8e5c:	00098513          	mv	a0,s3
    8e60:	03813983          	ld	s3,56(sp)
    8e64:	06010113          	addi	sp,sp,96
    8e68:	00008067          	ret
    8e6c:	000c8a13          	mv	s4,s9
    8e70:	00048993          	mv	s3,s1
    8e74:	fb1ff06f          	j	0x8e24
    8e78:	f5010113          	addi	sp,sp,-176
    8e7c:	07513c23          	sd	s5,120(sp)
    8e80:	07613823          	sd	s6,112(sp)
    8e84:	07713423          	sd	s7,104(sp)
    8e88:	07813023          	sd	s8,96(sp)
    8e8c:	0a113423          	sd	ra,168(sp)
    8e90:	0a813023          	sd	s0,160(sp)
    8e94:	08913c23          	sd	s1,152(sp)
    8e98:	09213823          	sd	s2,144(sp)
    8e9c:	09313423          	sd	s3,136(sp)
    8ea0:	09413023          	sd	s4,128(sp)
    8ea4:	05913c23          	sd	s9,88(sp)
    8ea8:	00058b13          	mv	s6,a1
    8eac:	00060a93          	mv	s5,a2
    8eb0:	00068b93          	mv	s7,a3
    8eb4:	00070c13          	mv	s8,a4
    8eb8:	04050a63          	beqz	a0,0x8f0c
    8ebc:	ce1f90ef          	jal	ra,0x2b9c
    8ec0:	00050993          	mv	s3,a0
    8ec4:	04051663          	bnez	a0,0x8f10
    8ec8:	fed00513          	li	a0,-19
    8ecc:	c5dfa0ef          	jal	ra,0x3b28
    8ed0:	fff00793          	li	a5,-1
    8ed4:	0a813083          	ld	ra,168(sp)
    8ed8:	0a013403          	ld	s0,160(sp)
    8edc:	09813483          	ld	s1,152(sp)
    8ee0:	09013903          	ld	s2,144(sp)
    8ee4:	08813983          	ld	s3,136(sp)
    8ee8:	08013a03          	ld	s4,128(sp)
    8eec:	07813a83          	ld	s5,120(sp)
    8ef0:	07013b03          	ld	s6,112(sp)
    8ef4:	06813b83          	ld	s7,104(sp)
    8ef8:	06013c03          	ld	s8,96(sp)
    8efc:	05813c83          	ld	s9,88(sp)
    8f00:	00078513          	mv	a0,a5
    8f04:	0b010113          	addi	sp,sp,176
    8f08:	00008067          	ret
    8f0c:	00050993          	mv	s3,a0
    8f10:	00019497          	auipc	s1,0x19
    8f14:	2d048493          	addi	s1,s1,720 # 0x221e0
    8f18:	aacfe0ef          	jal	ra,0x71c4
    8f1c:	0004b783          	ld	a5,0(s1)
    8f20:	00048913          	mv	s2,s1
    8f24:	00019417          	auipc	s0,0x19
    8f28:	2cc40413          	addi	s0,s0,716 # 0x221f0
    8f2c:	00078a63          	beqz	a5,0x8f40
    8f30:	0007b503          	ld	a0,0(a5)
    8f34:	000a8593          	mv	a1,s5
    8f38:	e80f70ef          	jal	ra,0x5b8
    8f3c:	02050a63          	beqz	a0,0x8f70
    8f40:	00893783          	ld	a5,8(s2)
    8f44:	00019497          	auipc	s1,0x19
    8f48:	2ac48493          	addi	s1,s1,684 # 0x221f0
    8f4c:	02078263          	beqz	a5,0x8f70
    8f50:	0007b503          	ld	a0,0(a5)
    8f54:	000a8593          	mv	a1,s5
    8f58:	00019497          	auipc	s1,0x19
    8f5c:	29048493          	addi	s1,s1,656 # 0x221e8
    8f60:	e58f70ef          	jal	ra,0x5b8
    8f64:	00050663          	beqz	a0,0x8f70
    8f68:	00019497          	auipc	s1,0x19
    8f6c:	28848493          	addi	s1,s1,648 # 0x221f0
    8f70:	ac0fe0ef          	jal	ra,0x7230
    8f74:	f4848ae3          	beq	s1,s0,0x8ec8
    8f78:	0004b783          	ld	a5,0(s1)
    8f7c:	00078663          	beqz	a5,0x8f88
    8f80:	0187b783          	ld	a5,24(a5)
    8f84:	00079663          	bnez	a5,0x8f90
    8f88:	fda00513          	li	a0,-38
    8f8c:	f41ff06f          	j	0x8ecc
    8f90:	000b0593          	mv	a1,s6
    8f94:	00000513          	li	a0,0
    8f98:	d9cfe0ef          	jal	ra,0x7534
    8f9c:	00050a13          	mv	s4,a0
    8fa0:	00051663          	bnez	a0,0x8fac
    8fa4:	fec00513          	li	a0,-20
    8fa8:	f25ff06f          	j	0x8ecc
    8fac:	00006597          	auipc	a1,0x6
    8fb0:	ebc58593          	addi	a1,a1,-324 # 0xee68
    8fb4:	e04f70ef          	jal	ra,0x5b8
    8fb8:	04050063          	beqz	a0,0x8ff8
    8fbc:	00006597          	auipc	a1,0x6
    8fc0:	d8458593          	addi	a1,a1,-636 # 0xed40
    8fc4:	000a0513          	mv	a0,s4
    8fc8:	df0f70ef          	jal	ra,0x5b8
    8fcc:	02050663          	beqz	a0,0x8ff8
    8fd0:	00010637          	lui	a2,0x10
    8fd4:	000a0593          	mv	a1,s4
    8fd8:	00810513          	addi	a0,sp,8
    8fdc:	f9dfe0ef          	jal	ra,0x7f78
    8fe0:	00055863          	bgez	a0,0x8ff0
    8fe4:	000a0513          	mv	a0,s4
    8fe8:	f75f70ef          	jal	ra,0xf5c
    8fec:	fb9ff06f          	j	0x8fa4
    8ff0:	00810513          	addi	a0,sp,8
    8ff4:	8e0ff0ef          	jal	ra,0x80d4
    8ff8:	9ccfe0ef          	jal	ra,0x71c4
    8ffc:	00000413          	li	s0,0
    9000:	00019917          	auipc	s2,0x19
    9004:	1f090913          	addi	s2,s2,496 # 0x221f0
    9008:	00019c97          	auipc	s9,0x19
    900c:	228c8c93          	addi	s9,s9,552 # 0x22230
    9010:	01093783          	ld	a5,16(s2)
    9014:	04079663          	bnez	a5,0x9060
    9018:	00041463          	bnez	s0,0x9020
    901c:	00090413          	mv	s0,s2
    9020:	02090913          	addi	s2,s2,32
    9024:	ff9916e3          	bne	s2,s9,0x9010
    9028:	06041063          	bnez	s0,0x9088
    902c:	fe400513          	li	a0,-28
    9030:	af9fa0ef          	jal	ra,0x3b28
    9034:	00006517          	auipc	a0,0x6
    9038:	d1450513          	addi	a0,a0,-748 # 0xed48
    903c:	cfcfb0ef          	jal	ra,0x4538
    9040:	000a8593          	mv	a1,s5
    9044:	00006517          	auipc	a0,0x6
    9048:	0d450513          	addi	a0,a0,212 # 0xf118
    904c:	cecfb0ef          	jal	ra,0x4538
    9050:	00007517          	auipc	a0,0x7
    9054:	de850513          	addi	a0,a0,-536 # 0xfe38
    9058:	ce0fb0ef          	jal	ra,0x4538
    905c:	01c0006f          	j	0x9078
    9060:	00893503          	ld	a0,8(s2)
    9064:	000b0593          	mv	a1,s6
    9068:	d50f70ef          	jal	ra,0x5b8
    906c:	fa051ae3          	bnez	a0,0x9020
    9070:	fea00513          	li	a0,-22
    9074:	ab5fa0ef          	jal	ra,0x3b28
    9078:	9b8fe0ef          	jal	ra,0x7230
    907c:	000a0513          	mv	a0,s4
    9080:	eddf70ef          	jal	ra,0xf5c
    9084:	e4dff06f          	j	0x8ed0
    9088:	0004b783          	ld	a5,0(s1)
    908c:	01443423          	sd	s4,8(s0)
    9090:	01343023          	sd	s3,0(s0)
    9094:	00f43823          	sd	a5,16(s0)
    9098:	998fe0ef          	jal	ra,0x7230
    909c:	02098663          	beqz	s3,0x90c8
    90a0:	00043503          	ld	a0,0(s0)
    90a4:	00300593          	li	a1,3
    90a8:	b75f90ef          	jal	ra,0x2c1c
    90ac:	00050e63          	beqz	a0,0x90c8
    90b0:	914fe0ef          	jal	ra,0x71c4
    90b4:	02000613          	li	a2,32
    90b8:	00000593          	li	a1,0
    90bc:	00040513          	mv	a0,s0
    90c0:	d00f70ef          	jal	ra,0x5c0
    90c4:	fb5ff06f          	j	0x9078
    90c8:	0004b783          	ld	a5,0(s1)
    90cc:	000c0613          	mv	a2,s8
    90d0:	000b8593          	mv	a1,s7
    90d4:	0187b783          	ld	a5,24(a5)
    90d8:	00040513          	mv	a0,s0
    90dc:	000780e7          	jalr	a5
    90e0:	00000793          	li	a5,0
    90e4:	de0558e3          	bgez	a0,0x8ed4
    90e8:	fc0984e3          	beqz	s3,0x90b0
    90ec:	00043503          	ld	a0,0(s0)
    90f0:	c85f90ef          	jal	ra,0x2d74
    90f4:	fbdff06f          	j	0x90b0
    90f8:	fe010113          	addi	sp,sp,-32
    90fc:	00050593          	mv	a1,a0
    9100:	00000513          	li	a0,0
    9104:	00113c23          	sd	ra,24(sp)
    9108:	00813823          	sd	s0,16(sp)
    910c:	00913423          	sd	s1,8(sp)
    9110:	01213023          	sd	s2,0(sp)
    9114:	c20fe0ef          	jal	ra,0x7534
    9118:	02051463          	bnez	a0,0x9140
    911c:	fec00513          	li	a0,-20
    9120:	a09fa0ef          	jal	ra,0x3b28
    9124:	fff00513          	li	a0,-1
    9128:	01813083          	ld	ra,24(sp)
    912c:	01013403          	ld	s0,16(sp)
    9130:	00813483          	ld	s1,8(sp)
    9134:	00013903          	ld	s2,0(sp)
    9138:	02010113          	addi	sp,sp,32
    913c:	00008067          	ret
    9140:	00050493          	mv	s1,a0
    9144:	00019417          	auipc	s0,0x19
    9148:	0ac40413          	addi	s0,s0,172 # 0x221f0
    914c:	878fe0ef          	jal	ra,0x71c4
    9150:	00843503          	ld	a0,8(s0)
    9154:	00040913          	mv	s2,s0
    9158:	00050863          	beqz	a0,0x9168
    915c:	00048593          	mv	a1,s1
    9160:	c58f70ef          	jal	ra,0x5b8
    9164:	02050863          	beqz	a0,0x9194
    9168:	02893503          	ld	a0,40(s2)
    916c:	00050863          	beqz	a0,0x917c
    9170:	00048593          	mv	a1,s1
    9174:	c44f70ef          	jal	ra,0x5b8
    9178:	00050a63          	beqz	a0,0x918c
    917c:	8b4fe0ef          	jal	ra,0x7230
    9180:	00048513          	mv	a0,s1
    9184:	dd9f70ef          	jal	ra,0xf5c
    9188:	f9dff06f          	j	0x9124
    918c:	00019417          	auipc	s0,0x19
    9190:	08440413          	addi	s0,s0,132 # 0x22210
    9194:	01043783          	ld	a5,16(s0)
    9198:	0207b783          	ld	a5,32(a5)
    919c:	fe0780e3          	beqz	a5,0x917c
    91a0:	00040513          	mv	a0,s0
    91a4:	000780e7          	jalr	a5
    91a8:	fc054ae3          	bltz	a0,0x917c
    91ac:	00043503          	ld	a0,0(s0)
    91b0:	00050463          	beqz	a0,0x91b8
    91b4:	bc1f90ef          	jal	ra,0x2d74
    91b8:	00843503          	ld	a0,8(s0)
    91bc:	00050463          	beqz	a0,0x91c4
    91c0:	d9df70ef          	jal	ra,0xf5c
    91c4:	02000613          	li	a2,32
    91c8:	00000593          	li	a1,0
    91cc:	00040513          	mv	a0,s0
    91d0:	bf0f70ef          	jal	ra,0x5c0
    91d4:	85cfe0ef          	jal	ra,0x7230
    91d8:	00048513          	mv	a0,s1
    91dc:	d81f70ef          	jal	ra,0xf5c
    91e0:	00000513          	li	a0,0
    91e4:	f45ff06f          	j	0x9128
    91e8:	fd010113          	addi	sp,sp,-48
    91ec:	02813023          	sd	s0,32(sp)
    91f0:	02113423          	sd	ra,40(sp)
    91f4:	00913c23          	sd	s1,24(sp)
    91f8:	01213823          	sd	s2,16(sp)
    91fc:	01313423          	sd	s3,8(sp)
    9200:	00058413          	mv	s0,a1
    9204:	04059a63          	bnez	a1,0x9258
    9208:	fed00513          	li	a0,-19
    920c:	91dfa0ef          	jal	ra,0x3b28
    9210:	00006517          	auipc	a0,0x6
    9214:	b3850513          	addi	a0,a0,-1224 # 0xed48
    9218:	b20fb0ef          	jal	ra,0x4538
    921c:	00040593          	mv	a1,s0
    9220:	00006517          	auipc	a0,0x6
    9224:	f3050513          	addi	a0,a0,-208 # 0xf150
    9228:	b10fb0ef          	jal	ra,0x4538
    922c:	00007517          	auipc	a0,0x7
    9230:	c0c50513          	addi	a0,a0,-1012 # 0xfe38
    9234:	b04fb0ef          	jal	ra,0x4538
    9238:	02813083          	ld	ra,40(sp)
    923c:	02013403          	ld	s0,32(sp)
    9240:	01813483          	ld	s1,24(sp)
    9244:	01013903          	ld	s2,16(sp)
    9248:	00813983          	ld	s3,8(sp)
    924c:	fff00513          	li	a0,-1
    9250:	03010113          	addi	sp,sp,48
    9254:	00008067          	ret
    9258:	00050913          	mv	s2,a0
    925c:	00058513          	mv	a0,a1
    9260:	93df90ef          	jal	ra,0x2b9c
    9264:	00050993          	mv	s3,a0
    9268:	fa0500e3          	beqz	a0,0x9208
    926c:	f59fd0ef          	jal	ra,0x71c4
    9270:	00019417          	auipc	s0,0x19
    9274:	f7040413          	addi	s0,s0,-144 # 0x221e0
    9278:	00043783          	ld	a5,0(s0)
    927c:	06078263          	beqz	a5,0x92e0
    9280:	0007b503          	ld	a0,0(a5)
    9284:	00090593          	mv	a1,s2
    9288:	b30f70ef          	jal	ra,0x5b8
    928c:	00050493          	mv	s1,a0
    9290:	04051863          	bnez	a0,0x92e0
    9294:	f9dfd0ef          	jal	ra,0x7230
    9298:	00349493          	slli	s1,s1,0x3
    929c:	00940433          	add	s0,s0,s1
    92a0:	00043783          	ld	a5,0(s0)
    92a4:	0287b303          	ld	t1,40(a5)
    92a8:	06031e63          	bnez	t1,0x9324
    92ac:	00006517          	auipc	a0,0x6
    92b0:	a9c50513          	addi	a0,a0,-1380 # 0xed48
    92b4:	a84fb0ef          	jal	ra,0x4538
    92b8:	00090593          	mv	a1,s2
    92bc:	00006517          	auipc	a0,0x6
    92c0:	ed450513          	addi	a0,a0,-300 # 0xf190
    92c4:	a74fb0ef          	jal	ra,0x4538
    92c8:	00007517          	auipc	a0,0x7
    92cc:	b7050513          	addi	a0,a0,-1168 # 0xfe38
    92d0:	a68fb0ef          	jal	ra,0x4538
    92d4:	fda00513          	li	a0,-38
    92d8:	851fa0ef          	jal	ra,0x3b28
    92dc:	f5dff06f          	j	0x9238
    92e0:	00843783          	ld	a5,8(s0)
    92e4:	02078063          	beqz	a5,0x9304
    92e8:	0007b503          	ld	a0,0(a5)
    92ec:	00090593          	mv	a1,s2
    92f0:	ac8f70ef          	jal	ra,0x5b8
    92f4:	00051863          	bnez	a0,0x9304
    92f8:	f39fd0ef          	jal	ra,0x7230
    92fc:	00100493          	li	s1,1
    9300:	f99ff06f          	j	0x9298
    9304:	f2dfd0ef          	jal	ra,0x7230
    9308:	00006517          	auipc	a0,0x6
    930c:	a4050513          	addi	a0,a0,-1472 # 0xed48
    9310:	a28fb0ef          	jal	ra,0x4538
    9314:	00090593          	mv	a1,s2
    9318:	00006517          	auipc	a0,0x6
    931c:	e5850513          	addi	a0,a0,-424 # 0xf170
    9320:	f09ff06f          	j	0x9228
    9324:	02013403          	ld	s0,32(sp)
    9328:	02813083          	ld	ra,40(sp)
    932c:	01813483          	ld	s1,24(sp)
    9330:	01013903          	ld	s2,16(sp)
    9334:	00098513          	mv	a0,s3
    9338:	00813983          	ld	s3,8(sp)
    933c:	03010113          	addi	sp,sp,48
    9340:	00030067          	jr	t1
    9344:	ea5ff06f          	j	0x91e8
    9348:	fe010113          	addi	sp,sp,-32
    934c:	00113c23          	sd	ra,24(sp)
    9350:	00b13423          	sd	a1,8(sp)
    9354:	9fdff0ef          	jal	ra,0x8d50
    9358:	02050063          	beqz	a0,0x9378
    935c:	01053783          	ld	a5,16(a0)
    9360:	0307b303          	ld	t1,48(a5)
    9364:	00030a63          	beqz	t1,0x9378
    9368:	00813583          	ld	a1,8(sp)
    936c:	01813083          	ld	ra,24(sp)
    9370:	02010113          	addi	sp,sp,32
    9374:	00030067          	jr	t1
    9378:	01813083          	ld	ra,24(sp)
    937c:	fff00513          	li	a0,-1
    9380:	02010113          	addi	sp,sp,32
    9384:	00008067          	ret
    9388:	fb010113          	addi	sp,sp,-80
    938c:	00006797          	auipc	a5,0x6
    9390:	d3478793          	addi	a5,a5,-716 # 0xf0c0
    9394:	02f13423          	sd	a5,40(sp)
    9398:	00006797          	auipc	a5,0x6
    939c:	d3078793          	addi	a5,a5,-720 # 0xf0c8
    93a0:	02f13823          	sd	a5,48(sp)
    93a4:	01010593          	addi	a1,sp,16
    93a8:	00006797          	auipc	a5,0x6
    93ac:	d2878793          	addi	a5,a5,-728 # 0xf0d0
    93b0:	04113423          	sd	ra,72(sp)
    93b4:	04813023          	sd	s0,64(sp)
    93b8:	02f13c23          	sd	a5,56(sp)
    93bc:	f8dff0ef          	jal	ra,0x9348
    93c0:	02050463          	beqz	a0,0x93e8
    93c4:	00006517          	auipc	a0,0x6
    93c8:	e0450513          	addi	a0,a0,-508 # 0xf1c8
    93cc:	96cfb0ef          	jal	ra,0x4538
    93d0:	fff00413          	li	s0,-1
    93d4:	04813083          	ld	ra,72(sp)
    93d8:	00040513          	mv	a0,s0
    93dc:	04013403          	ld	s0,64(sp)
    93e0:	05010113          	addi	sp,sp,80
    93e4:	00008067          	ret
    93e8:	01013783          	ld	a5,16(sp)
    93ec:	02013703          	ld	a4,32(sp)
    93f0:	00050413          	mv	s0,a0
    93f4:	00078513          	mv	a0,a5
    93f8:	00070593          	mv	a1,a4
    93fc:	00e13423          	sd	a4,8(sp)
    9400:	00f13023          	sd	a5,0(sp)
    9404:	c4df60ef          	jal	ra,0x50
    9408:	43f55693          	srai	a3,a0,0x3f
    940c:	3ff6f693          	andi	a3,a3,1023
    9410:	00a686b3          	add	a3,a3,a0
    9414:	00100637          	lui	a2,0x100
    9418:	00013783          	ld	a5,0(sp)
    941c:	00813703          	ld	a4,8(sp)
    9420:	40a6d593          	srai	a1,a3,0xa
    9424:	06c54263          	blt	a0,a2,0x9488
    9428:	4146d813          	srai	a6,a3,0x14
    942c:	3ff00613          	li	a2,1023
    9430:	03064e63          	blt	a2,a6,0x946c
    9434:	3ff5f693          	andi	a3,a1,1023
    9438:	00269613          	slli	a2,a3,0x2
    943c:	00d60633          	add	a2,a2,a3
    9440:	00965613          	srli	a2,a2,0x9
    9444:	00080593          	mv	a1,a6
    9448:	00100693          	li	a3,1
    944c:	04010513          	addi	a0,sp,64
    9450:	00369693          	slli	a3,a3,0x3
    9454:	00d506b3          	add	a3,a0,a3
    9458:	fe86b683          	ld	a3,-24(a3) # 0x3ffffe8
    945c:	00006517          	auipc	a0,0x6
    9460:	d8450513          	addi	a0,a0,-636 # 0xf1e0
    9464:	8d4fb0ef          	jal	ra,0x4538
    9468:	f6dff06f          	j	0x93d4
    946c:	3ff87813          	andi	a6,a6,1023
    9470:	00281613          	slli	a2,a6,0x2
    9474:	01060633          	add	a2,a2,a6
    9478:	41e6d593          	srai	a1,a3,0x1e
    947c:	00965613          	srli	a2,a2,0x9
    9480:	00200693          	li	a3,2
    9484:	fc9ff06f          	j	0x944c
    9488:	00000693          	li	a3,0
    948c:	00000613          	li	a2,0
    9490:	fbdff06f          	j	0x944c
    9494:	00000513          	li	a0,0
    9498:	00008067          	ret
    949c:	00000513          	li	a0,0
    94a0:	00008067          	ret
    94a4:	fe010113          	addi	sp,sp,-32
    94a8:	00813823          	sd	s0,16(sp)
    94ac:	00913423          	sd	s1,8(sp)
    94b0:	01213023          	sd	s2,0(sp)
    94b4:	00113c23          	sd	ra,24(sp)
    94b8:	00050413          	mv	s0,a0
    94bc:	00058493          	mv	s1,a1
    94c0:	00060913          	mv	s2,a2
    94c4:	00051e63          	bnez	a0,0x94e0
    94c8:	02500613          	li	a2,37
    94cc:	00006597          	auipc	a1,0x6
    94d0:	ddc58593          	addi	a1,a1,-548 # 0xf2a8
    94d4:	00006517          	auipc	a0,0x6
    94d8:	d9450513          	addi	a0,a0,-620 # 0xf268
    94dc:	9e8fb0ef          	jal	ra,0x46c4
    94e0:	04043403          	ld	s0,64(s0)
    94e4:	00041e63          	bnez	s0,0x9500
    94e8:	02900613          	li	a2,41
    94ec:	00006597          	auipc	a1,0x6
    94f0:	dbc58593          	addi	a1,a1,-580 # 0xf2a8
    94f4:	00006517          	auipc	a0,0x6
    94f8:	d8450513          	addi	a0,a0,-636 # 0xf278
    94fc:	9c8fb0ef          	jal	ra,0x46c4
    9500:	00090613          	mv	a2,s2
    9504:	00048593          	mv	a1,s1
    9508:	00040513          	mv	a0,s0
    950c:	abdf90ef          	jal	ra,0x2fc8
    9510:	01813083          	ld	ra,24(sp)
    9514:	01013403          	ld	s0,16(sp)
    9518:	00813483          	ld	s1,8(sp)
    951c:	00013903          	ld	s2,0(sp)
    9520:	0005051b          	sext.w	a0,a0
    9524:	02010113          	addi	sp,sp,32
    9528:	00008067          	ret
    952c:	fd010113          	addi	sp,sp,-48
    9530:	02813023          	sd	s0,32(sp)
    9534:	00913c23          	sd	s1,24(sp)
    9538:	01213823          	sd	s2,16(sp)
    953c:	02113423          	sd	ra,40(sp)
    9540:	01313423          	sd	s3,8(sp)
    9544:	00050413          	mv	s0,a0
    9548:	00058493          	mv	s1,a1
    954c:	00060913          	mv	s2,a2
    9550:	00051e63          	bnez	a0,0x956c
    9554:	03800613          	li	a2,56
    9558:	00006597          	auipc	a1,0x6
    955c:	d6858593          	addi	a1,a1,-664 # 0xf2c0
    9560:	00006517          	auipc	a0,0x6
    9564:	d0850513          	addi	a0,a0,-760 # 0xf268
    9568:	95cfb0ef          	jal	ra,0x46c4
    956c:	04043983          	ld	s3,64(s0)
    9570:	00099e63          	bnez	s3,0x958c
    9574:	03c00613          	li	a2,60
    9578:	00006597          	auipc	a1,0x6
    957c:	d4858593          	addi	a1,a1,-696 # 0xf2c0
    9580:	00006517          	auipc	a0,0x6
    9584:	cf850513          	addi	a0,a0,-776 # 0xf278
    9588:	93cfb0ef          	jal	ra,0x46c4
    958c:	03843583          	ld	a1,56(s0)
    9590:	00090693          	mv	a3,s2
    9594:	00048613          	mv	a2,s1
    9598:	00098513          	mv	a0,s3
    959c:	885f90ef          	jal	ra,0x2e20
    95a0:	03843783          	ld	a5,56(s0)
    95a4:	0005051b          	sext.w	a0,a0
    95a8:	02813083          	ld	ra,40(sp)
    95ac:	00a787b3          	add	a5,a5,a0
    95b0:	02f43c23          	sd	a5,56(s0)
    95b4:	02013403          	ld	s0,32(sp)
    95b8:	01813483          	ld	s1,24(sp)
    95bc:	01013903          	ld	s2,16(sp)
    95c0:	00813983          	ld	s3,8(sp)
    95c4:	03010113          	addi	sp,sp,48
    95c8:	00008067          	ret
    95cc:	fd010113          	addi	sp,sp,-48
    95d0:	02813023          	sd	s0,32(sp)
    95d4:	00913c23          	sd	s1,24(sp)
    95d8:	01213823          	sd	s2,16(sp)
    95dc:	02113423          	sd	ra,40(sp)
    95e0:	01313423          	sd	s3,8(sp)
    95e4:	00050413          	mv	s0,a0
    95e8:	00058493          	mv	s1,a1
    95ec:	00060913          	mv	s2,a2
    95f0:	00051e63          	bnez	a0,0x960c
    95f4:	04a00613          	li	a2,74
    95f8:	00006597          	auipc	a1,0x6
    95fc:	ce058593          	addi	a1,a1,-800 # 0xf2d8
    9600:	00006517          	auipc	a0,0x6
    9604:	c6850513          	addi	a0,a0,-920 # 0xf268
    9608:	8bcfb0ef          	jal	ra,0x46c4
    960c:	04043983          	ld	s3,64(s0)
    9610:	00099e63          	bnez	s3,0x962c
    9614:	04e00613          	li	a2,78
    9618:	00006597          	auipc	a1,0x6
    961c:	cc058593          	addi	a1,a1,-832 # 0xf2d8
    9620:	00006517          	auipc	a0,0x6
    9624:	c5850513          	addi	a0,a0,-936 # 0xf278
    9628:	89cfb0ef          	jal	ra,0x46c4
    962c:	03843583          	ld	a1,56(s0)
    9630:	00090693          	mv	a3,s2
    9634:	00048613          	mv	a2,s1
    9638:	00098513          	mv	a0,s3
    963c:	8b9f90ef          	jal	ra,0x2ef4
    9640:	03843783          	ld	a5,56(s0)
    9644:	0005051b          	sext.w	a0,a0
    9648:	02813083          	ld	ra,40(sp)
    964c:	00a787b3          	add	a5,a5,a0
    9650:	02f43c23          	sd	a5,56(s0)
    9654:	02013403          	ld	s0,32(sp)
    9658:	01813483          	ld	s1,24(sp)
    965c:	01013903          	ld	s2,16(sp)
    9660:	00813983          	ld	s3,8(sp)
    9664:	03010113          	addi	sp,sp,48
    9668:	00008067          	ret
    966c:	fc010113          	addi	sp,sp,-64
    9670:	03213023          	sd	s2,32(sp)
    9674:	04053903          	ld	s2,64(a0)
    9678:	02813823          	sd	s0,48(sp)
    967c:	02913423          	sd	s1,40(sp)
    9680:	02113c23          	sd	ra,56(sp)
    9684:	01313c23          	sd	s3,24(sp)
    9688:	01413823          	sd	s4,16(sp)
    968c:	01513423          	sd	s5,8(sp)
    9690:	01613023          	sd	s6,0(sp)
    9694:	00058413          	mv	s0,a1
    9698:	00060493          	mv	s1,a2
    969c:	00091e63          	bnez	s2,0x96b8
    96a0:	10b00613          	li	a2,267
    96a4:	00006597          	auipc	a1,0x6
    96a8:	c7c58593          	addi	a1,a1,-900 # 0xf320
    96ac:	00006517          	auipc	a0,0x6
    96b0:	be450513          	addi	a0,a0,-1052 # 0xf290
    96b4:	810fb0ef          	jal	ra,0x46c4
    96b8:	02049513          	slli	a0,s1,0x20
    96bc:	10400593          	li	a1,260
    96c0:	02055513          	srli	a0,a0,0x20
    96c4:	b4df60ef          	jal	ra,0x210
    96c8:	10300793          	li	a5,259
    96cc:	0005099b          	sext.w	s3,a0
    96d0:	fea00513          	li	a0,-22
    96d4:	0497f063          	bgeu	a5,s1,0x9714
    96d8:	00440413          	addi	s0,s0,4
    96dc:	00000493          	li	s1,0
    96e0:	00100a13          	li	s4,1
    96e4:	01400a93          	li	s5,20
    96e8:	10400b13          	li	s6,260
    96ec:	00895783          	lhu	a5,8(s2)
    96f0:	009787bb          	addw	a5,a5,s1
    96f4:	01348863          	beq	s1,s3,0x9704
    96f8:	00a95683          	lhu	a3,10(s2)
    96fc:	0007871b          	sext.w	a4,a5
    9700:	02d76e63          	bltu	a4,a3,0x973c
    9704:	0064951b          	slliw	a0,s1,0x6
    9708:	0095053b          	addw	a0,a0,s1
    970c:	00f91423          	sh	a5,8(s2)
    9710:	0025151b          	slliw	a0,a0,0x2
    9714:	03813083          	ld	ra,56(sp)
    9718:	03013403          	ld	s0,48(sp)
    971c:	02813483          	ld	s1,40(sp)
    9720:	02013903          	ld	s2,32(sp)
    9724:	01813983          	ld	s3,24(sp)
    9728:	01013a03          	ld	s4,16(sp)
    972c:	00813a83          	ld	s5,8(sp)
    9730:	00013b03          	ld	s6,0(sp)
    9734:	04010113          	addi	sp,sp,64
    9738:	00008067          	ret
    973c:	00093703          	ld	a4,0(s2)
    9740:	02079793          	slli	a5,a5,0x20
    9744:	0207d793          	srli	a5,a5,0x20
    9748:	00379793          	slli	a5,a5,0x3
    974c:	00f707b3          	add	a5,a4,a5
    9750:	0007b583          	ld	a1,0(a5)
    9754:	00040513          	mv	a0,s0
    9758:	ff440e23          	sb	s4,-4(s0)
    975c:	ff540ea3          	sb	s5,-3(s0)
    9760:	ff641f23          	sh	s6,-2(s0)
    9764:	01400613          	li	a2,20
    9768:	e20fa0ef          	jal	ra,0x3d88
    976c:	0014849b          	addiw	s1,s1,1
    9770:	10440413          	addi	s0,s0,260
    9774:	f79ff06f          	j	0x96ec
    9778:	fe010113          	addi	sp,sp,-32
    977c:	00813823          	sd	s0,16(sp)
    9780:	00113c23          	sd	ra,24(sp)
    9784:	00913423          	sd	s1,8(sp)
    9788:	00050413          	mv	s0,a0
    978c:	00051e63          	bnez	a0,0x97a8
    9790:	05c00613          	li	a2,92
    9794:	00006597          	auipc	a1,0x6
    9798:	b5c58593          	addi	a1,a1,-1188 # 0xf2f0
    979c:	00006517          	auipc	a0,0x6
    97a0:	acc50513          	addi	a0,a0,-1332 # 0xf268
    97a4:	f21fa0ef          	jal	ra,0x46c4
    97a8:	00245703          	lhu	a4,2(s0)
    97ac:	00200793          	li	a5,2
    97b0:	04043483          	ld	s1,64(s0)
    97b4:	04f71263          	bne	a4,a5,0x97f8
    97b8:	00049e63          	bnez	s1,0x97d4
    97bc:	06300613          	li	a2,99
    97c0:	00006597          	auipc	a1,0x6
    97c4:	b3058593          	addi	a1,a1,-1232 # 0xf2f0
    97c8:	00006517          	auipc	a0,0x6
    97cc:	ac850513          	addi	a0,a0,-1336 # 0xf290
    97d0:	ef5fa0ef          	jal	ra,0x46c4
    97d4:	00048513          	mv	a0,s1
    97d8:	f84f70ef          	jal	ra,0xf5c
    97dc:	00000793          	li	a5,0
    97e0:	01813083          	ld	ra,24(sp)
    97e4:	01013403          	ld	s0,16(sp)
    97e8:	00813483          	ld	s1,8(sp)
    97ec:	00078513          	mv	a0,a5
    97f0:	02010113          	addi	sp,sp,32
    97f4:	00008067          	ret
    97f8:	00049e63          	bnez	s1,0x9814
    97fc:	06c00613          	li	a2,108
    9800:	00006597          	auipc	a1,0x6
    9804:	af058593          	addi	a1,a1,-1296 # 0xf2f0
    9808:	00006517          	auipc	a0,0x6
    980c:	a7050513          	addi	a0,a0,-1424 # 0xf278
    9810:	eb5fa0ef          	jal	ra,0x46c4
    9814:	00048513          	mv	a0,s1
    9818:	d5cf90ef          	jal	ra,0x2d74
    981c:	ffb00793          	li	a5,-5
    9820:	fc0510e3          	bnez	a0,0x97e0
    9824:	04043023          	sd	zero,64(s0)
    9828:	fb5ff06f          	j	0x97dc
    982c:	0005c703          	lbu	a4,0(a1)
    9830:	ff010113          	addi	sp,sp,-16
    9834:	00813023          	sd	s0,0(sp)
    9838:	00113423          	sd	ra,8(sp)
    983c:	02f00793          	li	a5,47
    9840:	00060413          	mv	s0,a2
    9844:	02f71c63          	bne	a4,a5,0x987c
    9848:	0015c783          	lbu	a5,1(a1)
    984c:	02079863          	bnez	a5,0x987c
    9850:	000047b7          	lui	a5,0x4
    9854:	00063023          	sd	zero,0(a2) # 0x100000
    9858:	1ff7879b          	addiw	a5,a5,511
    985c:	00f42823          	sw	a5,16(s0)
    9860:	02043823          	sd	zero,48(s0)
    9864:	04043c23          	sd	zero,88(s0)
    9868:	00000513          	li	a0,0
    986c:	00813083          	ld	ra,8(sp)
    9870:	00013403          	ld	s0,0(sp)
    9874:	01010113          	addi	sp,sp,16
    9878:	00008067          	ret
    987c:	00158513          	addi	a0,a1,1
    9880:	b1cf90ef          	jal	ra,0x2b9c
    9884:	00050793          	mv	a5,a0
    9888:	ffe00513          	li	a0,-2
    988c:	fe0780e3          	beqz	a5,0x986c
    9890:	0287a783          	lw	a5,40(a5) # 0x4028
    9894:	00043023          	sd	zero,0(s0)
    9898:	00079863          	bnez	a5,0x98a8
    989c:	000027b7          	lui	a5,0x2
    98a0:	1b67879b          	addiw	a5,a5,438
    98a4:	fb9ff06f          	j	0x985c
    98a8:	00100713          	li	a4,1
    98ac:	00e79663          	bne	a5,a4,0x98b8
    98b0:	000067b7          	lui	a5,0x6
    98b4:	fedff06f          	j	0x98a0
    98b8:	00f00713          	li	a4,15
    98bc:	00e79663          	bne	a5,a4,0x98c8
    98c0:	000017b7          	lui	a5,0x1
    98c4:	fddff06f          	j	0x98a0
    98c8:	000087b7          	lui	a5,0x8
    98cc:	fd5ff06f          	j	0x98a0
    98d0:	fd010113          	addi	sp,sp,-48
    98d4:	02813023          	sd	s0,32(sp)
    98d8:	00050413          	mv	s0,a0
    98dc:	00853503          	ld	a0,8(a0)
    98e0:	02113423          	sd	ra,40(sp)
    98e4:	00913c23          	sd	s1,24(sp)
    98e8:	01213823          	sd	s2,16(sp)
    98ec:	01313423          	sd	s3,8(sp)
    98f0:	01413023          	sd	s4,0(sp)
    98f4:	00054703          	lbu	a4,0(a0)
    98f8:	02f00793          	li	a5,47
    98fc:	0ef71463          	bne	a4,a5,0x99e4
    9900:	00154783          	lbu	a5,1(a0)
    9904:	0e079063          	bnez	a5,0x99e4
    9908:	02842783          	lw	a5,40(s0)
    990c:	02f79713          	slli	a4,a5,0x2f
    9910:	0c075a63          	bgez	a4,0x99e4
    9914:	9f4f90ef          	jal	ra,0x2b08
    9918:	00900513          	li	a0,9
    991c:	a59f90ef          	jal	ra,0x3374
    9920:	00050913          	mv	s2,a0
    9924:	00051e63          	bnez	a0,0x9940
    9928:	08e00613          	li	a2,142
    992c:	00006597          	auipc	a1,0x6
    9930:	9dc58593          	addi	a1,a1,-1572 # 0xf308
    9934:	00004517          	auipc	a0,0x4
    9938:	21c50513          	addi	a0,a0,540 # 0xdb50
    993c:	d89fa0ef          	jal	ra,0x46c4
    9940:	00893783          	ld	a5,8(s2)
    9944:	00000993          	li	s3,0
    9948:	00890a13          	addi	s4,s2,8
    994c:	05479863          	bne	a5,s4,0x999c
    9950:	02099513          	slli	a0,s3,0x20
    9954:	02055513          	srli	a0,a0,0x20
    9958:	00250513          	addi	a0,a0,2
    995c:	00351513          	slli	a0,a0,0x3
    9960:	aacf70ef          	jal	ra,0xc0c
    9964:	00050493          	mv	s1,a0
    9968:	04051063          	bnez	a0,0x99a8
    996c:	9c8f90ef          	jal	ra,0x2b34
    9970:	04943023          	sd	s1,64(s0)
    9974:	00000793          	li	a5,0
    9978:	02813083          	ld	ra,40(sp)
    997c:	02013403          	ld	s0,32(sp)
    9980:	01813483          	ld	s1,24(sp)
    9984:	01013903          	ld	s2,16(sp)
    9988:	00813983          	ld	s3,8(sp)
    998c:	00013a03          	ld	s4,0(sp)
    9990:	00078513          	mv	a0,a5
    9994:	03010113          	addi	sp,sp,48
    9998:	00008067          	ret
    999c:	0007b783          	ld	a5,0(a5) # 0x8000
    99a0:	0019899b          	addiw	s3,s3,1
    99a4:	fa9ff06f          	j	0x994c
    99a8:	00893703          	ld	a4,8(s2)
    99ac:	01050613          	addi	a2,a0,16
    99b0:	00c53023          	sd	a2,0(a0)
    99b4:	00051423          	sh	zero,8(a0)
    99b8:	01351523          	sh	s3,10(a0)
    99bc:	00000693          	li	a3,0
    99c0:	faea06e3          	beq	s4,a4,0x996c
    99c4:	02069793          	slli	a5,a3,0x20
    99c8:	01d7d793          	srli	a5,a5,0x1d
    99cc:	fe870593          	addi	a1,a4,-24 # 0x3fe8
    99d0:	00f607b3          	add	a5,a2,a5
    99d4:	00073703          	ld	a4,0(a4)
    99d8:	00b7b023          	sd	a1,0(a5)
    99dc:	0016869b          	addiw	a3,a3,1
    99e0:	fe1ff06f          	j	0x99c0
    99e4:	00150513          	addi	a0,a0,1
    99e8:	9b4f90ef          	jal	ra,0x2b9c
    99ec:	00050493          	mv	s1,a0
    99f0:	fed00793          	li	a5,-19
    99f4:	f80502e3          	beqz	a0,0x9978
    99f8:	00300593          	li	a1,3
    99fc:	a20f90ef          	jal	ra,0x2c1c
    9a00:	00050663          	beqz	a0,0x9a0c
    9a04:	ffa00793          	li	a5,-6
    9a08:	00f51a63          	bne	a0,a5,0x9a1c
    9a0c:	00400793          	li	a5,4
    9a10:	04943023          	sd	s1,64(s0)
    9a14:	00f41123          	sh	a5,2(s0)
    9a18:	f5dff06f          	j	0x9974
    9a1c:	04043023          	sd	zero,64(s0)
    9a20:	ffb00793          	li	a5,-5
    9a24:	f55ff06f          	j	0x9978
    9a28:	ff010113          	addi	sp,sp,-16
    9a2c:	00006517          	auipc	a0,0x6
    9a30:	95450513          	addi	a0,a0,-1708 # 0xf380
    9a34:	00113423          	sd	ra,8(sp)
    9a38:	a40ff0ef          	jal	ra,0x8c78
    9a3c:	00813083          	ld	ra,8(sp)
    9a40:	00000513          	li	a0,0
    9a44:	01010113          	addi	sp,sp,16
    9a48:	00008067          	ret
    9a4c:	00060863          	beqz	a2,0x9a5c
    9a50:	00c53c23          	sd	a2,24(a0)
    9a54:	00000513          	li	a0,0
    9a58:	00008067          	ret
    9a5c:	ffb00513          	li	a0,-5
    9a60:	00008067          	ret
    9a64:	00000513          	li	a0,0
    9a68:	00008067          	ret
    9a6c:	ffb00513          	li	a0,-5
    9a70:	00008067          	ret
    9a74:	00052703          	lw	a4,0(a0)
    9a78:	00100793          	li	a5,1
    9a7c:	00e7ec63          	bltu	a5,a4,0x9a94
    9a80:	01853503          	ld	a0,24(a0)
    9a84:	00150513          	addi	a0,a0,1
    9a88:	00153513          	seqz	a0,a0
    9a8c:	40a00533          	neg	a0,a0
    9a90:	00008067          	ret
    9a94:	fff00513          	li	a0,-1
    9a98:	00008067          	ret
    9a9c:	03053783          	ld	a5,48(a0)
    9aa0:	00b7e863          	bltu	a5,a1,0x9ab0
    9aa4:	02b53c23          	sd	a1,56(a0)
    9aa8:	0005851b          	sext.w	a0,a1
    9aac:	00008067          	ret
    9ab0:	ffb00513          	li	a0,-5
    9ab4:	00008067          	ret
    9ab8:	04053023          	sd	zero,64(a0)
    9abc:	00000513          	li	a0,0
    9ac0:	00008067          	ret
    9ac4:	fd010113          	addi	sp,sp,-48
    9ac8:	01413023          	sd	s4,0(sp)
    9acc:	04053a03          	ld	s4,64(a0)
    9ad0:	00913c23          	sd	s1,24(sp)
    9ad4:	01213823          	sd	s2,16(sp)
    9ad8:	01313423          	sd	s3,8(sp)
    9adc:	02113423          	sd	ra,40(sp)
    9ae0:	02813023          	sd	s0,32(sp)
    9ae4:	00050493          	mv	s1,a0
    9ae8:	00058993          	mv	s3,a1
    9aec:	00060913          	mv	s2,a2
    9af0:	000a1e63          	bnez	s4,0x9b0c
    9af4:	08900613          	li	a2,137
    9af8:	00006597          	auipc	a1,0x6
    9afc:	91858593          	addi	a1,a1,-1768 # 0xf410
    9b00:	00006517          	auipc	a0,0x6
    9b04:	8d050513          	addi	a0,a0,-1840 # 0xf3d0
    9b08:	bbdfa0ef          	jal	ra,0x46c4
    9b0c:	000a0513          	mv	a0,s4
    9b10:	f65ff0ef          	jal	ra,0x9a74
    9b14:	ffb00413          	li	s0,-5
    9b18:	04051063          	bnez	a0,0x9b58
    9b1c:	0384b783          	ld	a5,56(s1)
    9b20:	0304b403          	ld	s0,48(s1)
    9b24:	40f40433          	sub	s0,s0,a5
    9b28:	00897463          	bgeu	s2,s0,0x9b30
    9b2c:	00090413          	mv	s0,s2
    9b30:	00040c63          	beqz	s0,0x9b48
    9b34:	010a3583          	ld	a1,16(s4)
    9b38:	00040613          	mv	a2,s0
    9b3c:	00098513          	mv	a0,s3
    9b40:	00f585b3          	add	a1,a1,a5
    9b44:	a81f60ef          	jal	ra,0x5c4
    9b48:	0384b783          	ld	a5,56(s1)
    9b4c:	008787b3          	add	a5,a5,s0
    9b50:	02f4bc23          	sd	a5,56(s1)
    9b54:	0004041b          	sext.w	s0,s0
    9b58:	02813083          	ld	ra,40(sp)
    9b5c:	00040513          	mv	a0,s0
    9b60:	02013403          	ld	s0,32(sp)
    9b64:	01813483          	ld	s1,24(sp)
    9b68:	01013903          	ld	s2,16(sp)
    9b6c:	00813983          	ld	s3,8(sp)
    9b70:	00013a03          	ld	s4,0(sp)
    9b74:	03010113          	addi	sp,sp,48
    9b78:	00008067          	ret
    9b7c:	fa010113          	addi	sp,sp,-96
    9b80:	03313c23          	sd	s3,56(sp)
    9b84:	04053983          	ld	s3,64(a0)
    9b88:	04913423          	sd	s1,72(sp)
    9b8c:	00050493          	mv	s1,a0
    9b90:	00098513          	mv	a0,s3
    9b94:	04813823          	sd	s0,80(sp)
    9b98:	05213023          	sd	s2,64(sp)
    9b9c:	04113c23          	sd	ra,88(sp)
    9ba0:	03413823          	sd	s4,48(sp)
    9ba4:	03513423          	sd	s5,40(sp)
    9ba8:	03613023          	sd	s6,32(sp)
    9bac:	01713c23          	sd	s7,24(sp)
    9bb0:	00058413          	mv	s0,a1
    9bb4:	00060913          	mv	s2,a2
    9bb8:	ebdff0ef          	jal	ra,0x9a74
    9bbc:	10051663          	bnez	a0,0x9cc8
    9bc0:	0009a703          	lw	a4,0(s3)
    9bc4:	00100793          	li	a5,1
    9bc8:	00f70e63          	beq	a4,a5,0x9be4
    9bcc:	0fd00613          	li	a2,253
    9bd0:	00006597          	auipc	a1,0x6
    9bd4:	85058593          	addi	a1,a1,-1968 # 0xf420
    9bd8:	00006517          	auipc	a0,0x6
    9bdc:	80850513          	addi	a0,a0,-2040 # 0xf3e0
    9be0:	ae5fa0ef          	jal	ra,0x46c4
    9be4:	02091513          	slli	a0,s2,0x20
    9be8:	10400593          	li	a1,260
    9bec:	02055513          	srli	a0,a0,0x20
    9bf0:	e20f60ef          	jal	ra,0x210
    9bf4:	10300793          	li	a5,259
    9bf8:	0109ba03          	ld	s4,16(s3)
    9bfc:	0005099b          	sext.w	s3,a0
    9c00:	fea00513          	li	a0,-22
    9c04:	0327f863          	bgeu	a5,s2,0x9c34
    9c08:	02099993          	slli	s3,s3,0x20
    9c0c:	00440413          	addi	s0,s0,4
    9c10:	00000913          	li	s2,0
    9c14:	0209d993          	srli	s3,s3,0x20
    9c18:	00100a93          	li	s5,1
    9c1c:	00200b93          	li	s7,2
    9c20:	10400b13          	li	s6,260
    9c24:	05396263          	bltu	s2,s3,0x9c68
    9c28:	0069151b          	slliw	a0,s2,0x6
    9c2c:	0125053b          	addw	a0,a0,s2
    9c30:	0025151b          	slliw	a0,a0,0x2
    9c34:	05813083          	ld	ra,88(sp)
    9c38:	05013403          	ld	s0,80(sp)
    9c3c:	04813483          	ld	s1,72(sp)
    9c40:	04013903          	ld	s2,64(sp)
    9c44:	03813983          	ld	s3,56(sp)
    9c48:	03013a03          	ld	s4,48(sp)
    9c4c:	02813a83          	ld	s5,40(sp)
    9c50:	02013b03          	ld	s6,32(sp)
    9c54:	01813b83          	ld	s7,24(sp)
    9c58:	06010113          	addi	sp,sp,96
    9c5c:	00008067          	ret
    9c60:	ff540e23          	sb	s5,-4(s0)
    9c64:	0280006f          	j	0x9c8c
    9c68:	0384b783          	ld	a5,56(s1)
    9c6c:	0304b703          	ld	a4,48(s1)
    9c70:	fae7fce3          	bgeu	a5,a4,0x9c28
    9c74:	00579793          	slli	a5,a5,0x5
    9c78:	00fa07b3          	add	a5,s4,a5
    9c7c:	0087b583          	ld	a1,8(a5)
    9c80:	0007a783          	lw	a5,0(a5)
    9c84:	fd579ee3          	bne	a5,s5,0x9c60
    9c88:	ff740e23          	sb	s7,-4(s0)
    9c8c:	00058513          	mv	a0,a1
    9c90:	00b13423          	sd	a1,8(sp)
    9c94:	99cfa0ef          	jal	ra,0x3e30
    9c98:	00813583          	ld	a1,8(sp)
    9c9c:	fea40ea3          	sb	a0,-3(s0)
    9ca0:	ff641f23          	sh	s6,-2(s0)
    9ca4:	00040513          	mv	a0,s0
    9ca8:	10000613          	li	a2,256
    9cac:	8dcfa0ef          	jal	ra,0x3d88
    9cb0:	0384b783          	ld	a5,56(s1)
    9cb4:	00190913          	addi	s2,s2,1
    9cb8:	10440413          	addi	s0,s0,260
    9cbc:	00178793          	addi	a5,a5,1
    9cc0:	02f4bc23          	sd	a5,56(s1)
    9cc4:	f61ff06f          	j	0x9c24
    9cc8:	ffb00513          	li	a0,-5
    9ccc:	f69ff06f          	j	0x9c34
    9cd0:	ff010113          	addi	sp,sp,-16
    9cd4:	00005517          	auipc	a0,0x5
    9cd8:	7ac50513          	addi	a0,a0,1964 # 0xf480
    9cdc:	00113423          	sd	ra,8(sp)
    9ce0:	f99fe0ef          	jal	ra,0x8c78
    9ce4:	00813083          	ld	ra,8(sp)
    9ce8:	00000513          	li	a0,0
    9cec:	01010113          	addi	sp,sp,16
    9cf0:	00008067          	ret
    9cf4:	fa010113          	addi	sp,sp,-96
    9cf8:	04813823          	sd	s0,80(sp)
    9cfc:	03313c23          	sd	s3,56(sp)
    9d00:	03513423          	sd	s5,40(sp)
    9d04:	04113c23          	sd	ra,88(sp)
    9d08:	04913423          	sd	s1,72(sp)
    9d0c:	05213023          	sd	s2,64(sp)
    9d10:	03413823          	sd	s4,48(sp)
    9d14:	03613023          	sd	s6,32(sp)
    9d18:	01713c23          	sd	s7,24(sp)
    9d1c:	01813823          	sd	s8,16(sp)
    9d20:	01913423          	sd	s9,8(sp)
    9d24:	00050993          	mv	s3,a0
    9d28:	00058413          	mv	s0,a1
    9d2c:	00060a93          	mv	s5,a2
    9d30:	d45ff0ef          	jal	ra,0x9a74
    9d34:	04050063          	beqz	a0,0x9d74
    9d38:	00000993          	li	s3,0
    9d3c:	05813083          	ld	ra,88(sp)
    9d40:	05013403          	ld	s0,80(sp)
    9d44:	04813483          	ld	s1,72(sp)
    9d48:	04013903          	ld	s2,64(sp)
    9d4c:	03013a03          	ld	s4,48(sp)
    9d50:	02813a83          	ld	s5,40(sp)
    9d54:	02013b03          	ld	s6,32(sp)
    9d58:	01813b83          	ld	s7,24(sp)
    9d5c:	01013c03          	ld	s8,16(sp)
    9d60:	00813c83          	ld	s9,8(sp)
    9d64:	00098513          	mv	a0,s3
    9d68:	03813983          	ld	s3,56(sp)
    9d6c:	06010113          	addi	sp,sp,96
    9d70:	00008067          	ret
    9d74:	00044703          	lbu	a4,0(s0)
    9d78:	02f00793          	li	a5,47
    9d7c:	0189ba03          	ld	s4,24(s3)
    9d80:	00f71a63          	bne	a4,a5,0x9d94
    9d84:	00144783          	lbu	a5,1(s0)
    9d88:	00079663          	bnez	a5,0x9d94
    9d8c:	014ab023          	sd	s4,0(s5)
    9d90:	fadff06f          	j	0x9d3c
    9d94:	0109b483          	ld	s1,16(s3)
    9d98:	02f00793          	li	a5,47
    9d9c:	00044703          	lbu	a4,0(s0)
    9da0:	02f70263          	beq	a4,a5,0x9dc4
    9da4:	00040913          	mv	s2,s0
    9da8:	02f00713          	li	a4,47
    9dac:	00094783          	lbu	a5,0(s2)
    9db0:	00e78463          	beq	a5,a4,0x9db8
    9db4:	00079c63          	bnez	a5,0x9dcc
    9db8:	02f00c13          	li	s8,47
    9dbc:	00100c93          	li	s9,1
    9dc0:	0900006f          	j	0x9e50
    9dc4:	00140413          	addi	s0,s0,1
    9dc8:	fd5ff06f          	j	0x9d9c
    9dcc:	00190913          	addi	s2,s2,1
    9dd0:	fddff06f          	j	0x9dac
    9dd4:	00140413          	addi	s0,s0,1
    9dd8:	0500006f          	j	0x9e28
    9ddc:	00190913          	addi	s2,s2,1
    9de0:	0540006f          	j	0x9e34
    9de4:	001b0b13          	addi	s6,s6,1
    9de8:	02048493          	addi	s1,s1,32
    9dec:	f54b06e3          	beq	s6,s4,0x9d38
    9df0:	00048513          	mv	a0,s1
    9df4:	00048993          	mv	s3,s1
    9df8:	c7dff0ef          	jal	ra,0x9a74
    9dfc:	f2051ee3          	bnez	a0,0x9d38
    9e00:	0084b503          	ld	a0,8(s1)
    9e04:	82cfa0ef          	jal	ra,0x3e30
    9e08:	fd751ee3          	bne	a0,s7,0x9de4
    9e0c:	0084b503          	ld	a0,8(s1)
    9e10:	000b8613          	mv	a2,s7
    9e14:	00040593          	mv	a1,s0
    9e18:	fb5f90ef          	jal	ra,0x3dcc
    9e1c:	fc0514e3          	bnez	a0,0x9de4
    9e20:	0184ba03          	ld	s4,24(s1)
    9e24:	00090413          	mv	s0,s2
    9e28:	00044783          	lbu	a5,0(s0)
    9e2c:	fb8784e3          	beq	a5,s8,0x9dd4
    9e30:	00040913          	mv	s2,s0
    9e34:	00094703          	lbu	a4,0(s2)
    9e38:	01870463          	beq	a4,s8,0x9e40
    9e3c:	fa0710e3          	bnez	a4,0x9ddc
    9e40:	f40786e3          	beqz	a5,0x9d8c
    9e44:	0004a783          	lw	a5,0(s1)
    9e48:	ef9798e3          	bne	a5,s9,0x9d38
    9e4c:	0104b483          	ld	s1,16(s1)
    9e50:	ee0484e3          	beqz	s1,0x9d38
    9e54:	00000b13          	li	s6,0
    9e58:	40890bb3          	sub	s7,s2,s0
    9e5c:	f91ff06f          	j	0x9dec
    9e60:	04053783          	ld	a5,64(a0)
    9e64:	fd010113          	addi	sp,sp,-48
    9e68:	01213823          	sd	s2,16(sp)
    9e6c:	0187b903          	ld	s2,24(a5)
    9e70:	00913c23          	sd	s1,24(sp)
    9e74:	00050493          	mv	s1,a0
    9e78:	00090513          	mv	a0,s2
    9e7c:	02813023          	sd	s0,32(sp)
    9e80:	02113423          	sd	ra,40(sp)
    9e84:	bf1ff0ef          	jal	ra,0x9a74
    9e88:	ffb00413          	li	s0,-5
    9e8c:	06051263          	bnez	a0,0x9ef0
    9e90:	0284a783          	lw	a5,40(s1)
    9e94:	fea00413          	li	s0,-22
    9e98:	6437f793          	andi	a5,a5,1603
    9e9c:	04079a63          	bnez	a5,0x9ef0
    9ea0:	0084b583          	ld	a1,8(s1)
    9ea4:	00050413          	mv	s0,a0
    9ea8:	00810613          	addi	a2,sp,8
    9eac:	00090513          	mv	a0,s2
    9eb0:	e45ff0ef          	jal	ra,0x9cf4
    9eb4:	02050063          	beqz	a0,0x9ed4
    9eb8:	0284a783          	lw	a5,40(s1)
    9ebc:	00052683          	lw	a3,0(a0)
    9ec0:	00010737          	lui	a4,0x10
    9ec4:	00e7f7b3          	and	a5,a5,a4
    9ec8:	00100713          	li	a4,1
    9ecc:	00e69863          	bne	a3,a4,0x9edc
    9ed0:	00079863          	bnez	a5,0x9ee0
    9ed4:	ffe00413          	li	s0,-2
    9ed8:	0180006f          	j	0x9ef0
    9edc:	fe079ce3          	bnez	a5,0x9ed4
    9ee0:	00813783          	ld	a5,8(sp)
    9ee4:	04a4b023          	sd	a0,64(s1)
    9ee8:	0204bc23          	sd	zero,56(s1)
    9eec:	02f4b823          	sd	a5,48(s1)
    9ef0:	02813083          	ld	ra,40(sp)
    9ef4:	00040513          	mv	a0,s0
    9ef8:	02013403          	ld	s0,32(sp)
    9efc:	01813483          	ld	s1,24(sp)
    9f00:	01013903          	ld	s2,16(sp)
    9f04:	03010113          	addi	sp,sp,48
    9f08:	00008067          	ret
    9f0c:	01853503          	ld	a0,24(a0)
    9f10:	fe010113          	addi	sp,sp,-32
    9f14:	00813823          	sd	s0,16(sp)
    9f18:	00060413          	mv	s0,a2
    9f1c:	00810613          	addi	a2,sp,8
    9f20:	00113c23          	sd	ra,24(sp)
    9f24:	dd1ff0ef          	jal	ra,0x9cf4
    9f28:	04050663          	beqz	a0,0x9f74
    9f2c:	000087b7          	lui	a5,0x8
    9f30:	00052703          	lw	a4,0(a0)
    9f34:	1b67879b          	addiw	a5,a5,438
    9f38:	00f42823          	sw	a5,16(s0)
    9f3c:	00043023          	sd	zero,0(s0)
    9f40:	00100793          	li	a5,1
    9f44:	00f71863          	bne	a4,a5,0x9f54
    9f48:	000047b7          	lui	a5,0x4
    9f4c:	1ff7879b          	addiw	a5,a5,511
    9f50:	00f42823          	sw	a5,16(s0)
    9f54:	01853783          	ld	a5,24(a0)
    9f58:	04043c23          	sd	zero,88(s0)
    9f5c:	00000513          	li	a0,0
    9f60:	02f43823          	sd	a5,48(s0)
    9f64:	01813083          	ld	ra,24(sp)
    9f68:	01013403          	ld	s0,16(sp)
    9f6c:	02010113          	addi	sp,sp,32
    9f70:	00008067          	ret
    9f74:	ffe00513          	li	a0,-2
    9f78:	fedff06f          	j	0x9f64
    9f7c:	fd010113          	addi	sp,sp,-48
    9f80:	00005517          	auipc	a0,0x5
    9f84:	55050513          	addi	a0,a0,1360 # 0xf4d0
    9f88:	02813023          	sd	s0,32(sp)
    9f8c:	01213823          	sd	s2,16(sp)
    9f90:	01313423          	sd	s3,8(sp)
    9f94:	01413023          	sd	s4,0(sp)
    9f98:	02113423          	sd	ra,40(sp)
    9f9c:	00913c23          	sd	s1,24(sp)
    9fa0:	0000f917          	auipc	s2,0xf
    9fa4:	38090913          	addi	s2,s2,896 # 0x19320
    9fa8:	d90fa0ef          	jal	ra,0x4538
    9fac:	00005997          	auipc	s3,0x5
    9fb0:	54498993          	addi	s3,s3,1348 # 0xf4f0
    9fb4:	0000f417          	auipc	s0,0xf
    9fb8:	36443403          	ld	s0,868(s0) # 0x19318
    9fbc:	00005a17          	auipc	s4,0x5
    9fc0:	53ca0a13          	addi	s4,s4,1340 # 0xf4f8
    9fc4:	00093783          	ld	a5,0(s2)
    9fc8:	02f46a63          	bltu	s0,a5,0x9ffc
    9fcc:	00006517          	auipc	a0,0x6
    9fd0:	e6c50513          	addi	a0,a0,-404 # 0xfe38
    9fd4:	d64fa0ef          	jal	ra,0x4538
    9fd8:	02813083          	ld	ra,40(sp)
    9fdc:	02013403          	ld	s0,32(sp)
    9fe0:	01813483          	ld	s1,24(sp)
    9fe4:	01013903          	ld	s2,16(sp)
    9fe8:	00813983          	ld	s3,8(sp)
    9fec:	00013a03          	ld	s4,0(sp)
    9ff0:	00000513          	li	a0,0
    9ff4:	03010113          	addi	sp,sp,48
    9ff8:	00008067          	ret
    9ffc:	00043483          	ld	s1,0(s0)
    a000:	00600613          	li	a2,6
    a004:	00098593          	mv	a1,s3
    a008:	00048513          	mv	a0,s1
    a00c:	db0f60ef          	jal	ra,0x5bc
    a010:	00051a63          	bnez	a0,0xa024
    a014:	00843603          	ld	a2,8(s0)
    a018:	00648593          	addi	a1,s1,6
    a01c:	000a0513          	mv	a0,s4
    a020:	d18fa0ef          	jal	ra,0x4538
    a024:	01840413          	addi	s0,s0,24
    a028:	f9dff06f          	j	0x9fc4
    a02c:	ff010113          	addi	sp,sp,-16
    a030:	00113423          	sd	ra,8(sp)
    a034:	1a8020ef          	jal	ra,0xc1dc
    a038:	00813083          	ld	ra,8(sp)
    a03c:	00000513          	li	a0,0
    a040:	01010113          	addi	sp,sp,16
    a044:	00008067          	ret
    a048:	ff010113          	addi	sp,sp,-16
    a04c:	00113423          	sd	ra,8(sp)
    a050:	e4cf60ef          	jal	ra,0x69c
    a054:	00813083          	ld	ra,8(sp)
    a058:	00000513          	li	a0,0
    a05c:	01010113          	addi	sp,sp,16
    a060:	00008067          	ret
    a064:	00100513          	li	a0,1
    a068:	00008067          	ret
    a06c:	f6010113          	addi	sp,sp,-160
    a070:	08813823          	sd	s0,144(sp)
    a074:	08913423          	sd	s1,136(sp)
    a078:	08113c23          	sd	ra,152(sp)
    a07c:	09213023          	sd	s2,128(sp)
    a080:	07313c23          	sd	s3,120(sp)
    a084:	07413823          	sd	s4,112(sp)
    a088:	07513423          	sd	s5,104(sp)
    a08c:	07613023          	sd	s6,96(sp)
    a090:	05713c23          	sd	s7,88(sp)
    a094:	00050493          	mv	s1,a0
    a098:	00058413          	mv	s0,a1
    a09c:	02000693          	li	a3,32
    a0a0:	00900713          	li	a4,9
    a0a4:	04041063          	bnez	s0,0xa0e4
    a0a8:	00000513          	li	a0,0
    a0ac:	09813083          	ld	ra,152(sp)
    a0b0:	09013403          	ld	s0,144(sp)
    a0b4:	08813483          	ld	s1,136(sp)
    a0b8:	08013903          	ld	s2,128(sp)
    a0bc:	07813983          	ld	s3,120(sp)
    a0c0:	07013a03          	ld	s4,112(sp)
    a0c4:	06813a83          	ld	s5,104(sp)
    a0c8:	06013b03          	ld	s6,96(sp)
    a0cc:	05813b83          	ld	s7,88(sp)
    a0d0:	0a010113          	addi	sp,sp,160
    a0d4:	00008067          	ret
    a0d8:	00148493          	addi	s1,s1,1
    a0dc:	fff40413          	addi	s0,s0,-1
    a0e0:	fc5ff06f          	j	0xa0a4
    a0e4:	0004c783          	lbu	a5,0(s1)
    a0e8:	fed788e3          	beq	a5,a3,0xa0d8
    a0ec:	fee786e3          	beq	a5,a4,0xa0d8
    a0f0:	00000793          	li	a5,0
    a0f4:	02000693          	li	a3,32
    a0f8:	00900613          	li	a2,9
    a0fc:	00f48733          	add	a4,s1,a5
    a100:	00074703          	lbu	a4,0(a4) # 0x10000
    a104:	0cd70663          	beq	a4,a3,0xa1d0
    a108:	0cc70463          	beq	a4,a2,0xa1d0
    a10c:	0af41e63          	bne	s0,a5,0xa1c8
    a110:	00078b1b          	sext.w	s6,a5
    a114:	0000f997          	auipc	s3,0xf
    a118:	2049b983          	ld	s3,516(s3) # 0x19318
    a11c:	0000fa97          	auipc	s5,0xf
    a120:	204aba83          	ld	s5,516(s5) # 0x19320
    a124:	00005b97          	auipc	s7,0x5
    a128:	3ccb8b93          	addi	s7,s7,972 # 0xf4f0
    a12c:	0067891b          	addiw	s2,a5,6
    a130:	0b59f263          	bgeu	s3,s5,0xa1d4
    a134:	0009ba03          	ld	s4,0(s3)
    a138:	00600613          	li	a2,6
    a13c:	000b8593          	mv	a1,s7
    a140:	000a0513          	mv	a0,s4
    a144:	c78f60ef          	jal	ra,0x5bc
    a148:	0c051463          	bnez	a0,0xa210
    a14c:	000b0613          	mv	a2,s6
    a150:	00048593          	mv	a1,s1
    a154:	006a0513          	addi	a0,s4,6
    a158:	c64f60ef          	jal	ra,0x5bc
    a15c:	0a051a63          	bnez	a0,0xa210
    a160:	012a0a33          	add	s4,s4,s2
    a164:	000a4783          	lbu	a5,0(s4)
    a168:	0a079463          	bnez	a5,0xa210
    a16c:	0109b983          	ld	s3,16(s3)
    a170:	06098263          	beqz	s3,0xa1d4
    a174:	05000613          	li	a2,80
    a178:	00000593          	li	a1,0
    a17c:	00010513          	mv	a0,sp
    a180:	c40f60ef          	jal	ra,0x5c0
    a184:	00010913          	mv	s2,sp
    a188:	00010613          	mv	a2,sp
    a18c:	00048793          	mv	a5,s1
    a190:	00000713          	li	a4,0
    a194:	00000693          	li	a3,0
    a198:	02000813          	li	a6,32
    a19c:	00900893          	li	a7,9
    a1a0:	00a00313          	li	t1,10
    a1a4:	02200593          	li	a1,34
    a1a8:	05c00e13          	li	t3,92
    a1ac:	0007c503          	lbu	a0,0(a5) # 0x4000
    a1b0:	01050463          	beq	a0,a6,0xa1b8
    a1b4:	07151a63          	bne	a0,a7,0xa228
    a1b8:	06e41063          	bne	s0,a4,0xa218
    a1bc:	00a00793          	li	a5,10
    a1c0:	06f68663          	beq	a3,a5,0xa22c
    a1c4:	0d40006f          	j	0xa298
    a1c8:	00178793          	addi	a5,a5,1
    a1cc:	f31ff06f          	j	0xa0fc
    a1d0:	f40790e3          	bnez	a5,0xa110
    a1d4:	0004059b          	sext.w	a1,s0
    a1d8:	00048513          	mv	a0,s1
    a1dc:	311010ef          	jal	ra,0xbcec
    a1e0:	00048793          	mv	a5,s1
    a1e4:	ec0502e3          	beqz	a0,0xa0a8
    a1e8:	0007c703          	lbu	a4,0(a5)
    a1ec:	0df77713          	andi	a4,a4,223
    a1f0:	10071c63          	bnez	a4,0xa308
    a1f4:	00005517          	auipc	a0,0x5
    a1f8:	33c50513          	addi	a0,a0,828 # 0xf530
    a1fc:	00078023          	sb	zero,0(a5)
    a200:	00048593          	mv	a1,s1
    a204:	b34fa0ef          	jal	ra,0x4538
    a208:	fff00513          	li	a0,-1
    a20c:	ea1ff06f          	j	0xa0ac
    a210:	01898993          	addi	s3,s3,24
    a214:	f1dff06f          	j	0xa130
    a218:	00078023          	sb	zero,0(a5)
    a21c:	00170713          	addi	a4,a4,1
    a220:	00178793          	addi	a5,a5,1
    a224:	f89ff06f          	j	0xa1ac
    a228:	04669663          	bne	a3,t1,0xa274
    a22c:	00005517          	auipc	a0,0x5
    a230:	2dc50513          	addi	a0,a0,732 # 0xf508
    a234:	b04fa0ef          	jal	ra,0x4538
    a238:	05010413          	addi	s0,sp,80
    a23c:	00005497          	auipc	s1,0x5
    a240:	2ec48493          	addi	s1,s1,748 # 0xf528
    a244:	00093583          	ld	a1,0(s2)
    a248:	00048513          	mv	a0,s1
    a24c:	00890913          	addi	s2,s2,8
    a250:	ae8fa0ef          	jal	ra,0x4538
    a254:	fe8918e3          	bne	s2,s0,0xa244
    a258:	00006517          	auipc	a0,0x6
    a25c:	be050513          	addi	a0,a0,-1056 # 0xfe38
    a260:	ad8fa0ef          	jal	ra,0x4538
    a264:	00a00513          	li	a0,10
    a268:	00010593          	mv	a1,sp
    a26c:	000980e7          	jalr	s3
    a270:	e3dff06f          	j	0xa0ac
    a274:	02877263          	bgeu	a4,s0,0xa298
    a278:	00168693          	addi	a3,a3,1
    a27c:	06b51263          	bne	a0,a1,0xa2e0
    a280:	00178793          	addi	a5,a5,1
    a284:	00170713          	addi	a4,a4,1
    a288:	00f63023          	sd	a5,0(a2)
    a28c:	0007c503          	lbu	a0,0(a5)
    a290:	02b50a63          	beq	a0,a1,0xa2c4
    a294:	00876863          	bltu	a4,s0,0xa2a4
    a298:	0006851b          	sext.w	a0,a3
    a29c:	fc0696e3          	bnez	a3,0xa268
    a2a0:	f35ff06f          	j	0xa1d4
    a2a4:	0017ce83          	lbu	t4,1(a5)
    a2a8:	01c51863          	bne	a0,t3,0xa2b8
    a2ac:	00be9663          	bne	t4,a1,0xa2b8
    a2b0:	00178793          	addi	a5,a5,1
    a2b4:	00170713          	addi	a4,a4,1
    a2b8:	00178793          	addi	a5,a5,1
    a2bc:	00170713          	addi	a4,a4,1
    a2c0:	fcdff06f          	j	0xa28c
    a2c4:	fc877ae3          	bgeu	a4,s0,0xa298
    a2c8:	00078023          	sb	zero,0(a5)
    a2cc:	00170713          	addi	a4,a4,1
    a2d0:	00178793          	addi	a5,a5,1
    a2d4:	00860613          	addi	a2,a2,8
    a2d8:	ec876ae3          	bltu	a4,s0,0xa1ac
    a2dc:	fbdff06f          	j	0xa298
    a2e0:	00f63023          	sd	a5,0(a2)
    a2e4:	0007c503          	lbu	a0,0(a5)
    a2e8:	01050c63          	beq	a0,a6,0xa300
    a2ec:	01150a63          	beq	a0,a7,0xa300
    a2f0:	fae404e3          	beq	s0,a4,0xa298
    a2f4:	00178793          	addi	a5,a5,1
    a2f8:	00170713          	addi	a4,a4,1
    a2fc:	fe9ff06f          	j	0xa2e4
    a300:	fc876ae3          	bltu	a4,s0,0xa2d4
    a304:	f95ff06f          	j	0xa298
    a308:	00178793          	addi	a5,a5,1
    a30c:	eddff06f          	j	0xa1e8
    a310:	26050863          	beqz	a0,0xa580
    a314:	fc010113          	addi	sp,sp,-64
    a318:	03213023          	sd	s2,32(sp)
    a31c:	00050913          	mv	s2,a0
    a320:	10000513          	li	a0,256
    a324:	02813823          	sd	s0,48(sp)
    a328:	02113c23          	sd	ra,56(sp)
    a32c:	02913423          	sd	s1,40(sp)
    a330:	01313c23          	sd	s3,24(sp)
    a334:	01413823          	sd	s4,16(sp)
    a338:	01513423          	sd	s5,8(sp)
    a33c:	8d1f60ef          	jal	ra,0xc0c
    a340:	00050413          	mv	s0,a0
    a344:	20050c63          	beqz	a0,0xa55c
    a348:	00094783          	lbu	a5,0(s2)
    a34c:	02f00493          	li	s1,47
    a350:	04978863          	beq	a5,s1,0xa3a0
    a354:	10000593          	li	a1,256
    a358:	bddfd0ef          	jal	ra,0x7f34
    a35c:	00040513          	mv	a0,s0
    a360:	ad1f90ef          	jal	ra,0x3e30
    a364:	00a40533          	add	a0,s0,a0
    a368:	fff54783          	lbu	a5,-1(a0)
    a36c:	00978a63          	beq	a5,s1,0xa380
    a370:	00005597          	auipc	a1,0x5
    a374:	af858593          	addi	a1,a1,-1288 # 0xee68
    a378:	00040513          	mv	a0,s0
    a37c:	a04f60ef          	jal	ra,0x580
    a380:	00090793          	mv	a5,s2
    a384:	00000993          	li	s3,0
    a388:	02f00693          	li	a3,47
    a38c:	0007c703          	lbu	a4,0(a5)
    a390:	00d71c63          	bne	a4,a3,0xa3a8
    a394:	00178993          	addi	s3,a5,1
    a398:	00178793          	addi	a5,a5,1
    a39c:	ff1ff06f          	j	0xa38c
    a3a0:	00050023          	sb	zero,0(a0)
    a3a4:	fddff06f          	j	0xa380
    a3a8:	fe0718e3          	bnez	a4,0xa398
    a3ac:	00099463          	bnez	s3,0xa3b4
    a3b0:	00090993          	mv	s3,s2
    a3b4:	00040513          	mv	a0,s0
    a3b8:	0080006f          	j	0xa3c0
    a3bc:	00150513          	addi	a0,a0,1
    a3c0:	00054783          	lbu	a5,0(a0)
    a3c4:	fe079ce3          	bnez	a5,0xa3bc
    a3c8:	00050793          	mv	a5,a0
    a3cc:	00090493          	mv	s1,s2
    a3d0:	05349463          	bne	s1,s3,0xa418
    a3d4:	41248933          	sub	s2,s1,s2
    a3d8:	01250933          	add	s2,a0,s2
    a3dc:	00090023          	sb	zero,0(s2)
    a3e0:	00040513          	mv	a0,s0
    a3e4:	829fd0ef          	jal	ra,0x7c0c
    a3e8:	00050a13          	mv	s4,a0
    a3ec:	04051063          	bnez	a0,0xa42c
    a3f0:	00040513          	mv	a0,s0
    a3f4:	03013403          	ld	s0,48(sp)
    a3f8:	03813083          	ld	ra,56(sp)
    a3fc:	02813483          	ld	s1,40(sp)
    a400:	02013903          	ld	s2,32(sp)
    a404:	01813983          	ld	s3,24(sp)
    a408:	01013a03          	ld	s4,16(sp)
    a40c:	00813a83          	ld	s5,8(sp)
    a410:	04010113          	addi	sp,sp,64
    a414:	b49f606f          	j	0xf5c
    a418:	0004c703          	lbu	a4,0(s1)
    a41c:	00148493          	addi	s1,s1,1
    a420:	00178793          	addi	a5,a5,1
    a424:	fee78fa3          	sb	a4,-1(a5)
    a428:	fa9ff06f          	j	0xa3d0
    a42c:	0004c783          	lbu	a5,0(s1)
    a430:	02079463          	bnez	a5,0xa458
    a434:	00005497          	auipc	s1,0x5
    a438:	0cc48493          	addi	s1,s1,204 # 0xf500
    a43c:	000a0513          	mv	a0,s4
    a440:	891fd0ef          	jal	ra,0x7cd0
    a444:	10050663          	beqz	a0,0xa550
    a448:	00450593          	addi	a1,a0,4
    a44c:	00048513          	mv	a0,s1
    a450:	8e8fa0ef          	jal	ra,0x4538
    a454:	fe9ff06f          	j	0xa43c
    a458:	00000493          	li	s1,0
    a45c:	000a0513          	mv	a0,s4
    a460:	871fd0ef          	jal	ra,0x7cd0
    a464:	06050c63          	beqz	a0,0xa4dc
    a468:	00450913          	addi	s2,a0,4
    a46c:	00098513          	mv	a0,s3
    a470:	9c1f90ef          	jal	ra,0x3e30
    a474:	00050613          	mv	a2,a0
    a478:	00090593          	mv	a1,s2
    a47c:	00098513          	mv	a0,s3
    a480:	93cf60ef          	jal	ra,0x5bc
    a484:	fc051ce3          	bnez	a0,0xa45c
    a488:	00049e63          	bnez	s1,0xa4a4
    a48c:	00090513          	mv	a0,s2
    a490:	9a1f90ef          	jal	ra,0x3e30
    a494:	00050493          	mv	s1,a0
    a498:	00090593          	mv	a1,s2
    a49c:	00040513          	mv	a0,s0
    a4a0:	8b8f60ef          	jal	ra,0x558
    a4a4:	00090593          	mv	a1,s2
    a4a8:	00040793          	mv	a5,s0
    a4ac:	0005c683          	lbu	a3,0(a1)
    a4b0:	00068863          	beqz	a3,0xa4c0
    a4b4:	0007c703          	lbu	a4,0(a5)
    a4b8:	00070463          	beqz	a4,0xa4c0
    a4bc:	00e68a63          	beq	a3,a4,0xa4d0
    a4c0:	412585bb          	subw	a1,a1,s2
    a4c4:	f895fce3          	bgeu	a1,s1,0xa45c
    a4c8:	00058493          	mv	s1,a1
    a4cc:	f91ff06f          	j	0xa45c
    a4d0:	00158593          	addi	a1,a1,1
    a4d4:	00178793          	addi	a5,a5,1
    a4d8:	fd5ff06f          	j	0xa4ac
    a4dc:	06048a63          	beqz	s1,0xa550
    a4e0:	00040513          	mv	a0,s0
    a4e4:	94df90ef          	jal	ra,0x3e30
    a4e8:	04a4f863          	bgeu	s1,a0,0xa538
    a4ec:	000a0513          	mv	a0,s4
    a4f0:	8a9fd0ef          	jal	ra,0x7d98
    a4f4:	00005a97          	auipc	s5,0x5
    a4f8:	00ca8a93          	addi	s5,s5,12 # 0xf500
    a4fc:	000a0513          	mv	a0,s4
    a500:	fd0fd0ef          	jal	ra,0x7cd0
    a504:	02050a63          	beqz	a0,0xa538
    a508:	00450913          	addi	s2,a0,4
    a50c:	00098513          	mv	a0,s3
    a510:	921f90ef          	jal	ra,0x3e30
    a514:	00050613          	mv	a2,a0
    a518:	00090593          	mv	a1,s2
    a51c:	00098513          	mv	a0,s3
    a520:	89cf60ef          	jal	ra,0x5bc
    a524:	fc051ce3          	bnez	a0,0xa4fc
    a528:	00090593          	mv	a1,s2
    a52c:	000a8513          	mv	a0,s5
    a530:	808fa0ef          	jal	ra,0x4538
    a534:	fc9ff06f          	j	0xa4fc
    a538:	00048613          	mv	a2,s1
    a53c:	00040593          	mv	a1,s0
    a540:	00098513          	mv	a0,s3
    a544:	009984b3          	add	s1,s3,s1
    a548:	87cf60ef          	jal	ra,0x5c4
    a54c:	00048023          	sb	zero,0(s1)
    a550:	000a0513          	mv	a0,s4
    a554:	8adfd0ef          	jal	ra,0x7e00
    a558:	e99ff06f          	j	0xa3f0
    a55c:	03813083          	ld	ra,56(sp)
    a560:	03013403          	ld	s0,48(sp)
    a564:	02813483          	ld	s1,40(sp)
    a568:	02013903          	ld	s2,32(sp)
    a56c:	01813983          	ld	s3,24(sp)
    a570:	01013a03          	ld	s4,16(sp)
    a574:	00813a83          	ld	s5,8(sp)
    a578:	04010113          	addi	sp,sp,64
    a57c:	00008067          	ret
    a580:	00008067          	ret
    a584:	00054783          	lbu	a5,0(a0)
    a588:	00079863          	bnez	a5,0xa598
    a58c:	00000593          	li	a1,0
    a590:	00000513          	li	a0,0
    a594:	9e9ff06f          	j	0x9f7c
    a598:	fb010113          	addi	sp,sp,-80
    a59c:	04813023          	sd	s0,64(sp)
    a5a0:	04113423          	sd	ra,72(sp)
    a5a4:	00050413          	mv	s0,a0
    a5a8:	02913c23          	sd	s1,56(sp)
    a5ac:	03213823          	sd	s2,48(sp)
    a5b0:	03313423          	sd	s3,40(sp)
    a5b4:	03413023          	sd	s4,32(sp)
    a5b8:	01513c23          	sd	s5,24(sp)
    a5bc:	01613823          	sd	s6,16(sp)
    a5c0:	01713423          	sd	s7,8(sp)
    a5c4:	86df90ef          	jal	ra,0x3e30
    a5c8:	00a40533          	add	a0,s0,a0
    a5cc:	02000793          	li	a5,32
    a5d0:	00850a63          	beq	a0,s0,0xa5e4
    a5d4:	00054703          	lbu	a4,0(a0)
    a5d8:	06f71c63          	bne	a4,a5,0xa650
    a5dc:	00150513          	addi	a0,a0,1
    a5e0:	d31ff0ef          	jal	ra,0xa310
    a5e4:	0000f997          	auipc	s3,0xf
    a5e8:	d349b983          	ld	s3,-716(s3) # 0x19318
    a5ec:	00000b93          	li	s7,0
    a5f0:	00000493          	li	s1,0
    a5f4:	0000fa17          	auipc	s4,0xf
    a5f8:	d2ca0a13          	addi	s4,s4,-724 # 0x19320
    a5fc:	00005a97          	auipc	s5,0x5
    a600:	ef4a8a93          	addi	s5,s5,-268 # 0xf4f0
    a604:	00005b17          	auipc	s6,0x5
    a608:	efcb0b13          	addi	s6,s6,-260 # 0xf500
    a60c:	000a3783          	ld	a5,0(s4)
    a610:	04f9e463          	bltu	s3,a5,0xa658
    a614:	0e0b8263          	beqz	s7,0xa6f8
    a618:	00040513          	mv	a0,s0
    a61c:	04013403          	ld	s0,64(sp)
    a620:	04813083          	ld	ra,72(sp)
    a624:	03013903          	ld	s2,48(sp)
    a628:	02813983          	ld	s3,40(sp)
    a62c:	02013a03          	ld	s4,32(sp)
    a630:	01813a83          	ld	s5,24(sp)
    a634:	01013b03          	ld	s6,16(sp)
    a638:	00048613          	mv	a2,s1
    a63c:	000b8593          	mv	a1,s7
    a640:	03813483          	ld	s1,56(sp)
    a644:	00813b83          	ld	s7,8(sp)
    a648:	05010113          	addi	sp,sp,80
    a64c:	f3cf906f          	j	0x3d88
    a650:	fff50513          	addi	a0,a0,-1
    a654:	f7dff06f          	j	0xa5d0
    a658:	0009b903          	ld	s2,0(s3)
    a65c:	00600613          	li	a2,6
    a660:	000a8593          	mv	a1,s5
    a664:	00090513          	mv	a0,s2
    a668:	f55f50ef          	jal	ra,0x5bc
    a66c:	06051663          	bnez	a0,0xa6d8
    a670:	00040513          	mv	a0,s0
    a674:	ee1f50ef          	jal	ra,0x554
    a678:	00690913          	addi	s2,s2,6
    a67c:	00050613          	mv	a2,a0
    a680:	00090593          	mv	a1,s2
    a684:	00040513          	mv	a0,s0
    a688:	f35f50ef          	jal	ra,0x5bc
    a68c:	04051663          	bnez	a0,0xa6d8
    a690:	00049a63          	bnez	s1,0xa6a4
    a694:	00090513          	mv	a0,s2
    a698:	ebdf50ef          	jal	ra,0x554
    a69c:	0005049b          	sext.w	s1,a0
    a6a0:	00090b93          	mv	s7,s2
    a6a4:	000b8793          	mv	a5,s7
    a6a8:	00090713          	mv	a4,s2
    a6ac:	0007c603          	lbu	a2,0(a5)
    a6b0:	02061863          	bnez	a2,0xa6e0
    a6b4:	417787b3          	sub	a5,a5,s7
    a6b8:	00078713          	mv	a4,a5
    a6bc:	0007879b          	sext.w	a5,a5
    a6c0:	00f4d463          	bge	s1,a5,0xa6c8
    a6c4:	00048713          	mv	a4,s1
    a6c8:	00090593          	mv	a1,s2
    a6cc:	000b0513          	mv	a0,s6
    a6d0:	0007049b          	sext.w	s1,a4
    a6d4:	e65f90ef          	jal	ra,0x4538
    a6d8:	01898993          	addi	s3,s3,24
    a6dc:	f31ff06f          	j	0xa60c
    a6e0:	00074683          	lbu	a3,0(a4)
    a6e4:	fc0688e3          	beqz	a3,0xa6b4
    a6e8:	fcd616e3          	bne	a2,a3,0xa6b4
    a6ec:	00178793          	addi	a5,a5,1
    a6f0:	00170713          	addi	a4,a4,1
    a6f4:	fb9ff06f          	j	0xa6ac
    a6f8:	04813083          	ld	ra,72(sp)
    a6fc:	04013403          	ld	s0,64(sp)
    a700:	03813483          	ld	s1,56(sp)
    a704:	03013903          	ld	s2,48(sp)
    a708:	02813983          	ld	s3,40(sp)
    a70c:	02013a03          	ld	s4,32(sp)
    a710:	01813a83          	ld	s5,24(sp)
    a714:	01013b03          	ld	s6,16(sp)
    a718:	00813b83          	ld	s7,8(sp)
    a71c:	05010113          	addi	sp,sp,80
    a720:	00008067          	ret
    a724:	0000f797          	auipc	a5,0xf
    a728:	c1c78793          	addi	a5,a5,-996 # 0x19340
    a72c:	0007b703          	ld	a4,0(a5)
    a730:	ff010113          	addi	sp,sp,-16
    a734:	00813023          	sd	s0,0(sp)
    a738:	00113423          	sd	ra,8(sp)
    a73c:	00078413          	mv	s0,a5
    a740:	00071e63          	bnez	a4,0xa75c
    a744:	0bf00613          	li	a2,191
    a748:	00005597          	auipc	a1,0x5
    a74c:	f5858593          	addi	a1,a1,-168 # 0xf6a0
    a750:	00005517          	auipc	a0,0x5
    a754:	e8850513          	addi	a0,a0,-376 # 0xf5d8
    a758:	f6df90ef          	jal	ra,0x46c4
    a75c:	00043503          	ld	a0,0(s0)
    a760:	cd8fa0ef          	jal	ra,0x4c38
    a764:	00813083          	ld	ra,8(sp)
    a768:	00013403          	ld	s0,0(sp)
    a76c:	00000513          	li	a0,0
    a770:	01010113          	addi	sp,sp,16
    a774:	00008067          	ret
    a778:	0000f797          	auipc	a5,0xf
    a77c:	bc87b783          	ld	a5,-1080(a5) # 0x19340
    a780:	0447c783          	lbu	a5,68(a5)
    a784:	0027f793          	andi	a5,a5,2
    a788:	00079c63          	bnez	a5,0xa7a0
    a78c:	00018797          	auipc	a5,0x18
    a790:	c2078e23          	sb	zero,-964(a5) # 0x223c8
    a794:	00018517          	auipc	a0,0x18
    a798:	c3450513          	addi	a0,a0,-972 # 0x223c8
    a79c:	00008067          	ret
    a7a0:	fe010113          	addi	sp,sp,-32
    a7a4:	00113c23          	sd	ra,24(sp)
    a7a8:	00813823          	sd	s0,16(sp)
    a7ac:	00913423          	sd	s1,8(sp)
    a7b0:	0000f597          	auipc	a1,0xf
    a7b4:	b885b583          	ld	a1,-1144(a1) # 0x19338
    a7b8:	02058863          	beqz	a1,0xa7e8
    a7bc:	10000613          	li	a2,256
    a7c0:	00018517          	auipc	a0,0x18
    a7c4:	c0850513          	addi	a0,a0,-1016 # 0x223c8
    a7c8:	db5f50ef          	jal	ra,0x57c
    a7cc:	01813083          	ld	ra,24(sp)
    a7d0:	01013403          	ld	s0,16(sp)
    a7d4:	00813483          	ld	s1,8(sp)
    a7d8:	00018517          	auipc	a0,0x18
    a7dc:	bf050513          	addi	a0,a0,-1040 # 0x223c8
    a7e0:	02010113          	addi	sp,sp,32
    a7e4:	00008067          	ret
    a7e8:	87dff0ef          	jal	ra,0xa064
    a7ec:	00005597          	auipc	a1,0x5
    a7f0:	e0458593          	addi	a1,a1,-508 # 0xf5f0
    a7f4:	00051663          	bnez	a0,0xa800
    a7f8:	00005597          	auipc	a1,0x5
    a7fc:	e0058593          	addi	a1,a1,-512 # 0xf5f8
    a800:	00018517          	auipc	a0,0x18
    a804:	bc850513          	addi	a0,a0,-1080 # 0x223c8
    a808:	d51f50ef          	jal	ra,0x558
    a80c:	00018417          	auipc	s0,0x18
    a810:	bbc40413          	addi	s0,s0,-1092 # 0x223c8
    a814:	00040513          	mv	a0,s0
    a818:	e18f90ef          	jal	ra,0x3e30
    a81c:	00050493          	mv	s1,a0
    a820:	00040513          	mv	a0,s0
    a824:	e0cf90ef          	jal	ra,0x3e30
    a828:	10000593          	li	a1,256
    a82c:	40a585b3          	sub	a1,a1,a0
    a830:	00940533          	add	a0,s0,s1
    a834:	f00fd0ef          	jal	ra,0x7f34
    a838:	00005597          	auipc	a1,0x5
    a83c:	dc858593          	addi	a1,a1,-568 # 0xf600
    a840:	00040513          	mv	a0,s0
    a844:	d3df50ef          	jal	ra,0x580
    a848:	f85ff06f          	j	0xa7cc
    a84c:	ff010113          	addi	sp,sp,-16
    a850:	00813023          	sd	s0,0(sp)
    a854:	00050413          	mv	s0,a0
    a858:	00005517          	auipc	a0,0x5
    a85c:	db050513          	addi	a0,a0,-592 # 0xf608
    a860:	00113423          	sd	ra,8(sp)
    a864:	cd5f90ef          	jal	ra,0x4538
    a868:	f11ff0ef          	jal	ra,0xa778
    a86c:	00050593          	mv	a1,a0
    a870:	1da40613          	addi	a2,s0,474
    a874:	00005517          	auipc	a0,0x5
    a878:	d9c50513          	addi	a0,a0,-612 # 0xf610
    a87c:	cbdf90ef          	jal	ra,0x4538
    a880:	00813083          	ld	ra,8(sp)
    a884:	00013403          	ld	s0,0(sp)
    a888:	00000513          	li	a0,0
    a88c:	01010113          	addi	sp,sp,16
    a890:	00008067          	ret
    a894:	0000f797          	auipc	a5,0xf
    a898:	aac78793          	addi	a5,a5,-1364 # 0x19340
    a89c:	0007b703          	ld	a4,0(a5)
    a8a0:	fe010113          	addi	sp,sp,-32
    a8a4:	00813823          	sd	s0,16(sp)
    a8a8:	00913423          	sd	s1,8(sp)
    a8ac:	00113c23          	sd	ra,24(sp)
    a8b0:	00050413          	mv	s0,a0
    a8b4:	00078493          	mv	s1,a5
    a8b8:	00071e63          	bnez	a4,0xa8d4
    a8bc:	0a300613          	li	a2,163
    a8c0:	00005597          	auipc	a1,0x5
    a8c4:	db858593          	addi	a1,a1,-584 # 0xf678
    a8c8:	00005517          	auipc	a0,0x5
    a8cc:	d1050513          	addi	a0,a0,-752 # 0xf5d8
    a8d0:	df5f90ef          	jal	ra,0x46c4
    a8d4:	0004b703          	ld	a4,0(s1)
    a8d8:	00147413          	andi	s0,s0,1
    a8dc:	00141413          	slli	s0,s0,0x1
    a8e0:	04474783          	lbu	a5,68(a4)
    a8e4:	01813083          	ld	ra,24(sp)
    a8e8:	00813483          	ld	s1,8(sp)
    a8ec:	ffd7f793          	andi	a5,a5,-3
    a8f0:	0087e433          	or	s0,a5,s0
    a8f4:	04870223          	sb	s0,68(a4)
    a8f8:	01013403          	ld	s0,16(sp)
    a8fc:	02010113          	addi	sp,sp,32
    a900:	00008067          	ret
    a904:	00006797          	auipc	a5,0x6
    a908:	0d478793          	addi	a5,a5,212 # 0x109d8
    a90c:	0000f717          	auipc	a4,0xf
    a910:	a0f73623          	sd	a5,-1524(a4) # 0x19318
    a914:	00006797          	auipc	a5,0x6
    a918:	63478793          	addi	a5,a5,1588 # 0x10f48
    a91c:	0000f717          	auipc	a4,0xf
    a920:	a0f73223          	sd	a5,-1532(a4) # 0x19320
    a924:	00006797          	auipc	a5,0x6
    a928:	62478793          	addi	a5,a5,1572 # 0x10f48
    a92c:	fe010113          	addi	sp,sp,-32
    a930:	0000f717          	auipc	a4,0xf
    a934:	9ef73c23          	sd	a5,-1544(a4) # 0x19328
    a938:	23800593          	li	a1,568
    a93c:	00006797          	auipc	a5,0x6
    a940:	60c78793          	addi	a5,a5,1548 # 0x10f48
    a944:	00100513          	li	a0,1
    a948:	00913423          	sd	s1,8(sp)
    a94c:	00113c23          	sd	ra,24(sp)
    a950:	00813823          	sd	s0,16(sp)
    a954:	0000f717          	auipc	a4,0xf
    a958:	9cf73e23          	sd	a5,-1572(a4) # 0x19330
    a95c:	0000f497          	auipc	s1,0xf
    a960:	9e448493          	addi	s1,s1,-1564 # 0x19340
    a964:	db8f60ef          	jal	ra,0xf1c
    a968:	00a4b023          	sd	a0,0(s1)
    a96c:	02051663          	bnez	a0,0xa998
    a970:	00005517          	auipc	a0,0x5
    a974:	ca850513          	addi	a0,a0,-856 # 0xf618
    a978:	bc1f90ef          	jal	ra,0x4538
    a97c:	fff00493          	li	s1,-1
    a980:	01813083          	ld	ra,24(sp)
    a984:	01013403          	ld	s0,16(sp)
    a988:	00048513          	mv	a0,s1
    a98c:	00813483          	ld	s1,8(sp)
    a990:	02010113          	addi	sp,sp,32
    a994:	00008067          	ret
    a998:	00a00793          	li	a5,10
    a99c:	01400713          	li	a4,20
    a9a0:	000016b7          	lui	a3,0x1
    a9a4:	00000613          	li	a2,0
    a9a8:	00000597          	auipc	a1,0x0
    a9ac:	15458593          	addi	a1,a1,340 # 0xaafc
    a9b0:	00005517          	auipc	a0,0x5
    a9b4:	c8050513          	addi	a0,a0,-896 # 0xf630
    a9b8:	fa4f70ef          	jal	ra,0x215c
    a9bc:	00050413          	mv	s0,a0
    a9c0:	0004b503          	ld	a0,0(s1)
    a9c4:	00000693          	li	a3,0
    a9c8:	00000613          	li	a2,0
    a9cc:	00005597          	auipc	a1,0x5
    a9d0:	c6c58593          	addi	a1,a1,-916 # 0xf638
    a9d4:	ffdf90ef          	jal	ra,0x49d0
    a9d8:	00100513          	li	a0,1
    a9dc:	eb9ff0ef          	jal	ra,0xa894
    a9e0:	00000493          	li	s1,0
    a9e4:	f8040ee3          	beqz	s0,0xa980
    a9e8:	00040513          	mv	a0,s0
    a9ec:	bc5f70ef          	jal	ra,0x25b0
    a9f0:	f91ff06f          	j	0xa980
    a9f4:	fe010113          	addi	sp,sp,-32
    a9f8:	00813823          	sd	s0,16(sp)
    a9fc:	0000f417          	auipc	s0,0xf
    aa00:	94440413          	addi	s0,s0,-1724 # 0x19340
    aa04:	00043783          	ld	a5,0(s0)
    aa08:	01213023          	sd	s2,0(sp)
    aa0c:	00113c23          	sd	ra,24(sp)
    aa10:	00913423          	sd	s1,8(sp)
    aa14:	00050913          	mv	s2,a0
    aa18:	00079e63          	bnez	a5,0xaa34
    aa1c:	0d200613          	li	a2,210
    aa20:	00005597          	auipc	a1,0x5
    aa24:	c9058593          	addi	a1,a1,-880 # 0xf6b0
    aa28:	00005517          	auipc	a0,0x5
    aa2c:	bb050513          	addi	a0,a0,-1104 # 0xf5d8
    aa30:	c95f90ef          	jal	ra,0x46c4
    aa34:	00090513          	mv	a0,s2
    aa38:	964f80ef          	jal	ra,0x2b9c
    aa3c:	00050493          	mv	s1,a0
    aa40:	02051463          	bnez	a0,0xaa68
    aa44:	01013403          	ld	s0,16(sp)
    aa48:	01813083          	ld	ra,24(sp)
    aa4c:	00813483          	ld	s1,8(sp)
    aa50:	00090593          	mv	a1,s2
    aa54:	00013903          	ld	s2,0(sp)
    aa58:	00005517          	auipc	a0,0x5
    aa5c:	be850513          	addi	a0,a0,-1048 # 0xf640
    aa60:	02010113          	addi	sp,sp,32
    aa64:	ad5f906f          	j	0x4538
    aa68:	00043783          	ld	a5,0(s0)
    aa6c:	2307b783          	ld	a5,560(a5)
    aa70:	06a78a63          	beq	a5,a0,0xaae4
    aa74:	04300593          	li	a1,67
    aa78:	9a4f80ef          	jal	ra,0x2c1c
    aa7c:	06051463          	bnez	a0,0xaae4
    aa80:	00043783          	ld	a5,0(s0)
    aa84:	2307b503          	ld	a0,560(a5)
    aa88:	00050c63          	beqz	a0,0xaaa0
    aa8c:	ae8f80ef          	jal	ra,0x2d74
    aa90:	00043783          	ld	a5,0(s0)
    aa94:	00000593          	li	a1,0
    aa98:	2307b503          	ld	a0,560(a5)
    aa9c:	dd8f80ef          	jal	ra,0x3074
    aaa0:	00043503          	ld	a0,0(s0)
    aaa4:	00000593          	li	a1,0
    aaa8:	05100613          	li	a2,81
    aaac:	1da50513          	addi	a0,a0,474
    aab0:	b11f50ef          	jal	ra,0x5c0
    aab4:	00043783          	ld	a5,0(s0)
    aab8:	01013403          	ld	s0,16(sp)
    aabc:	01813083          	ld	ra,24(sp)
    aac0:	00013903          	ld	s2,0(sp)
    aac4:	2297b823          	sd	s1,560(a5)
    aac8:	00048513          	mv	a0,s1
    aacc:	00813483          	ld	s1,8(sp)
    aad0:	2207a623          	sw	zero,556(a5)
    aad4:	00000597          	auipc	a1,0x0
    aad8:	c5058593          	addi	a1,a1,-944 # 0xa724
    aadc:	02010113          	addi	sp,sp,32
    aae0:	d94f806f          	j	0x3074
    aae4:	01813083          	ld	ra,24(sp)
    aae8:	01013403          	ld	s0,16(sp)
    aaec:	00813483          	ld	s1,8(sp)
    aaf0:	00013903          	ld	s2,0(sp)
    aaf4:	02010113          	addi	sp,sp,32
    aaf8:	00008067          	ret
    aafc:	f8010113          	addi	sp,sp,-128
    ab00:	06913423          	sd	s1,104(sp)
    ab04:	0000f497          	auipc	s1,0xf
    ab08:	83c48493          	addi	s1,s1,-1988 # 0x19340
    ab0c:	0004b783          	ld	a5,0(s1)
    ab10:	06113c23          	sd	ra,120(sp)
    ab14:	06813823          	sd	s0,112(sp)
    ab18:	0447c703          	lbu	a4,68(a5)
    ab1c:	07213023          	sd	s2,96(sp)
    ab20:	05313c23          	sd	s3,88(sp)
    ab24:	05413823          	sd	s4,80(sp)
    ab28:	05513423          	sd	s5,72(sp)
    ab2c:	05613023          	sd	s6,64(sp)
    ab30:	03713c23          	sd	s7,56(sp)
    ab34:	03813823          	sd	s8,48(sp)
    ab38:	03913423          	sd	s9,40(sp)
    ab3c:	03a13023          	sd	s10,32(sp)
    ab40:	01b13c23          	sd	s11,24(sp)
    ab44:	00176713          	ori	a4,a4,1
    ab48:	04e78223          	sb	a4,68(a5)
    ab4c:	2307b783          	ld	a5,560(a5)
    ab50:	00079863          	bnez	a5,0xab60
    ab54:	965f90ef          	jal	ra,0x44b8
    ab58:	00050463          	beqz	a0,0xab60
    ab5c:	e99ff0ef          	jal	ra,0xa9f4
    ab60:	c19ff0ef          	jal	ra,0xa778
    ab64:	9d5f90ef          	jal	ra,0x4538
    ab68:	00005a17          	auipc	s4,0x5
    ab6c:	b28a0a13          	addi	s4,s4,-1240 # 0xf690
    ab70:	00005a97          	auipc	s5,0x5
    ab74:	a68a8a93          	addi	s5,s5,-1432 # 0xf5d8
    ab78:	01b00993          	li	s3,27
    ab7c:	0fd00b13          	li	s6,253
    ab80:	00900b93          	li	s7,9
    ab84:	07f00c13          	li	s8,127
    ab88:	00005917          	auipc	s2,0x5
    ab8c:	ad890913          	addi	s2,s2,-1320 # 0xf660
    ab90:	0004b783          	ld	a5,0(s1)
    ab94:	000107a3          	sb	zero,15(sp)
    ab98:	00079a63          	bnez	a5,0xabac
    ab9c:	0af00613          	li	a2,175
    aba0:	000a0593          	mv	a1,s4
    aba4:	000a8513          	mv	a0,s5
    aba8:	b1df90ef          	jal	ra,0x46c4
    abac:	0004b783          	ld	a5,0(s1)
    abb0:	00100693          	li	a3,1
    abb4:	00f10613          	addi	a2,sp,15
    abb8:	2307b503          	ld	a0,560(a5)
    abbc:	fff00593          	li	a1,-1
    abc0:	a60f80ef          	jal	ra,0x2e20
    abc4:	00100793          	li	a5,1
    abc8:	00f51e63          	bne	a0,a5,0xabe4
    abcc:	00f14c83          	lbu	s9,15(sp)
    abd0:	0004b403          	ld	s0,0(s1)
    abd4:	000c859b          	sext.w	a1,s9
    abd8:	013c9c63          	bne	s9,s3,0xabf0
    abdc:	04a42023          	sw	a0,64(s0)
    abe0:	fb1ff06f          	j	0xab90
    abe4:	01400513          	li	a0,20
    abe8:	8d5f70ef          	jal	ra,0x24bc
    abec:	fc1ff06f          	j	0xabac
    abf0:	04042783          	lw	a5,64(s0)
    abf4:	02a79a63          	bne	a5,a0,0xac28
    abf8:	05b00793          	li	a5,91
    abfc:	00f59863          	bne	a1,a5,0xac0c
    ac00:	00200793          	li	a5,2
    ac04:	04f42023          	sw	a5,64(s0)
    ac08:	f89ff06f          	j	0xab90
    ac0c:	04042023          	sw	zero,64(s0)
    ac10:	fffc879b          	addiw	a5,s9,-1
    ac14:	0ff7f793          	andi	a5,a5,255
    ac18:	f6fb6ce3          	bltu	s6,a5,0xab90
    ac1c:	19759863          	bne	a1,s7,0xadac
    ac20:	00000c93          	li	s9,0
    ac24:	1200006f          	j	0xad44
    ac28:	00200713          	li	a4,2
    ac2c:	fee792e3          	bne	a5,a4,0xac10
    ac30:	04042023          	sw	zero,64(s0)
    ac34:	04100793          	li	a5,65
    ac38:	06f59263          	bne	a1,a5,0xac9c
    ac3c:	04645583          	lhu	a1,70(s0)
    ac40:	f40588e3          	beqz	a1,0xab90
    ac44:	fff5859b          	addiw	a1,a1,-1
    ac48:	03059593          	slli	a1,a1,0x30
    ac4c:	0305d593          	srli	a1,a1,0x30
    ac50:	04b41323          	sh	a1,70(s0)
    ac54:	00259793          	slli	a5,a1,0x2
    ac58:	00f585b3          	add	a1,a1,a5
    ac5c:	00459593          	slli	a1,a1,0x4
    ac60:	04a58593          	addi	a1,a1,74
    ac64:	00b405b3          	add	a1,s0,a1
    ac68:	05000613          	li	a2,80
    ac6c:	1da40513          	addi	a0,s0,474
    ac70:	955f50ef          	jal	ra,0x5c4
    ac74:	0004b403          	ld	s0,0(s1)
    ac78:	1da40513          	addi	a0,s0,474
    ac7c:	8d9f50ef          	jal	ra,0x554
    ac80:	03051513          	slli	a0,a0,0x30
    ac84:	03055513          	srli	a0,a0,0x30
    ac88:	22a41623          	sh	a0,556(s0)
    ac8c:	22a41723          	sh	a0,558(s0)
    ac90:	00040513          	mv	a0,s0
    ac94:	bb9ff0ef          	jal	ra,0xa84c
    ac98:	ef9ff06f          	j	0xab90
    ac9c:	04200793          	li	a5,66
    aca0:	02f59a63          	bne	a1,a5,0xacd4
    aca4:	04845683          	lhu	a3,72(s0)
    aca8:	04645783          	lhu	a5,70(s0)
    acac:	fff6861b          	addiw	a2,a3,-1
    acb0:	00c7dc63          	bge	a5,a2,0xacc8
    acb4:	0017879b          	addiw	a5,a5,1
    acb8:	04f41323          	sh	a5,70(s0)
    acbc:	04645783          	lhu	a5,70(s0)
    acc0:	00279593          	slli	a1,a5,0x2
    acc4:	f95ff06f          	j	0xac58
    acc8:	ec0684e3          	beqz	a3,0xab90
    accc:	04c41323          	sh	a2,70(s0)
    acd0:	fedff06f          	j	0xacbc
    acd4:	04400793          	li	a5,68
    acd8:	02f59463          	bne	a1,a5,0xad00
    acdc:	22e45783          	lhu	a5,558(s0)
    ace0:	ea0788e3          	beqz	a5,0xab90
    ace4:	00090513          	mv	a0,s2
    ace8:	851f90ef          	jal	ra,0x4538
    acec:	0004b703          	ld	a4,0(s1)
    acf0:	22e75783          	lhu	a5,558(a4)
    acf4:	fff7879b          	addiw	a5,a5,-1
    acf8:	22f71723          	sh	a5,558(a4)
    acfc:	e95ff06f          	j	0xab90
    ad00:	04300793          	li	a5,67
    ad04:	f0f596e3          	bne	a1,a5,0xac10
    ad08:	22c45703          	lhu	a4,556(s0)
    ad0c:	22e45783          	lhu	a5,558(s0)
    ad10:	e8e7f0e3          	bgeu	a5,a4,0xab90
    ad14:	00f40433          	add	s0,s0,a5
    ad18:	1da44583          	lbu	a1,474(s0)
    ad1c:	00002517          	auipc	a0,0x2
    ad20:	4d450513          	addi	a0,a0,1236 # 0xd1f0
    ad24:	815f90ef          	jal	ra,0x4538
    ad28:	0004b703          	ld	a4,0(s1)
    ad2c:	22e75783          	lhu	a5,558(a4)
    ad30:	0017879b          	addiw	a5,a5,1
    ad34:	fc5ff06f          	j	0xacf8
    ad38:	00090513          	mv	a0,s2
    ad3c:	ffcf90ef          	jal	ra,0x4538
    ad40:	001c8c9b          	addiw	s9,s9,1
    ad44:	0004b403          	ld	s0,0(s1)
    ad48:	22e45783          	lhu	a5,558(s0)
    ad4c:	fefcc6e3          	blt	s9,a5,0xad38
    ad50:	00005517          	auipc	a0,0x5
    ad54:	0e850513          	addi	a0,a0,232 # 0xfe38
    ad58:	fe0f90ef          	jal	ra,0x4538
    ad5c:	b08ff0ef          	jal	ra,0xa064
    ad60:	00100793          	li	a5,1
    ad64:	1da40413          	addi	s0,s0,474
    ad68:	00f51663          	bne	a0,a5,0xad74
    ad6c:	00040513          	mv	a0,s0
    ad70:	815ff0ef          	jal	ra,0xa584
    ad74:	a05ff0ef          	jal	ra,0xa778
    ad78:	00050593          	mv	a1,a0
    ad7c:	00040613          	mv	a2,s0
    ad80:	00005517          	auipc	a0,0x5
    ad84:	89050513          	addi	a0,a0,-1904 # 0xf610
    ad88:	fb0f90ef          	jal	ra,0x4538
    ad8c:	0004b403          	ld	s0,0(s1)
    ad90:	1da40513          	addi	a0,s0,474
    ad94:	fc0f50ef          	jal	ra,0x554
    ad98:	03051513          	slli	a0,a0,0x30
    ad9c:	03055513          	srli	a0,a0,0x30
    ada0:	22a41623          	sh	a0,556(s0)
    ada4:	22a41723          	sh	a0,558(s0)
    ada8:	de9ff06f          	j	0xab90
    adac:	01858663          	beq	a1,s8,0xadb8
    adb0:	00800793          	li	a5,8
    adb4:	0af59e63          	bne	a1,a5,0xae70
    adb8:	22e45503          	lhu	a0,558(s0)
    adbc:	dc050ae3          	beqz	a0,0xab90
    adc0:	22c45783          	lhu	a5,556(s0)
    adc4:	fff5051b          	addiw	a0,a0,-1
    adc8:	03051513          	slli	a0,a0,0x30
    adcc:	fff7879b          	addiw	a5,a5,-1
    add0:	03079793          	slli	a5,a5,0x30
    add4:	03055513          	srli	a0,a0,0x30
    add8:	0307d793          	srli	a5,a5,0x30
    addc:	22f41623          	sh	a5,556(s0)
    ade0:	22a41723          	sh	a0,558(s0)
    ade4:	0005061b          	sext.w	a2,a0
    ade8:	06f57463          	bgeu	a0,a5,0xae50
    adec:	1db60593          	addi	a1,a2,475
    adf0:	1da50513          	addi	a0,a0,474
    adf4:	40c7863b          	subw	a2,a5,a2
    adf8:	00b405b3          	add	a1,s0,a1
    adfc:	00a40533          	add	a0,s0,a0
    ae00:	ef9f80ef          	jal	ra,0x3cf8
    ae04:	0004b783          	ld	a5,0(s1)
    ae08:	00005517          	auipc	a0,0x5
    ae0c:	86050513          	addi	a0,a0,-1952 # 0xf668
    ae10:	22c7d703          	lhu	a4,556(a5)
    ae14:	00e78733          	add	a4,a5,a4
    ae18:	1c070d23          	sb	zero,474(a4)
    ae1c:	22e7d583          	lhu	a1,558(a5)
    ae20:	1da58593          	addi	a1,a1,474
    ae24:	00b785b3          	add	a1,a5,a1
    ae28:	f10f90ef          	jal	ra,0x4538
    ae2c:	0004b783          	ld	a5,0(s1)
    ae30:	22e7d403          	lhu	s0,558(a5)
    ae34:	0004b783          	ld	a5,0(s1)
    ae38:	22c7d783          	lhu	a5,556(a5)
    ae3c:	d487cae3          	blt	a5,s0,0xab90
    ae40:	00090513          	mv	a0,s2
    ae44:	ef4f90ef          	jal	ra,0x4538
    ae48:	0014041b          	addiw	s0,s0,1
    ae4c:	fe9ff06f          	j	0xae34
    ae50:	00005517          	auipc	a0,0x5
    ae54:	82050513          	addi	a0,a0,-2016 # 0xf670
    ae58:	ee0f90ef          	jal	ra,0x4538
    ae5c:	0004b783          	ld	a5,0(s1)
    ae60:	22c7d703          	lhu	a4,556(a5)
    ae64:	00e787b3          	add	a5,a5,a4
    ae68:	1c078d23          	sb	zero,474(a5)
    ae6c:	d25ff06f          	j	0xab90
    ae70:	00d00713          	li	a4,13
    ae74:	22c45783          	lhu	a5,556(s0)
    ae78:	00e58663          	beq	a1,a4,0xae84
    ae7c:	00a00713          	li	a4,10
    ae80:	16e59063          	bne	a1,a4,0xafe0
    ae84:	06078a63          	beqz	a5,0xaef8
    ae88:	04845d03          	lhu	s10,72(s0)
    ae8c:	00400793          	li	a5,4
    ae90:	1da40c93          	addi	s9,s0,474
    ae94:	000d051b          	sext.w	a0,s10
    ae98:	0da7f463          	bgeu	a5,s10,0xaf60
    ae9c:	18a40d93          	addi	s11,s0,394
    aea0:	05000613          	li	a2,80
    aea4:	000c8593          	mv	a1,s9
    aea8:	000d8513          	mv	a0,s11
    aeac:	f1cf50ef          	jal	ra,0x5c8
    aeb0:	04050463          	beqz	a0,0xaef8
    aeb4:	04a40d13          	addi	s10,s0,74
    aeb8:	000d0513          	mv	a0,s10
    aebc:	050d0d13          	addi	s10,s10,80
    aec0:	05000613          	li	a2,80
    aec4:	000d0593          	mv	a1,s10
    aec8:	efcf50ef          	jal	ra,0x5c4
    aecc:	ffad96e3          	bne	s11,s10,0xaeb8
    aed0:	05000613          	li	a2,80
    aed4:	00000593          	li	a1,0
    aed8:	000d8513          	mv	a0,s11
    aedc:	ee4f50ef          	jal	ra,0x5c0
    aee0:	22c45603          	lhu	a2,556(s0)
    aee4:	000c8593          	mv	a1,s9
    aee8:	000d8513          	mv	a0,s11
    aeec:	ed8f50ef          	jal	ra,0x5c4
    aef0:	00500793          	li	a5,5
    aef4:	04f41423          	sh	a5,72(s0)
    aef8:	04845783          	lhu	a5,72(s0)
    aefc:	04f41323          	sh	a5,70(s0)
    af00:	964ff0ef          	jal	ra,0xa064
    af04:	00100793          	li	a5,1
    af08:	02f51863          	bne	a0,a5,0xaf38
    af0c:	0004b783          	ld	a5,0(s1)
    af10:	0447c783          	lbu	a5,68(a5)
    af14:	0017f793          	andi	a5,a5,1
    af18:	00078863          	beqz	a5,0xaf28
    af1c:	00005517          	auipc	a0,0x5
    af20:	f1c50513          	addi	a0,a0,-228 # 0xfe38
    af24:	e14f90ef          	jal	ra,0x4538
    af28:	0004b503          	ld	a0,0(s1)
    af2c:	22c55583          	lhu	a1,556(a0)
    af30:	1da50513          	addi	a0,a0,474
    af34:	938ff0ef          	jal	ra,0xa06c
    af38:	841ff0ef          	jal	ra,0xa778
    af3c:	dfcf90ef          	jal	ra,0x4538
    af40:	0004b503          	ld	a0,0(s1)
    af44:	05100613          	li	a2,81
    af48:	00000593          	li	a1,0
    af4c:	1da50513          	addi	a0,a0,474
    af50:	e70f50ef          	jal	ra,0x5c0
    af54:	0004b783          	ld	a5,0(s1)
    af58:	2207a623          	sw	zero,556(a5)
    af5c:	c35ff06f          	j	0xab90
    af60:	020d0663          	beqz	s10,0xaf8c
    af64:	fff5079b          	addiw	a5,a0,-1
    af68:	00279513          	slli	a0,a5,0x2
    af6c:	00f50533          	add	a0,a0,a5
    af70:	00451513          	slli	a0,a0,0x4
    af74:	04a50513          	addi	a0,a0,74
    af78:	05000613          	li	a2,80
    af7c:	000c8593          	mv	a1,s9
    af80:	00a40533          	add	a0,s0,a0
    af84:	e44f50ef          	jal	ra,0x5c8
    af88:	f60508e3          	beqz	a0,0xaef8
    af8c:	002d1513          	slli	a0,s10,0x2
    af90:	01a50533          	add	a0,a0,s10
    af94:	00451513          	slli	a0,a0,0x4
    af98:	04a50513          	addi	a0,a0,74
    af9c:	05000613          	li	a2,80
    afa0:	00000593          	li	a1,0
    afa4:	05a41323          	sh	s10,70(s0)
    afa8:	00a40533          	add	a0,s0,a0
    afac:	e14f50ef          	jal	ra,0x5c0
    afb0:	04845783          	lhu	a5,72(s0)
    afb4:	22c45603          	lhu	a2,556(s0)
    afb8:	000c8593          	mv	a1,s9
    afbc:	00279513          	slli	a0,a5,0x2
    afc0:	00f50533          	add	a0,a0,a5
    afc4:	00451513          	slli	a0,a0,0x4
    afc8:	04a50513          	addi	a0,a0,74
    afcc:	00a40533          	add	a0,s0,a0
    afd0:	df4f50ef          	jal	ra,0x5c4
    afd4:	04845783          	lhu	a5,72(s0)
    afd8:	0017879b          	addiw	a5,a5,1
    afdc:	f19ff06f          	j	0xaef4
    afe0:	04f00713          	li	a4,79
    afe4:	00f77463          	bgeu	a4,a5,0xafec
    afe8:	22041623          	sh	zero,556(s0)
    afec:	22e45703          	lhu	a4,558(s0)
    aff0:	22c45783          	lhu	a5,556(s0)
    aff4:	0007061b          	sext.w	a2,a4
    aff8:	0af77263          	bgeu	a4,a5,0xb09c
    affc:	1da70593          	addi	a1,a4,474
    b000:	1db60513          	addi	a0,a2,475
    b004:	00b405b3          	add	a1,s0,a1
    b008:	40c7863b          	subw	a2,a5,a2
    b00c:	00a40533          	add	a0,s0,a0
    b010:	ce9f80ef          	jal	ra,0x3cf8
    b014:	0004b583          	ld	a1,0(s1)
    b018:	22e5d783          	lhu	a5,558(a1)
    b01c:	00f58733          	add	a4,a1,a5
    b020:	1d970d23          	sb	s9,474(a4)
    b024:	0445c703          	lbu	a4,68(a1)
    b028:	00177713          	andi	a4,a4,1
    b02c:	00070c63          	beqz	a4,0xb044
    b030:	1da78793          	addi	a5,a5,474
    b034:	00f585b3          	add	a1,a1,a5
    b038:	00004517          	auipc	a0,0x4
    b03c:	e4850513          	addi	a0,a0,-440 # 0xee80
    b040:	cf8f90ef          	jal	ra,0x4538
    b044:	0004b783          	ld	a5,0(s1)
    b048:	22e7d403          	lhu	s0,558(a5)
    b04c:	0004b783          	ld	a5,0(s1)
    b050:	22c7d783          	lhu	a5,556(a5)
    b054:	02f44c63          	blt	s0,a5,0xb08c
    b058:	0004b703          	ld	a4,0(s1)
    b05c:	22c75783          	lhu	a5,556(a4)
    b060:	22e75683          	lhu	a3,558(a4)
    b064:	0017879b          	addiw	a5,a5,1
    b068:	03079793          	slli	a5,a5,0x30
    b06c:	0016869b          	addiw	a3,a3,1
    b070:	0307d793          	srli	a5,a5,0x30
    b074:	22d71723          	sh	a3,558(a4)
    b078:	22f71623          	sh	a5,556(a4)
    b07c:	04f00693          	li	a3,79
    b080:	b0f6f8e3          	bgeu	a3,a5,0xab90
    b084:	22072623          	sw	zero,556(a4)
    b088:	b09ff06f          	j	0xab90
    b08c:	00090513          	mv	a0,s2
    b090:	ca8f90ef          	jal	ra,0x4538
    b094:	0014041b          	addiw	s0,s0,1
    b098:	fb5ff06f          	j	0xb04c
    b09c:	00f407b3          	add	a5,s0,a5
    b0a0:	1d978d23          	sb	s9,474(a5)
    b0a4:	04444783          	lbu	a5,68(s0)
    b0a8:	0017f793          	andi	a5,a5,1
    b0ac:	fa0786e3          	beqz	a5,0xb058
    b0b0:	00002517          	auipc	a0,0x2
    b0b4:	14050513          	addi	a0,a0,320 # 0xd1f0
    b0b8:	c80f90ef          	jal	ra,0x4538
    b0bc:	f9dff06f          	j	0xb058
    b0c0:	ff010113          	addi	sp,sp,-16
    b0c4:	00113423          	sd	ra,8(sp)
    b0c8:	00100793          	li	a5,1
    b0cc:	02f51063          	bne	a0,a5,0xb0ec
    b0d0:	00006517          	auipc	a0,0x6
    b0d4:	ff850513          	addi	a0,a0,-8 # 0x110c8
    b0d8:	da8fd0ef          	jal	ra,0x8680
    b0dc:	00813083          	ld	ra,8(sp)
    b0e0:	00000513          	li	a0,0
    b0e4:	01010113          	addi	sp,sp,16
    b0e8:	00008067          	ret
    b0ec:	0085b503          	ld	a0,8(a1)
    b0f0:	fe9ff06f          	j	0xb0d8
    b0f4:	ff010113          	addi	sp,sp,-16
    b0f8:	00004517          	auipc	a0,0x4
    b0fc:	40850513          	addi	a0,a0,1032 # 0xf500
    b100:	00006597          	auipc	a1,0x6
    b104:	fc858593          	addi	a1,a1,-56 # 0x110c8
    b108:	00113423          	sd	ra,8(sp)
    b10c:	c2cf90ef          	jal	ra,0x4538
    b110:	00813083          	ld	ra,8(sp)
    b114:	00000513          	li	a0,0
    b118:	01010113          	addi	sp,sp,16
    b11c:	00008067          	ret
    b120:	24050063          	beqz	a0,0xb360
    b124:	f8010113          	addi	sp,sp,-128
    b128:	06913423          	sd	s1,104(sp)
    b12c:	00050493          	mv	s1,a0
    b130:	10000513          	li	a0,256
    b134:	06813823          	sd	s0,112(sp)
    b138:	07213023          	sd	s2,96(sp)
    b13c:	05313c23          	sd	s3,88(sp)
    b140:	06113c23          	sd	ra,120(sp)
    b144:	05413823          	sd	s4,80(sp)
    b148:	05513423          	sd	s5,72(sp)
    b14c:	05613023          	sd	s6,64(sp)
    b150:	03713c23          	sd	s7,56(sp)
    b154:	03813823          	sd	s8,48(sp)
    b158:	03913423          	sd	s9,40(sp)
    b15c:	03a13023          	sd	s10,32(sp)
    b160:	01b13c23          	sd	s11,24(sp)
    b164:	00058913          	mv	s2,a1
    b168:	00060993          	mv	s3,a2
    b16c:	aa1f50ef          	jal	ra,0xc0c
    b170:	00050413          	mv	s0,a0
    b174:	1a050863          	beqz	a0,0xb324
    b178:	00048513          	mv	a0,s1
    b17c:	a91fc0ef          	jal	ra,0x7c0c
    b180:	00050a13          	mv	s4,a0
    b184:	0a050463          	beqz	a0,0xb22c
    b188:	00004b17          	auipc	s6,0x4
    b18c:	e40b0b13          	addi	s6,s6,-448 # 0xefc8
    b190:	00004b97          	auipc	s7,0x4
    b194:	c30b8b93          	addi	s7,s7,-976 # 0xedc0
    b198:	00100c13          	li	s8,1
    b19c:	00200c93          	li	s9,2
    b1a0:	00004d17          	auipc	s10,0x4
    b1a4:	540d0d13          	addi	s10,s10,1344 # 0xf6e0
    b1a8:	00004d97          	auipc	s11,0x4
    b1ac:	520d8d93          	addi	s11,s11,1312 # 0xf6c8
    b1b0:	000a0513          	mv	a0,s4
    b1b4:	b1dfc0ef          	jal	ra,0x7cd0
    b1b8:	00050a93          	mv	s5,a0
    b1bc:	0e050663          	beqz	a0,0xb2a8
    b1c0:	00450693          	addi	a3,a0,4
    b1c4:	00068593          	mv	a1,a3
    b1c8:	00004517          	auipc	a0,0x4
    b1cc:	f8050513          	addi	a0,a0,-128 # 0xf148
    b1d0:	00d13423          	sd	a3,8(sp)
    b1d4:	c39f80ef          	jal	ra,0x3e0c
    b1d8:	00813683          	ld	a3,8(sp)
    b1dc:	fc050ae3          	beqz	a0,0xb1b0
    b1e0:	00068593          	mv	a1,a3
    b1e4:	000b0513          	mv	a0,s6
    b1e8:	c25f80ef          	jal	ra,0x3e0c
    b1ec:	00813683          	ld	a3,8(sp)
    b1f0:	fc0500e3          	beqz	a0,0xb1b0
    b1f4:	00048613          	mv	a2,s1
    b1f8:	000b8593          	mv	a1,s7
    b1fc:	00040513          	mv	a0,s0
    b200:	a80f90ef          	jal	ra,0x4480
    b204:	000ac783          	lbu	a5,0(s5)
    b208:	09879463          	bne	a5,s8,0xb290
    b20c:	00040513          	mv	a0,s0
    b210:	9a5fc0ef          	jal	ra,0x7bb4
    b214:	06050663          	beqz	a0,0xb280
    b218:	f8091ce3          	bnez	s2,0xb1b0
    b21c:	00040593          	mv	a1,s0
    b220:	000d8513          	mv	a0,s11
    b224:	b14f90ef          	jal	ra,0x4538
    b228:	f89ff06f          	j	0xb1b0
    b22c:	00091a63          	bnez	s2,0xb240
    b230:	00048593          	mv	a1,s1
    b234:	00004517          	auipc	a0,0x4
    b238:	49450513          	addi	a0,a0,1172 # 0xf6c8
    b23c:	afcf90ef          	jal	ra,0x4538
    b240:	00040513          	mv	a0,s0
    b244:	07013403          	ld	s0,112(sp)
    b248:	07813083          	ld	ra,120(sp)
    b24c:	06813483          	ld	s1,104(sp)
    b250:	06013903          	ld	s2,96(sp)
    b254:	05813983          	ld	s3,88(sp)
    b258:	05013a03          	ld	s4,80(sp)
    b25c:	04813a83          	ld	s5,72(sp)
    b260:	04013b03          	ld	s6,64(sp)
    b264:	03813b83          	ld	s7,56(sp)
    b268:	03013c03          	ld	s8,48(sp)
    b26c:	02813c83          	ld	s9,40(sp)
    b270:	02013d03          	ld	s10,32(sp)
    b274:	01813d83          	ld	s11,24(sp)
    b278:	08010113          	addi	sp,sp,128
    b27c:	ce1f506f          	j	0xf5c
    b280:	f20988e3          	beqz	s3,0xb1b0
    b284:	00040593          	mv	a1,s0
    b288:	000d0513          	mv	a0,s10
    b28c:	f99ff06f          	j	0xb224
    b290:	f39790e3          	bne	a5,s9,0xb1b0
    b294:	00098613          	mv	a2,s3
    b298:	00090593          	mv	a1,s2
    b29c:	00040513          	mv	a0,s0
    b2a0:	e81ff0ef          	jal	ra,0xb120
    b2a4:	f0dff06f          	j	0xb1b0
    b2a8:	000a0513          	mv	a0,s4
    b2ac:	b55fc0ef          	jal	ra,0x7e00
    b2b0:	00040513          	mv	a0,s0
    b2b4:	ca9f50ef          	jal	ra,0xf5c
    b2b8:	00048513          	mv	a0,s1
    b2bc:	8f9fc0ef          	jal	ra,0x7bb4
    b2c0:	04050863          	beqz	a0,0xb310
    b2c4:	06091063          	bnez	s2,0xb324
    b2c8:	00048593          	mv	a1,s1
    b2cc:	00004517          	auipc	a0,0x4
    b2d0:	3fc50513          	addi	a0,a0,1020 # 0xf6c8
    b2d4:	07013403          	ld	s0,112(sp)
    b2d8:	07813083          	ld	ra,120(sp)
    b2dc:	06813483          	ld	s1,104(sp)
    b2e0:	06013903          	ld	s2,96(sp)
    b2e4:	05813983          	ld	s3,88(sp)
    b2e8:	05013a03          	ld	s4,80(sp)
    b2ec:	04813a83          	ld	s5,72(sp)
    b2f0:	04013b03          	ld	s6,64(sp)
    b2f4:	03813b83          	ld	s7,56(sp)
    b2f8:	03013c03          	ld	s8,48(sp)
    b2fc:	02813c83          	ld	s9,40(sp)
    b300:	02013d03          	ld	s10,32(sp)
    b304:	01813d83          	ld	s11,24(sp)
    b308:	08010113          	addi	sp,sp,128
    b30c:	a2cf906f          	j	0x4538
    b310:	00098a63          	beqz	s3,0xb324
    b314:	00048593          	mv	a1,s1
    b318:	00004517          	auipc	a0,0x4
    b31c:	3d850513          	addi	a0,a0,984 # 0xf6f0
    b320:	fb5ff06f          	j	0xb2d4
    b324:	07813083          	ld	ra,120(sp)
    b328:	07013403          	ld	s0,112(sp)
    b32c:	06813483          	ld	s1,104(sp)
    b330:	06013903          	ld	s2,96(sp)
    b334:	05813983          	ld	s3,88(sp)
    b338:	05013a03          	ld	s4,80(sp)
    b33c:	04813a83          	ld	s5,72(sp)
    b340:	04013b03          	ld	s6,64(sp)
    b344:	03813b83          	ld	s7,56(sp)
    b348:	03013c03          	ld	s8,48(sp)
    b34c:	02813c83          	ld	s9,40(sp)
    b350:	02013d03          	ld	s10,32(sp)
    b354:	01813d83          	ld	s11,24(sp)
    b358:	08010113          	addi	sp,sp,128
    b35c:	00008067          	ret
    b360:	00008067          	ret
    b364:	f1010113          	addi	sp,sp,-240
    b368:	0e113423          	sd	ra,232(sp)
    b36c:	0e813023          	sd	s0,224(sp)
    b370:	0c913c23          	sd	s1,216(sp)
    b374:	0d213823          	sd	s2,208(sp)
    b378:	0d313423          	sd	s3,200(sp)
    b37c:	0d413023          	sd	s4,192(sp)
    b380:	0b513c23          	sd	s5,184(sp)
    b384:	0b613823          	sd	s6,176(sp)
    b388:	0b713423          	sd	s7,168(sp)
    b38c:	0b813023          	sd	s8,160(sp)
    b390:	09913c23          	sd	s9,152(sp)
    b394:	09a13823          	sd	s10,144(sp)
    b398:	09b13423          	sd	s11,136(sp)
    b39c:	00100793          	li	a5,1
    b3a0:	04f51e63          	bne	a0,a5,0xb3fc
    b3a4:	00004517          	auipc	a0,0x4
    b3a8:	36450513          	addi	a0,a0,868 # 0xf708
    b3ac:	98cf90ef          	jal	ra,0x4538
    b3b0:	00004517          	auipc	a0,0x4
    b3b4:	37850513          	addi	a0,a0,888 # 0xf728
    b3b8:	980f90ef          	jal	ra,0x4538
    b3bc:	0e813083          	ld	ra,232(sp)
    b3c0:	0e013403          	ld	s0,224(sp)
    b3c4:	0d813483          	ld	s1,216(sp)
    b3c8:	0d013903          	ld	s2,208(sp)
    b3cc:	0c813983          	ld	s3,200(sp)
    b3d0:	0c013a03          	ld	s4,192(sp)
    b3d4:	0b813a83          	ld	s5,184(sp)
    b3d8:	0b013b03          	ld	s6,176(sp)
    b3dc:	0a813b83          	ld	s7,168(sp)
    b3e0:	0a013c03          	ld	s8,160(sp)
    b3e4:	09813c83          	ld	s9,152(sp)
    b3e8:	09013d03          	ld	s10,144(sp)
    b3ec:	08813d83          	ld	s11,136(sp)
    b3f0:	00000513          	li	a0,0
    b3f4:	0f010113          	addi	sp,sp,240
    b3f8:	00008067          	ret
    b3fc:	0085b783          	ld	a5,8(a1)
    b400:	02d00713          	li	a4,45
    b404:	00050493          	mv	s1,a0
    b408:	0007c683          	lbu	a3,0(a5)
    b40c:	00058413          	mv	s0,a1
    b410:	00000993          	li	s3,0
    b414:	00000a93          	li	s5,0
    b418:	00000913          	li	s2,0
    b41c:	02e69263          	bne	a3,a4,0xb440
    b420:	07200713          	li	a4,114
    b424:	07600693          	li	a3,118
    b428:	02d00613          	li	a2,45
    b42c:	06600513          	li	a0,102
    b430:	0007c583          	lbu	a1,0(a5)
    b434:	06059c63          	bnez	a1,0xb4ac
    b438:	fff4849b          	addiw	s1,s1,-1
    b43c:	00840413          	addi	s0,s0,8
    b440:	00840413          	addi	s0,s0,8
    b444:	00100a13          	li	s4,1
    b448:	00004b17          	auipc	s6,0x4
    b44c:	340b0b13          	addi	s6,s6,832 # 0xf788
    b450:	00004bb7          	lui	s7,0x4
    b454:	00008c37          	lui	s8,0x8
    b458:	00004c97          	auipc	s9,0x4
    b45c:	288c8c93          	addi	s9,s9,648 # 0xf6e0
    b460:	00004d17          	auipc	s10,0x4
    b464:	268d0d13          	addi	s10,s10,616 # 0xf6c8
    b468:	00004d97          	auipc	s11,0x4
    b46c:	2f8d8d93          	addi	s11,s11,760 # 0xf760
    b470:	f49a56e3          	bge	s4,s1,0xb3bc
    b474:	00043503          	ld	a0,0(s0)
    b478:	00010593          	mv	a1,sp
    b47c:	f64fc0ef          	jal	ra,0x7be0
    b480:	0a051e63          	bnez	a0,0xb53c
    b484:	01012783          	lw	a5,16(sp)
    b488:	0177f733          	and	a4,a5,s7
    b48c:	0007071b          	sext.w	a4,a4
    b490:	06070a63          	beqz	a4,0xb504
    b494:	00043503          	ld	a0,0(s0)
    b498:	040a9a63          	bnez	s5,0xb4ec
    b49c:	00050593          	mv	a1,a0
    b4a0:	000d8513          	mv	a0,s11
    b4a4:	894f90ef          	jal	ra,0x4538
    b4a8:	0500006f          	j	0xb4f8
    b4ac:	02e58663          	beq	a1,a4,0xb4d8
    b4b0:	00b76e63          	bltu	a4,a1,0xb4cc
    b4b4:	02c58463          	beq	a1,a2,0xb4dc
    b4b8:	02a58663          	beq	a1,a0,0xb4e4
    b4bc:	00004517          	auipc	a0,0x4
    b4c0:	28c50513          	addi	a0,a0,652 # 0xf748
    b4c4:	874f90ef          	jal	ra,0x4538
    b4c8:	ef5ff06f          	j	0xb3bc
    b4cc:	fed598e3          	bne	a1,a3,0xb4bc
    b4d0:	00100993          	li	s3,1
    b4d4:	0080006f          	j	0xb4dc
    b4d8:	00100a93          	li	s5,1
    b4dc:	00178793          	addi	a5,a5,1
    b4e0:	f51ff06f          	j	0xb430
    b4e4:	00100913          	li	s2,1
    b4e8:	ff5ff06f          	j	0xb4dc
    b4ec:	00098613          	mv	a2,s3
    b4f0:	00090593          	mv	a1,s2
    b4f4:	c2dff0ef          	jal	ra,0xb120
    b4f8:	001a0a1b          	addiw	s4,s4,1
    b4fc:	00840413          	addi	s0,s0,8
    b500:	f71ff06f          	j	0xb470
    b504:	0187f7b3          	and	a5,a5,s8
    b508:	0007879b          	sext.w	a5,a5
    b50c:	fe0786e3          	beqz	a5,0xb4f8
    b510:	00043503          	ld	a0,0(s0)
    b514:	ea0fc0ef          	jal	ra,0x7bb4
    b518:	00050a63          	beqz	a0,0xb52c
    b51c:	fc091ee3          	bnez	s2,0xb4f8
    b520:	00043583          	ld	a1,0(s0)
    b524:	000d0513          	mv	a0,s10
    b528:	f7dff06f          	j	0xb4a4
    b52c:	fc0986e3          	beqz	s3,0xb4f8
    b530:	00043583          	ld	a1,0(s0)
    b534:	000c8513          	mv	a0,s9
    b538:	f6dff06f          	j	0xb4a4
    b53c:	fa091ee3          	bnez	s2,0xb4f8
    b540:	00043583          	ld	a1,0(s0)
    b544:	000b0513          	mv	a0,s6
    b548:	f5dff06f          	j	0xb4a4
    b54c:	ff010113          	addi	sp,sp,-16
    b550:	00813023          	sd	s0,0(sp)
    b554:	00113423          	sd	ra,8(sp)
    b558:	00200793          	li	a5,2
    b55c:	00058413          	mv	s0,a1
    b560:	02f51663          	bne	a0,a5,0xb58c
    b564:	0085b583          	ld	a1,8(a1)
    b568:	00004517          	auipc	a0,0x4
    b56c:	25050513          	addi	a0,a0,592 # 0xf7b8
    b570:	c79fd0ef          	jal	ra,0x91e8
    b574:	00050593          	mv	a1,a0
    b578:	04050463          	beqz	a0,0xb5c0
    b57c:	00004517          	auipc	a0,0x4
    b580:	26c50513          	addi	a0,a0,620 # 0xf7e8
    b584:	fb5f80ef          	jal	ra,0x4538
    b588:	0380006f          	j	0xb5c0
    b58c:	00400793          	li	a5,4
    b590:	02f51263          	bne	a0,a5,0xb5b4
    b594:	00843503          	ld	a0,8(s0)
    b598:	00004597          	auipc	a1,0x4
    b59c:	22858593          	addi	a1,a1,552 # 0xf7c0
    b5a0:	818f50ef          	jal	ra,0x5b8
    b5a4:	00051e63          	bnez	a0,0xb5c0
    b5a8:	01843583          	ld	a1,24(s0)
    b5ac:	01043503          	ld	a0,16(s0)
    b5b0:	fc1ff06f          	j	0xb570
    b5b4:	00004517          	auipc	a0,0x4
    b5b8:	21450513          	addi	a0,a0,532 # 0xf7c8
    b5bc:	f7df80ef          	jal	ra,0x4538
    b5c0:	00813083          	ld	ra,8(sp)
    b5c4:	00013403          	ld	s0,0(sp)
    b5c8:	00000513          	li	a0,0
    b5cc:	01010113          	addi	sp,sp,16
    b5d0:	00008067          	ret
    b5d4:	ff010113          	addi	sp,sp,-16
    b5d8:	00813023          	sd	s0,0(sp)
    b5dc:	00113423          	sd	ra,8(sp)
    b5e0:	00200793          	li	a5,2
    b5e4:	0085b403          	ld	s0,8(a1)
    b5e8:	02f50263          	beq	a0,a5,0xb60c
    b5ec:	00004517          	auipc	a0,0x4
    b5f0:	21450513          	addi	a0,a0,532 # 0xf800
    b5f4:	f45f80ef          	jal	ra,0x4538
    b5f8:	fff00513          	li	a0,-1
    b5fc:	00813083          	ld	ra,8(sp)
    b600:	00013403          	ld	s0,0(sp)
    b604:	01010113          	addi	sp,sp,16
    b608:	00008067          	ret
    b60c:	00004517          	auipc	a0,0x4
    b610:	21450513          	addi	a0,a0,532 # 0xf820
    b614:	00040593          	mv	a1,s0
    b618:	f21f80ef          	jal	ra,0x4538
    b61c:	00040513          	mv	a0,s0
    b620:	ad9fd0ef          	jal	ra,0x90f8
    b624:	00055863          	bgez	a0,0xb634
    b628:	00004517          	auipc	a0,0x4
    b62c:	20850513          	addi	a0,a0,520 # 0xf830
    b630:	fc5ff06f          	j	0xb5f4
    b634:	00004517          	auipc	a0,0x4
    b638:	20c50513          	addi	a0,a0,524 # 0xf840
    b63c:	efdf80ef          	jal	ra,0x4538
    b640:	00000513          	li	a0,0
    b644:	fb9ff06f          	j	0xb5fc
    b648:	fc010113          	addi	sp,sp,-64
    b64c:	02113c23          	sd	ra,56(sp)
    b650:	02813823          	sd	s0,48(sp)
    b654:	02913423          	sd	s1,40(sp)
    b658:	03213023          	sd	s2,32(sp)
    b65c:	01313c23          	sd	s3,24(sp)
    b660:	01413823          	sd	s4,16(sp)
    b664:	000107a3          	sb	zero,15(sp)
    b668:	00100713          	li	a4,1
    b66c:	02a74a63          	blt	a4,a0,0xb6a0
    b670:	00004517          	auipc	a0,0x4
    b674:	1e050513          	addi	a0,a0,480 # 0xf850
    b678:	ec1f80ef          	jal	ra,0x4538
    b67c:	fff00513          	li	a0,-1
    b680:	03813083          	ld	ra,56(sp)
    b684:	03013403          	ld	s0,48(sp)
    b688:	02813483          	ld	s1,40(sp)
    b68c:	02013903          	ld	s2,32(sp)
    b690:	01813983          	ld	s3,24(sp)
    b694:	01013a03          	ld	s4,16(sp)
    b698:	04010113          	addi	sp,sp,64
    b69c:	00008067          	ret
    b6a0:	00050793          	mv	a5,a0
    b6a4:	00200713          	li	a4,2
    b6a8:	0085b503          	ld	a0,8(a1)
    b6ac:	00058413          	mv	s0,a1
    b6b0:	06e78663          	beq	a5,a4,0xb71c
    b6b4:	00004597          	auipc	a1,0x4
    b6b8:	1c458593          	addi	a1,a1,452 # 0xf878
    b6bc:	f50f80ef          	jal	ra,0x3e0c
    b6c0:	fa0518e3          	bnez	a0,0xb670
    b6c4:	01043503          	ld	a0,16(s0)
    b6c8:	02b00793          	li	a5,43
    b6cc:	00054703          	lbu	a4,0(a0)
    b6d0:	02f70c63          	beq	a4,a5,0xb708
    b6d4:	f29f40ef          	jal	ra,0x5fc
    b6d8:	0005091b          	sext.w	s2,a0
    b6dc:	00000993          	li	s3,0
    b6e0:	01843503          	ld	a0,24(s0)
    b6e4:	00000593          	li	a1,0
    b6e8:	9f0fc0ef          	jal	ra,0x78d8
    b6ec:	00050413          	mv	s0,a0
    b6f0:	00000493          	li	s1,0
    b6f4:	00a00a13          	li	s4,10
    b6f8:	02055e63          	bgez	a0,0xb734
    b6fc:	00004517          	auipc	a0,0x4
    b700:	18450513          	addi	a0,a0,388 # 0xf880
    b704:	f75ff06f          	j	0xb678
    b708:	00150513          	addi	a0,a0,1
    b70c:	ef1f40ef          	jal	ra,0x5fc
    b710:	0005099b          	sext.w	s3,a0
    b714:	00000913          	li	s2,0
    b718:	fc9ff06f          	j	0xb6e0
    b71c:	00000993          	li	s3,0
    b720:	00a00913          	li	s2,10
    b724:	fc1ff06f          	j	0xb6e4
    b728:	00f14783          	lbu	a5,15(sp)
    b72c:	01479463          	bne	a5,s4,0xb734
    b730:	0014849b          	addiw	s1,s1,1
    b734:	00100613          	li	a2,1
    b738:	00f10593          	addi	a1,sp,15
    b73c:	00040513          	mv	a0,s0
    b740:	aacfc0ef          	jal	ra,0x79ec
    b744:	fea042e3          	bgtz	a0,0xb728
    b748:	00048593          	mv	a1,s1
    b74c:	00004517          	auipc	a0,0x4
    b750:	14c50513          	addi	a0,a0,332 # 0xf898
    b754:	de5f80ef          	jal	ra,0x4538
    b758:	00098663          	beqz	s3,0xb764
    b75c:	0099f663          	bgeu	s3,s1,0xb768
    b760:	4134893b          	subw	s2,s1,s3
    b764:	0124fe63          	bgeu	s1,s2,0xb780
    b768:	00004517          	auipc	a0,0x4
    b76c:	15050513          	addi	a0,a0,336 # 0xf8b8
    b770:	dc9f80ef          	jal	ra,0x4538
    b774:	00040513          	mv	a0,s0
    b778:	a0cfc0ef          	jal	ra,0x7984
    b77c:	f01ff06f          	j	0xb67c
    b780:	00090593          	mv	a1,s2
    b784:	00004517          	auipc	a0,0x4
    b788:	17450513          	addi	a0,a0,372 # 0xf8f8
    b78c:	dadf80ef          	jal	ra,0x4538
    b790:	00000613          	li	a2,0
    b794:	00000593          	li	a1,0
    b798:	00040513          	mv	a0,s0
    b79c:	412484bb          	subw	s1,s1,s2
    b7a0:	b34fc0ef          	jal	ra,0x7ad4
    b7a4:	00000913          	li	s2,0
    b7a8:	00a00993          	li	s3,10
    b7ac:	00002a17          	auipc	s4,0x2
    b7b0:	a44a0a13          	addi	s4,s4,-1468 # 0xd1f0
    b7b4:	00100613          	li	a2,1
    b7b8:	00f10593          	addi	a1,sp,15
    b7bc:	00040513          	mv	a0,s0
    b7c0:	a2cfc0ef          	jal	ra,0x79ec
    b7c4:	02a04063          	bgtz	a0,0xb7e4
    b7c8:	00004517          	auipc	a0,0x4
    b7cc:	67050513          	addi	a0,a0,1648 # 0xfe38
    b7d0:	d69f80ef          	jal	ra,0x4538
    b7d4:	00040513          	mv	a0,s0
    b7d8:	9acfc0ef          	jal	ra,0x7984
    b7dc:	00000513          	li	a0,0
    b7e0:	ea1ff06f          	j	0xb680
    b7e4:	00f14583          	lbu	a1,15(sp)
    b7e8:	01359463          	bne	a1,s3,0xb7f0
    b7ec:	0019091b          	addiw	s2,s2,1
    b7f0:	fd24f2e3          	bgeu	s1,s2,0xb7b4
    b7f4:	000a0513          	mv	a0,s4
    b7f8:	d41f80ef          	jal	ra,0x4538
    b7fc:	fb9ff06f          	j	0xb7b4
    b800:	ff010113          	addi	sp,sp,-16
    b804:	00113423          	sd	ra,8(sp)
    b808:	00300713          	li	a4,3
    b80c:	02e50663          	beq	a0,a4,0xb838
    b810:	00004517          	auipc	a0,0x4
    b814:	10850513          	addi	a0,a0,264 # 0xf918
    b818:	d21f80ef          	jal	ra,0x4538
    b81c:	00004517          	auipc	a0,0x4
    b820:	11450513          	addi	a0,a0,276 # 0xf930
    b824:	d15f80ef          	jal	ra,0x4538
    b828:	00813083          	ld	ra,8(sp)
    b82c:	00000513          	li	a0,0
    b830:	01010113          	addi	sp,sp,16
    b834:	00008067          	ret
    b838:	00058793          	mv	a5,a1
    b83c:	0087b503          	ld	a0,8(a5)
    b840:	0105b583          	ld	a1,16(a1)
    b844:	9a8fd0ef          	jal	ra,0x89ec
    b848:	fe1ff06f          	j	0xb828
    b84c:	fe010113          	addi	sp,sp,-32
    b850:	00113c23          	sd	ra,24(sp)
    b854:	00813823          	sd	s0,16(sp)
    b858:	00913423          	sd	s1,8(sp)
    b85c:	01213023          	sd	s2,0(sp)
    b860:	00300793          	li	a5,3
    b864:	02f50e63          	beq	a0,a5,0xb8a0
    b868:	00004517          	auipc	a0,0x4
    b86c:	0e050513          	addi	a0,a0,224 # 0xf948
    b870:	cc9f80ef          	jal	ra,0x4538
    b874:	00004517          	auipc	a0,0x4
    b878:	0ec50513          	addi	a0,a0,236 # 0xf960
    b87c:	cbdf80ef          	jal	ra,0x4538
    b880:	00000913          	li	s2,0
    b884:	01813083          	ld	ra,24(sp)
    b888:	01013403          	ld	s0,16(sp)
    b88c:	00813483          	ld	s1,8(sp)
    b890:	00090513          	mv	a0,s2
    b894:	00013903          	ld	s2,0(sp)
    b898:	02010113          	addi	sp,sp,32
    b89c:	00008067          	ret
    b8a0:	0105b603          	ld	a2,16(a1)
    b8a4:	00058413          	mv	s0,a1
    b8a8:	0085b583          	ld	a1,8(a1)
    b8ac:	00004517          	auipc	a0,0x4
    b8b0:	0ec50513          	addi	a0,a0,236 # 0xf998
    b8b4:	c85f80ef          	jal	ra,0x4538
    b8b8:	01043503          	ld	a0,16(s0)
    b8bc:	00000613          	li	a2,0
    b8c0:	000105b7          	lui	a1,0x10
    b8c4:	814fc0ef          	jal	ra,0x78d8
    b8c8:	08054c63          	bltz	a0,0xb960
    b8cc:	8b8fc0ef          	jal	ra,0x7984
    b8d0:	10000513          	li	a0,256
    b8d4:	b38f50ef          	jal	ra,0xc0c
    b8d8:	00050493          	mv	s1,a0
    b8dc:	00051c63          	bnez	a0,0xb8f4
    b8e0:	00003517          	auipc	a0,0x3
    b8e4:	5c050513          	addi	a0,a0,1472 # 0xeea0
    b8e8:	c51f80ef          	jal	ra,0x4538
    b8ec:	ffb00913          	li	s2,-5
    b8f0:	f95ff06f          	j	0xb884
    b8f4:	00843903          	ld	s2,8(s0)
    b8f8:	00090513          	mv	a0,s2
    b8fc:	d34f80ef          	jal	ra,0x3e30
    b900:	00843783          	ld	a5,8(s0)
    b904:	00a90733          	add	a4,s2,a0
    b908:	02f00693          	li	a3,47
    b90c:	00f70663          	beq	a4,a5,0xb918
    b910:	00074603          	lbu	a2,0(a4)
    b914:	04d61263          	bne	a2,a3,0xb958
    b918:	01043683          	ld	a3,16(s0)
    b91c:	00003617          	auipc	a2,0x3
    b920:	4a460613          	addi	a2,a2,1188 # 0xedc0
    b924:	0ff00593          	li	a1,255
    b928:	00048513          	mv	a0,s1
    b92c:	b11f80ef          	jal	ra,0x443c
    b930:	00843503          	ld	a0,8(s0)
    b934:	00048593          	mv	a1,s1
    b938:	00000913          	li	s2,0
    b93c:	a4cfc0ef          	jal	ra,0x7b88
    b940:	f40482e3          	beqz	s1,0xb884
    b944:	01043783          	ld	a5,16(s0)
    b948:	f2f48ee3          	beq	s1,a5,0xb884
    b94c:	00048513          	mv	a0,s1
    b950:	e0cf50ef          	jal	ra,0xf5c
    b954:	f31ff06f          	j	0xb884
    b958:	fff70713          	addi	a4,a4,-1
    b95c:	fb1ff06f          	j	0xb90c
    b960:	01043503          	ld	a0,16(s0)
    b964:	00000613          	li	a2,0
    b968:	00000593          	li	a1,0
    b96c:	f6dfb0ef          	jal	ra,0x78d8
    b970:	00054863          	bltz	a0,0xb980
    b974:	810fc0ef          	jal	ra,0x7984
    b978:	01043503          	ld	a0,16(s0)
    b97c:	a38fc0ef          	jal	ra,0x7bb4
    b980:	01043483          	ld	s1,16(s0)
    b984:	fadff06f          	j	0xb930
    b988:	fe010113          	addi	sp,sp,-32
    b98c:	00113c23          	sd	ra,24(sp)
    b990:	00813823          	sd	s0,16(sp)
    b994:	00913423          	sd	s1,8(sp)
    b998:	01213023          	sd	s2,0(sp)
    b99c:	00100793          	li	a5,1
    b9a0:	04f51c63          	bne	a0,a5,0xb9f8
    b9a4:	00004517          	auipc	a0,0x4
    b9a8:	00450513          	addi	a0,a0,4 # 0xf9a8
    b9ac:	b8df80ef          	jal	ra,0x4538
    b9b0:	00004517          	auipc	a0,0x4
    b9b4:	01050513          	addi	a0,a0,16 # 0xf9c0
    b9b8:	b81f80ef          	jal	ra,0x4538
    b9bc:	01813083          	ld	ra,24(sp)
    b9c0:	01013403          	ld	s0,16(sp)
    b9c4:	00813483          	ld	s1,8(sp)
    b9c8:	00013903          	ld	s2,0(sp)
    b9cc:	00000513          	li	a0,0
    b9d0:	02010113          	addi	sp,sp,32
    b9d4:	00008067          	ret
    b9d8:	00349793          	slli	a5,s1,0x3
    b9dc:	00f907b3          	add	a5,s2,a5
    b9e0:	0007b503          	ld	a0,0(a5)
    b9e4:	fb0fc0ef          	jal	ra,0x8194
    b9e8:	00148493          	addi	s1,s1,1
    b9ec:	0004879b          	sext.w	a5,s1
    b9f0:	fe87c4e3          	blt	a5,s0,0xb9d8
    b9f4:	fc9ff06f          	j	0xb9bc
    b9f8:	00050413          	mv	s0,a0
    b9fc:	00058913          	mv	s2,a1
    ba00:	00000493          	li	s1,0
    ba04:	fe5ff06f          	j	0xb9e8
    ba08:	ff010113          	addi	sp,sp,-16
    ba0c:	00113423          	sd	ra,8(sp)
    ba10:	00813023          	sd	s0,0(sp)
    ba14:	00100793          	li	a5,1
    ba18:	02f51663          	bne	a0,a5,0xba44
    ba1c:	00005597          	auipc	a1,0x5
    ba20:	6ac58593          	addi	a1,a1,1708 # 0x110c8
    ba24:	00004517          	auipc	a0,0x4
    ba28:	adc50513          	addi	a0,a0,-1316 # 0xf500
    ba2c:	b0df80ef          	jal	ra,0x4538
    ba30:	00813083          	ld	ra,8(sp)
    ba34:	00013403          	ld	s0,0(sp)
    ba38:	00000513          	li	a0,0
    ba3c:	01010113          	addi	sp,sp,16
    ba40:	00008067          	ret
    ba44:	00200793          	li	a5,2
    ba48:	fef514e3          	bne	a0,a5,0xba30
    ba4c:	0085b503          	ld	a0,8(a1)
    ba50:	00058413          	mv	s0,a1
    ba54:	c28fc0ef          	jal	ra,0x7e7c
    ba58:	fc050ce3          	beqz	a0,0xba30
    ba5c:	00843583          	ld	a1,8(s0)
    ba60:	00004517          	auipc	a0,0x4
    ba64:	f7850513          	addi	a0,a0,-136 # 0xf9d8
    ba68:	fc5ff06f          	j	0xba2c
    ba6c:	ff010113          	addi	sp,sp,-16
    ba70:	00113423          	sd	ra,8(sp)
    ba74:	00100713          	li	a4,1
    ba78:	02e51663          	bne	a0,a4,0xbaa4
    ba7c:	00004517          	auipc	a0,0x4
    ba80:	f7450513          	addi	a0,a0,-140 # 0xf9f0
    ba84:	ab5f80ef          	jal	ra,0x4538
    ba88:	00004517          	auipc	a0,0x4
    ba8c:	f9050513          	addi	a0,a0,-112 # 0xfa18
    ba90:	aa9f80ef          	jal	ra,0x4538
    ba94:	00813083          	ld	ra,8(sp)
    ba98:	00000513          	li	a0,0
    ba9c:	01010113          	addi	sp,sp,16
    baa0:	00008067          	ret
    baa4:	00058793          	mv	a5,a1
    baa8:	0087b503          	ld	a0,8(a5)
    baac:	00000593          	li	a1,0
    bab0:	d89fb0ef          	jal	ra,0x7838
    bab4:	fe1ff06f          	j	0xba94
    bab8:	fd010113          	addi	sp,sp,-48
    babc:	02113423          	sd	ra,40(sp)
    bac0:	02813023          	sd	s0,32(sp)
    bac4:	00913c23          	sd	s1,24(sp)
    bac8:	01213823          	sd	s2,16(sp)
    bacc:	00100793          	li	a5,1
    bad0:	06f51c63          	bne	a0,a5,0xbb48
    bad4:	00004517          	auipc	a0,0x4
    bad8:	f7c50513          	addi	a0,a0,-132 # 0xfa50
    badc:	a5df80ef          	jal	ra,0x4538
    bae0:	00004517          	auipc	a0,0x4
    bae4:	f9050513          	addi	a0,a0,-112 # 0xfa70
    bae8:	a51f80ef          	jal	ra,0x4538
    baec:	00016417          	auipc	s0,0x16
    baf0:	70440413          	addi	s0,s0,1796 # 0x221f0
    baf4:	00004917          	auipc	s2,0x4
    baf8:	f9c90913          	addi	s2,s2,-100 # 0xfa90
    bafc:	00016497          	auipc	s1,0x16
    bb00:	73448493          	addi	s1,s1,1844 # 0x22230
    bb04:	00843683          	ld	a3,8(s0)
    bb08:	00068c63          	beqz	a3,0xbb20
    bb0c:	01043783          	ld	a5,16(s0)
    bb10:	00043603          	ld	a2,0(s0)
    bb14:	00090513          	mv	a0,s2
    bb18:	0007b583          	ld	a1,0(a5)
    bb1c:	a1df80ef          	jal	ra,0x4538
    bb20:	02040413          	addi	s0,s0,32
    bb24:	fe9410e3          	bne	s0,s1,0xbb04
    bb28:	00000413          	li	s0,0
    bb2c:	02813083          	ld	ra,40(sp)
    bb30:	00040513          	mv	a0,s0
    bb34:	02013403          	ld	s0,32(sp)
    bb38:	01813483          	ld	s1,24(sp)
    bb3c:	01013903          	ld	s2,16(sp)
    bb40:	03010113          	addi	sp,sp,48
    bb44:	00008067          	ret
    bb48:	00400793          	li	a5,4
    bb4c:	06f51663          	bne	a0,a5,0xbbb8
    bb50:	0085b403          	ld	s0,8(a1)
    bb54:	0105b483          	ld	s1,16(a1)
    bb58:	0185b603          	ld	a2,24(a1)
    bb5c:	00004517          	auipc	a0,0x4
    bb60:	f4c50513          	addi	a0,a0,-180 # 0xfaa8
    bb64:	00040593          	mv	a1,s0
    bb68:	00048693          	mv	a3,s1
    bb6c:	00c13423          	sd	a2,8(sp)
    bb70:	9c9f80ef          	jal	ra,0x4538
    bb74:	00813603          	ld	a2,8(sp)
    bb78:	00040513          	mv	a0,s0
    bb7c:	00000713          	li	a4,0
    bb80:	00000693          	li	a3,0
    bb84:	00048593          	mv	a1,s1
    bb88:	af0fd0ef          	jal	ra,0x8e78
    bb8c:	00050413          	mv	s0,a0
    bb90:	00051a63          	bnez	a0,0xbba4
    bb94:	00004517          	auipc	a0,0x4
    bb98:	cac50513          	addi	a0,a0,-852 # 0xf840
    bb9c:	99df80ef          	jal	ra,0x4538
    bba0:	f8dff06f          	j	0xbb2c
    bba4:	00004517          	auipc	a0,0x4
    bba8:	c8c50513          	addi	a0,a0,-884 # 0xf830
    bbac:	98df80ef          	jal	ra,0x4538
    bbb0:	fff00413          	li	s0,-1
    bbb4:	f79ff06f          	j	0xbb2c
    bbb8:	00004517          	auipc	a0,0x4
    bbbc:	f1850513          	addi	a0,a0,-232 # 0xfad0
    bbc0:	fedff06f          	j	0xbbac
    bbc4:	ff010113          	addi	sp,sp,-16
    bbc8:	00113423          	sd	ra,8(sp)
    bbcc:	00813023          	sd	s0,0(sp)
    bbd0:	00200793          	li	a5,2
    bbd4:	00f50a63          	beq	a0,a5,0xbbe8
    bbd8:	00003517          	auipc	a0,0x3
    bbdc:	29050513          	addi	a0,a0,656 # 0xee68
    bbe0:	fa8fd0ef          	jal	ra,0x9388
    bbe4:	03c0006f          	j	0xbc20
    bbe8:	0085b403          	ld	s0,8(a1)
    bbec:	00004597          	auipc	a1,0x4
    bbf0:	f1458593          	addi	a1,a1,-236 # 0xfb00
    bbf4:	00040513          	mv	a0,s0
    bbf8:	9c1f40ef          	jal	ra,0x5b8
    bbfc:	00050c63          	beqz	a0,0xbc14
    bc00:	00004597          	auipc	a1,0x4
    bc04:	f0858593          	addi	a1,a1,-248 # 0xfb08
    bc08:	00040513          	mv	a0,s0
    bc0c:	9adf40ef          	jal	ra,0x5b8
    bc10:	02051263          	bnez	a0,0xbc34
    bc14:	00004517          	auipc	a0,0x4
    bc18:	efc50513          	addi	a0,a0,-260 # 0xfb10
    bc1c:	91df80ef          	jal	ra,0x4538
    bc20:	00813083          	ld	ra,8(sp)
    bc24:	00013403          	ld	s0,0(sp)
    bc28:	00000513          	li	a0,0
    bc2c:	01010113          	addi	sp,sp,16
    bc30:	00008067          	ret
    bc34:	00040513          	mv	a0,s0
    bc38:	fa9ff06f          	j	0xbbe0
    bc3c:	fd010113          	addi	sp,sp,-48
    bc40:	02813023          	sd	s0,32(sp)
    bc44:	02113423          	sd	ra,40(sp)
    bc48:	00913c23          	sd	s1,24(sp)
    bc4c:	00200793          	li	a5,2
    bc50:	00058413          	mv	s0,a1
    bc54:	00f51c63          	bne	a0,a5,0xbc6c
    bc58:	0085b583          	ld	a1,8(a1)
    bc5c:	00004517          	auipc	a0,0x4
    bc60:	8a450513          	addi	a0,a0,-1884 # 0xf500
    bc64:	8d5f80ef          	jal	ra,0x4538
    bc68:	04c0006f          	j	0xbcb4
    bc6c:	00300793          	li	a5,3
    bc70:	06f51663          	bne	a0,a5,0xbcdc
    bc74:	01043503          	ld	a0,16(s0)
    bc78:	00000613          	li	a2,0
    bc7c:	44200593          	li	a1,1090
    bc80:	c59fb0ef          	jal	ra,0x78d8
    bc84:	00050493          	mv	s1,a0
    bc88:	04054263          	bltz	a0,0xbccc
    bc8c:	00843583          	ld	a1,8(s0)
    bc90:	00058513          	mv	a0,a1
    bc94:	00b13423          	sd	a1,8(sp)
    bc98:	8bdf40ef          	jal	ra,0x554
    bc9c:	00813583          	ld	a1,8(sp)
    bca0:	00050613          	mv	a2,a0
    bca4:	00048513          	mv	a0,s1
    bca8:	db9fb0ef          	jal	ra,0x7a60
    bcac:	00048513          	mv	a0,s1
    bcb0:	cd5fb0ef          	jal	ra,0x7984
    bcb4:	02813083          	ld	ra,40(sp)
    bcb8:	02013403          	ld	s0,32(sp)
    bcbc:	01813483          	ld	s1,24(sp)
    bcc0:	00000513          	li	a0,0
    bcc4:	03010113          	addi	sp,sp,48
    bcc8:	00008067          	ret
    bccc:	01043583          	ld	a1,16(s0)
    bcd0:	00004517          	auipc	a0,0x4
    bcd4:	e5050513          	addi	a0,a0,-432 # 0xfb20
    bcd8:	f8dff06f          	j	0xbc64
    bcdc:	00004517          	auipc	a0,0x4
    bce0:	e5c50513          	addi	a0,a0,-420 # 0xfb38
    bce4:	855f80ef          	jal	ra,0x4538
    bce8:	fcdff06f          	j	0xbcb4
    bcec:	22058263          	beqz	a1,0xbf10
    bcf0:	fa010113          	addi	sp,sp,-96
    bcf4:	04813823          	sd	s0,80(sp)
    bcf8:	05213023          	sd	s2,64(sp)
    bcfc:	04113c23          	sd	ra,88(sp)
    bd00:	04913423          	sd	s1,72(sp)
    bd04:	03313c23          	sd	s3,56(sp)
    bd08:	03413823          	sd	s4,48(sp)
    bd0c:	03513423          	sd	s5,40(sp)
    bd10:	03613023          	sd	s6,32(sp)
    bd14:	01713c23          	sd	s7,24(sp)
    bd18:	00050913          	mv	s2,a0
    bd1c:	00000413          	li	s0,0
    bd20:	02000713          	li	a4,32
    bd24:	00900693          	li	a3,9
    bd28:	008907b3          	add	a5,s2,s0
    bd2c:	0007c783          	lbu	a5,0(a5)
    bd30:	0004099b          	sext.w	s3,s0
    bd34:	00e78663          	beq	a5,a4,0xbd40
    bd38:	00d78463          	beq	a5,a3,0xbd40
    bd3c:	12b9c863          	blt	s3,a1,0xbe6c
    bd40:	0209851b          	addiw	a0,s3,32
    bd44:	ec9f40ef          	jal	ra,0xc0c
    bd48:	00050493          	mv	s1,a0
    bd4c:	ffb00793          	li	a5,-5
    bd50:	12050863          	beqz	a0,0xbe80
    bd54:	00040613          	mv	a2,s0
    bd58:	00090593          	mv	a1,s2
    bd5c:	869f40ef          	jal	ra,0x5c4
    bd60:	00848433          	add	s0,s1,s0
    bd64:	00040023          	sb	zero,0(s0)
    bd68:	00004597          	auipc	a1,0x4
    bd6c:	df858593          	addi	a1,a1,-520 # 0xfb60
    bd70:	00048513          	mv	a0,s1
    bd74:	859f40ef          	jal	ra,0x5cc
    bd78:	00051e63          	bnez	a0,0xbd94
    bd7c:	00004597          	auipc	a1,0x4
    bd80:	dec58593          	addi	a1,a1,-532 # 0xfb68
    bd84:	00048513          	mv	a0,s1
    bd88:	845f40ef          	jal	ra,0x5cc
    bd8c:	fff00413          	li	s0,-1
    bd90:	04050663          	beqz	a0,0xbddc
    bd94:	00000613          	li	a2,0
    bd98:	00000593          	li	a1,0
    bd9c:	00048513          	mv	a0,s1
    bda0:	b39fb0ef          	jal	ra,0x78d8
    bda4:	00050413          	mv	s0,a0
    bda8:	02055a63          	bgez	a0,0xbddc
    bdac:	00090713          	mv	a4,s2
    bdb0:	00098693          	mv	a3,s3
    bdb4:	00004617          	auipc	a2,0x4
    bdb8:	dbc60613          	addi	a2,a2,-580 # 0xfb70
    bdbc:	01f9859b          	addiw	a1,s3,31
    bdc0:	00048513          	mv	a0,s1
    bdc4:	e78f80ef          	jal	ra,0x443c
    bdc8:	00000613          	li	a2,0
    bdcc:	00000593          	li	a1,0
    bdd0:	00048513          	mv	a0,s1
    bdd4:	b05fb0ef          	jal	ra,0x78d8
    bdd8:	00050413          	mv	s0,a0
    bddc:	00048513          	mv	a0,s1
    bde0:	97cf50ef          	jal	ra,0xf5c
    bde4:	fff00793          	li	a5,-1
    bde8:	08044c63          	bltz	s0,0xbe80
    bdec:	10000513          	li	a0,256
    bdf0:	e1df40ef          	jal	ra,0xc0c
    bdf4:	00050493          	mv	s1,a0
    bdf8:	06050e63          	beqz	a0,0xbe74
    bdfc:	00a00a13          	li	s4,10
    be00:	00d00a93          	li	s5,13
    be04:	10000b13          	li	s6,256
    be08:	02000b93          	li	s7,32
    be0c:	00100613          	li	a2,1
    be10:	00f10593          	addi	a1,sp,15
    be14:	00040513          	mv	a0,s0
    be18:	bd5fb0ef          	jal	ra,0x79ec
    be1c:	00100793          	li	a5,1
    be20:	0cf51c63          	bne	a0,a5,0xbef8
    be24:	00f14783          	lbu	a5,15(sp)
    be28:	ff4782e3          	beq	a5,s4,0xbe0c
    be2c:	ff5780e3          	beq	a5,s5,0xbe0c
    be30:	00f48023          	sb	a5,0(s1)
    be34:	00100913          	li	s2,1
    be38:	00100613          	li	a2,1
    be3c:	00f10593          	addi	a1,sp,15
    be40:	00040513          	mv	a0,s0
    be44:	ba9fb0ef          	jal	ra,0x79ec
    be48:	00100713          	li	a4,1
    be4c:	0009099b          	sext.w	s3,s2
    be50:	009907b3          	add	a5,s2,s1
    be54:	00e51863          	bne	a0,a4,0xbe64
    be58:	00f14703          	lbu	a4,15(sp)
    be5c:	01470463          	beq	a4,s4,0xbe64
    be60:	05571863          	bne	a4,s5,0xbeb0
    be64:	00078023          	sb	zero,0(a5)
    be68:	0580006f          	j	0xbec0
    be6c:	00140413          	addi	s0,s0,1
    be70:	eb9ff06f          	j	0xbd28
    be74:	00040513          	mv	a0,s0
    be78:	b0dfb0ef          	jal	ra,0x7984
    be7c:	ffb00793          	li	a5,-5
    be80:	05813083          	ld	ra,88(sp)
    be84:	05013403          	ld	s0,80(sp)
    be88:	04813483          	ld	s1,72(sp)
    be8c:	04013903          	ld	s2,64(sp)
    be90:	03813983          	ld	s3,56(sp)
    be94:	03013a03          	ld	s4,48(sp)
    be98:	02813a83          	ld	s5,40(sp)
    be9c:	02013b03          	ld	s6,32(sp)
    bea0:	01813b83          	ld	s7,24(sp)
    bea4:	00078513          	mv	a0,a5
    bea8:	06010113          	addi	sp,sp,96
    beac:	00008067          	ret
    beb0:	00e78023          	sb	a4,0(a5)
    beb4:	00190913          	addi	s2,s2,1
    beb8:	f96910e3          	bne	s2,s6,0xbe38
    bebc:	10000993          	li	s3,256
    bec0:	00048793          	mv	a5,s1
    bec4:	00900693          	li	a3,9
    bec8:	0007c703          	lbu	a4,0(a5)
    becc:	01770463          	beq	a4,s7,0xbed4
    bed0:	00d71863          	bne	a4,a3,0xbee0
    bed4:	00178793          	addi	a5,a5,1
    bed8:	4097863b          	subw	a2,a5,s1
    bedc:	ff3646e3          	blt	a2,s3,0xbec8
    bee0:	02300793          	li	a5,35
    bee4:	f2f704e3          	beq	a4,a5,0xbe0c
    bee8:	00098593          	mv	a1,s3
    beec:	00048513          	mv	a0,s1
    bef0:	97cfe0ef          	jal	ra,0xa06c
    bef4:	f15ff06f          	j	0xbe08
    bef8:	00040513          	mv	a0,s0
    befc:	a89fb0ef          	jal	ra,0x7984
    bf00:	00048513          	mv	a0,s1
    bf04:	858f50ef          	jal	ra,0xf5c
    bf08:	00000793          	li	a5,0
    bf0c:	f75ff06f          	j	0xbe80
    bf10:	fff00793          	li	a5,-1
    bf14:	00078513          	mv	a0,a5
    bf18:	00008067          	ret
    bf1c:	00050793          	mv	a5,a0
    bf20:	00050713          	mv	a4,a0
    bf24:	00000513          	li	a0,0
    bf28:	00073703          	ld	a4,0(a4)
    bf2c:	00f71463          	bne	a4,a5,0xbf34
    bf30:	00008067          	ret
    bf34:	0015051b          	addiw	a0,a0,1
    bf38:	ff1ff06f          	j	0xbf28
    bf3c:	ff010113          	addi	sp,sp,-16
    bf40:	00004517          	auipc	a0,0x4
    bf44:	ee850513          	addi	a0,a0,-280 # 0xfe28
    bf48:	00113423          	sd	ra,8(sp)
    bf4c:	decf80ef          	jal	ra,0x4538
    bf50:	00813083          	ld	ra,8(sp)
    bf54:	00000513          	li	a0,0
    bf58:	01010113          	addi	sp,sp,16
    bf5c:	00008067          	ret
    bf60:	ff010113          	addi	sp,sp,-16
    bf64:	00004517          	auipc	a0,0x4
    bf68:	edc50513          	addi	a0,a0,-292 # 0xfe40
    bf6c:	00113423          	sd	ra,8(sp)
    bf70:	dc8f80ef          	jal	ra,0x4538
    bf74:	00813083          	ld	ra,8(sp)
    bf78:	00000513          	li	a0,0
    bf7c:	01010113          	addi	sp,sp,16
    bf80:	00008067          	ret
    bf84:	fd010113          	addi	sp,sp,-48
    bf88:	00913c23          	sd	s1,24(sp)
    bf8c:	00053483          	ld	s1,0(a0)
    bf90:	02813023          	sd	s0,32(sp)
    bf94:	01213823          	sd	s2,16(sp)
    bf98:	01313423          	sd	s3,8(sp)
    bf9c:	02113423          	sd	ra,40(sp)
    bfa0:	00050413          	mv	s0,a0
    bfa4:	00003917          	auipc	s2,0x3
    bfa8:	edc90913          	addi	s2,s2,-292 # 0xee80
    bfac:	00003997          	auipc	s3,0x3
    bfb0:	ebc98993          	addi	s3,s3,-324 # 0xee68
    bfb4:	02849063          	bne	s1,s0,0xbfd4
    bfb8:	02813083          	ld	ra,40(sp)
    bfbc:	02013403          	ld	s0,32(sp)
    bfc0:	01813483          	ld	s1,24(sp)
    bfc4:	01013903          	ld	s2,16(sp)
    bfc8:	00813983          	ld	s3,8(sp)
    bfcc:	03010113          	addi	sp,sp,48
    bfd0:	00008067          	ret
    bfd4:	fd848593          	addi	a1,s1,-40
    bfd8:	00090513          	mv	a0,s2
    bfdc:	d5cf80ef          	jal	ra,0x4538
    bfe0:	0004b783          	ld	a5,0(s1)
    bfe4:	00878663          	beq	a5,s0,0xbff0
    bfe8:	00098513          	mv	a0,s3
    bfec:	d4cf80ef          	jal	ra,0x4538
    bff0:	0004b483          	ld	s1,0(s1)
    bff4:	fc1ff06f          	j	0xbfb4
    bff8:	ff010113          	addi	sp,sp,-16
    bffc:	00113423          	sd	ra,8(sp)
    c000:	decf80ef          	jal	ra,0x45ec
    c004:	00813083          	ld	ra,8(sp)
    c008:	00000513          	li	a0,0
    c00c:	01010113          	addi	sp,sp,16
    c010:	00008067          	ret
    c014:	fd010113          	addi	sp,sp,-48
    c018:	00004517          	auipc	a0,0x4
    c01c:	e3050513          	addi	a0,a0,-464 # 0xfe48
    c020:	02813023          	sd	s0,32(sp)
    c024:	01213823          	sd	s2,16(sp)
    c028:	01313423          	sd	s3,8(sp)
    c02c:	01413023          	sd	s4,0(sp)
    c030:	02113423          	sd	ra,40(sp)
    c034:	00913c23          	sd	s1,24(sp)
    c038:	0000d917          	auipc	s2,0xd
    c03c:	2e890913          	addi	s2,s2,744 # 0x19320
    c040:	cf8f80ef          	jal	ra,0x4538
    c044:	00004997          	auipc	s3,0x4
    c048:	e1c98993          	addi	s3,s3,-484 # 0xfe60
    c04c:	0000d417          	auipc	s0,0xd
    c050:	2cc43403          	ld	s0,716(s0) # 0x19318
    c054:	00004a17          	auipc	s4,0x4
    c058:	e14a0a13          	addi	s4,s4,-492 # 0xfe68
    c05c:	00093783          	ld	a5,0(s2)
    c060:	02f46463          	bltu	s0,a5,0xc088
    c064:	02813083          	ld	ra,40(sp)
    c068:	02013403          	ld	s0,32(sp)
    c06c:	01813483          	ld	s1,24(sp)
    c070:	01013903          	ld	s2,16(sp)
    c074:	00813983          	ld	s3,8(sp)
    c078:	00013a03          	ld	s4,0(sp)
    c07c:	00000513          	li	a0,0
    c080:	03010113          	addi	sp,sp,48
    c084:	00008067          	ret
    c088:	00043483          	ld	s1,0(s0)
    c08c:	00200613          	li	a2,2
    c090:	00098593          	mv	a1,s3
    c094:	00048513          	mv	a0,s1
    c098:	d24f40ef          	jal	ra,0x5bc
    c09c:	00050a63          	beqz	a0,0xc0b0
    c0a0:	00843603          	ld	a2,8(s0)
    c0a4:	00048593          	mv	a1,s1
    c0a8:	000a0513          	mv	a0,s4
    c0ac:	c8cf80ef          	jal	ra,0x4538
    c0b0:	01840413          	addi	s0,s0,24
    c0b4:	fa9ff06f          	j	0xc05c
    c0b8:	0145a783          	lw	a5,20(a1)
    c0bc:	0005ac23          	sw	zero,24(a1)
    c0c0:	0c078863          	beqz	a5,0xc190
    c0c4:	0105c783          	lbu	a5,16(a1)
    c0c8:	fd010113          	addi	sp,sp,-48
    c0cc:	02813023          	sd	s0,32(sp)
    c0d0:	00913c23          	sd	s1,24(sp)
    c0d4:	02113423          	sd	ra,40(sp)
    c0d8:	01213823          	sd	s2,16(sp)
    c0dc:	01313423          	sd	s3,8(sp)
    c0e0:	00050413          	mv	s0,a0
    c0e4:	00058493          	mv	s1,a1
    c0e8:	00000513          	li	a0,0
    c0ec:	02078e63          	beqz	a5,0xc128
    c0f0:	0005b983          	ld	s3,0(a1)
    c0f4:	00000913          	li	s2,0
    c0f8:	00041663          	bnez	s0,0xc104
    c0fc:	00098413          	mv	s0,s3
    c100:	00100913          	li	s2,1
    c104:	f71f30ef          	jal	ra,0x74
    c108:	00050713          	mv	a4,a0
    c10c:	02091c63          	bnez	s2,0xc144
    c110:	ffc44783          	lbu	a5,-4(s0)
    c114:	0104c683          	lbu	a3,16(s1)
    c118:	07f7f793          	andi	a5,a5,127
    c11c:	02f68463          	beq	a3,a5,0xc144
    c120:	f5df30ef          	jal	ra,0x7c
    c124:	00000513          	li	a0,0
    c128:	02813083          	ld	ra,40(sp)
    c12c:	02013403          	ld	s0,32(sp)
    c130:	01813483          	ld	s1,24(sp)
    c134:	01013903          	ld	s2,16(sp)
    c138:	00813983          	ld	s3,8(sp)
    c13c:	03010113          	addi	sp,sp,48
    c140:	00008067          	ret
    c144:	0084b603          	ld	a2,8(s1)
    c148:	00000793          	li	a5,0
    c14c:	00043403          	ld	s0,0(s0)
    c150:	0007891b          	sext.w	s2,a5
    c154:	02898a63          	beq	s3,s0,0xc188
    c158:	00379693          	slli	a3,a5,0x3
    c15c:	0144a903          	lw	s2,20(s1)
    c160:	00d606b3          	add	a3,a2,a3
    c164:	00178793          	addi	a5,a5,1
    c168:	0086b023          	sd	s0,0(a3) # 0x1000
    c16c:	0007869b          	sext.w	a3,a5
    c170:	fcd91ee3          	bne	s2,a3,0xc14c
    c174:	00070513          	mv	a0,a4
    c178:	f05f30ef          	jal	ra,0x7c
    c17c:	00040513          	mv	a0,s0
    c180:	0124ac23          	sw	s2,24(s1)
    c184:	fa5ff06f          	j	0xc128
    c188:	00000413          	li	s0,0
    c18c:	fe9ff06f          	j	0xc174
    c190:	00000513          	li	a0,0
    c194:	00008067          	ret
    c198:	fe010113          	addi	sp,sp,-32
    c19c:	00813823          	sd	s0,16(sp)
    c1a0:	00913423          	sd	s1,8(sp)
    c1a4:	00113c23          	sd	ra,24(sp)
    c1a8:	01500413          	li	s0,21
    c1ac:	00004497          	auipc	s1,0x4
    c1b0:	ccc48493          	addi	s1,s1,-820 # 0xfe78
    c1b4:	fff4041b          	addiw	s0,s0,-1
    c1b8:	00041c63          	bnez	s0,0xc1d0
    c1bc:	01813083          	ld	ra,24(sp)
    c1c0:	01013403          	ld	s0,16(sp)
    c1c4:	00813483          	ld	s1,8(sp)
    c1c8:	02010113          	addi	sp,sp,32
    c1cc:	00008067          	ret
    c1d0:	00048513          	mv	a0,s1
    c1d4:	b64f80ef          	jal	ra,0x4538
    c1d8:	fddff06f          	j	0xc1b4
    c1dc:	e2010113          	addi	sp,sp,-480
    c1e0:	00100513          	li	a0,1
    c1e4:	1c113c23          	sd	ra,472(sp)
    c1e8:	1c913423          	sd	s1,456(sp)
    c1ec:	1b413823          	sd	s4,432(sp)
    c1f0:	1b513423          	sd	s5,424(sp)
    c1f4:	1b613023          	sd	s6,416(sp)
    c1f8:	19713c23          	sd	s7,408(sp)
    c1fc:	1c813823          	sd	s0,464(sp)
    c200:	1d213023          	sd	s2,448(sp)
    c204:	1b313c23          	sd	s3,440(sp)
    c208:	19813823          	sd	s8,400(sp)
    c20c:	19913423          	sd	s9,392(sp)
    c210:	19a13023          	sd	s10,384(sp)
    c214:	17b13c23          	sd	s11,376(sp)
    c218:	95cf70ef          	jal	ra,0x3374
    c21c:	00850513          	addi	a0,a0,8
    c220:	00100793          	li	a5,1
    c224:	00004617          	auipc	a2,0x4
    c228:	c5c60613          	addi	a2,a2,-932 # 0xfe80
    c22c:	01400593          	li	a1,20
    c230:	02a13423          	sd	a0,40(sp)
    c234:	02f10c23          	sb	a5,56(sp)
    c238:	00004517          	auipc	a0,0x4
    c23c:	c5050513          	addi	a0,a0,-944 # 0xfe88
    c240:	00800793          	li	a5,8
    c244:	04810a13          	addi	s4,sp,72
    c248:	02f12e23          	sw	a5,60(sp)
    c24c:	03413823          	sd	s4,48(sp)
    c250:	04012023          	sw	zero,64(sp)
    c254:	ae4f80ef          	jal	ra,0x4538
    c258:	f41ff0ef          	jal	ra,0xc198
    c25c:	00004517          	auipc	a0,0x4
    c260:	c7450513          	addi	a0,a0,-908 # 0xfed0
    c264:	ad4f80ef          	jal	ra,0x4538
    c268:	00000493          	li	s1,0
    c26c:	00004a97          	auipc	s5,0x4
    c270:	ca4a8a93          	addi	s5,s5,-860 # 0xff10
    c274:	00100b13          	li	s6,1
    c278:	00004b97          	auipc	s7,0x4
    c27c:	cf8b8b93          	addi	s7,s7,-776 # 0xff70
    c280:	00048513          	mv	a0,s1
    c284:	02810593          	addi	a1,sp,40
    c288:	e31ff0ef          	jal	ra,0xc0b8
    c28c:	00050493          	mv	s1,a0
    c290:	000a0993          	mv	s3,s4
    c294:	00000913          	li	s2,0
    c298:	02300c13          	li	s8,35
    c29c:	00200c93          	li	s9,2
    c2a0:	00400d13          	li	s10,4
    c2a4:	00300d93          	li	s11,3
    c2a8:	04012783          	lw	a5,64(sp)
    c2ac:	04f94463          	blt	s2,a5,0xc2f4
    c2b0:	fc0498e3          	bnez	s1,0xc280
    c2b4:	1d813083          	ld	ra,472(sp)
    c2b8:	1d013403          	ld	s0,464(sp)
    c2bc:	1c813483          	ld	s1,456(sp)
    c2c0:	1c013903          	ld	s2,448(sp)
    c2c4:	1b813983          	ld	s3,440(sp)
    c2c8:	1b013a03          	ld	s4,432(sp)
    c2cc:	1a813a83          	ld	s5,424(sp)
    c2d0:	1a013b03          	ld	s6,416(sp)
    c2d4:	19813b83          	ld	s7,408(sp)
    c2d8:	19013c03          	ld	s8,400(sp)
    c2dc:	18813c83          	ld	s9,392(sp)
    c2e0:	18013d03          	ld	s10,384(sp)
    c2e4:	17813d83          	ld	s11,376(sp)
    c2e8:	00000513          	li	a0,0
    c2ec:	1e010113          	addi	sp,sp,480
    c2f0:	00008067          	ret
    c2f4:	0009b403          	ld	s0,0(s3)
    c2f8:	d7df30ef          	jal	ra,0x74
    c2fc:	03814683          	lbu	a3,56(sp)
    c300:	ffc44703          	lbu	a4,-4(s0)
    c304:	07f77713          	andi	a4,a4,127
    c308:	00e68a63          	beq	a3,a4,0xc31c
    c30c:	d71f30ef          	jal	ra,0x7c
    c310:	0019091b          	addiw	s2,s2,1
    c314:	00898993          	addi	s3,s3,8
    c318:	f91ff06f          	j	0xc2a8
    c31c:	fe840693          	addi	a3,s0,-24
    c320:	00068593          	mv	a1,a3
    c324:	0e800613          	li	a2,232
    c328:	00a13423          	sd	a0,8(sp)
    c32c:	08810513          	addi	a0,sp,136
    c330:	00d13023          	sd	a3,0(sp)
    c334:	a90f40ef          	jal	ra,0x5c4
    c338:	00813783          	ld	a5,8(sp)
    c33c:	00078513          	mv	a0,a5
    c340:	d3df30ef          	jal	ra,0x7c
    c344:	05144703          	lbu	a4,81(s0)
    c348:	00013683          	ld	a3,0(sp)
    c34c:	000a8513          	mv	a0,s5
    c350:	01400613          	li	a2,20
    c354:	01400593          	li	a1,20
    c358:	9e0f80ef          	jal	ra,0x4538
    c35c:	05044783          	lbu	a5,80(s0)
    c360:	00004517          	auipc	a0,0x4
    c364:	bc050513          	addi	a0,a0,-1088 # 0xff20
    c368:	0077f793          	andi	a5,a5,7
    c36c:	03678a63          	beq	a5,s6,0xc3a0
    c370:	00004517          	auipc	a0,0x4
    c374:	bc050513          	addi	a0,a0,-1088 # 0xff30
    c378:	03978463          	beq	a5,s9,0xc3a0
    c37c:	00004517          	auipc	a0,0x4
    c380:	bc450513          	addi	a0,a0,-1084 # 0xff40
    c384:	00078e63          	beqz	a5,0xc3a0
    c388:	00004517          	auipc	a0,0x4
    c38c:	bc850513          	addi	a0,a0,-1080 # 0xff50
    c390:	01a78863          	beq	a5,s10,0xc3a0
    c394:	01b79863          	bne	a5,s11,0xc3a4
    c398:	00004517          	auipc	a0,0x4
    c39c:	bc850513          	addi	a0,a0,-1080 # 0xff60
    c3a0:	998f80ef          	jal	ra,0x4538
    c3a4:	03843803          	ld	a6,56(s0)
    c3a8:	00080513          	mv	a0,a6
    c3ac:	00054783          	lbu	a5,0(a0)
    c3b0:	07878863          	beq	a5,s8,0xc420
    c3b4:	04042603          	lw	a2,64(s0)
    c3b8:	04843783          	ld	a5,72(s0)
    c3bc:	06843703          	ld	a4,104(s0)
    c3c0:	02061593          	slli	a1,a2,0x20
    c3c4:	0205d593          	srli	a1,a1,0x20
    c3c8:	00b80833          	add	a6,a6,a1
    c3cc:	40a80533          	sub	a0,a6,a0
    c3d0:	00151693          	slli	a3,a0,0x1
    c3d4:	00a686b3          	add	a3,a3,a0
    c3d8:	00369693          	slli	a3,a3,0x3
    c3dc:	00a68533          	add	a0,a3,a0
    c3e0:	00251513          	slli	a0,a0,0x2
    c3e4:	00c13c23          	sd	a2,24(sp)
    c3e8:	00f13823          	sd	a5,16(sp)
    c3ec:	00e13423          	sd	a4,8(sp)
    c3f0:	01013023          	sd	a6,0(sp)
    c3f4:	e1df30ef          	jal	ra,0x210
    c3f8:	02043583          	ld	a1,32(s0)
    c3fc:	00013803          	ld	a6,0(sp)
    c400:	01013783          	ld	a5,16(sp)
    c404:	00813703          	ld	a4,8(sp)
    c408:	01813603          	ld	a2,24(sp)
    c40c:	00050693          	mv	a3,a0
    c410:	40b805b3          	sub	a1,a6,a1
    c414:	000b8513          	mv	a0,s7
    c418:	920f80ef          	jal	ra,0x4538
    c41c:	ef5ff06f          	j	0xc310
    c420:	00150513          	addi	a0,a0,1
    c424:	f89ff06f          	j	0xc3ac
    c428:	f5010113          	addi	sp,sp,-176
    c42c:	00900513          	li	a0,9
    c430:	0a113423          	sd	ra,168(sp)
    c434:	0a813023          	sd	s0,160(sp)
    c438:	09313423          	sd	s3,136(sp)
    c43c:	09413023          	sd	s4,128(sp)
    c440:	07513c23          	sd	s5,120(sp)
    c444:	07613823          	sd	s6,112(sp)
    c448:	07713423          	sd	s7,104(sp)
    c44c:	08913c23          	sd	s1,152(sp)
    c450:	09213823          	sd	s2,144(sp)
    c454:	07813023          	sd	s8,96(sp)
    c458:	f1df60ef          	jal	ra,0x3374
    c45c:	00850513          	addi	a0,a0,8
    c460:	00900793          	li	a5,9
    c464:	00003617          	auipc	a2,0x3
    c468:	88c60613          	addi	a2,a2,-1908 # 0xecf0
    c46c:	01400593          	li	a1,20
    c470:	00a13023          	sd	a0,0(sp)
    c474:	00f10823          	sb	a5,16(sp)
    c478:	00004517          	auipc	a0,0x4
    c47c:	b2850513          	addi	a0,a0,-1240 # 0xffa0
    c480:	00800793          	li	a5,8
    c484:	02010993          	addi	s3,sp,32
    c488:	00f12a23          	sw	a5,20(sp)
    c48c:	01313423          	sd	s3,8(sp)
    c490:	00012c23          	sw	zero,24(sp)
    c494:	8a4f80ef          	jal	ra,0x4538
    c498:	d01ff0ef          	jal	ra,0xc198
    c49c:	00004517          	auipc	a0,0x4
    c4a0:	b2c50513          	addi	a0,a0,-1236 # 0xffc8
    c4a4:	894f80ef          	jal	ra,0x4538
    c4a8:	00000413          	li	s0,0
    c4ac:	01600a13          	li	s4,22
    c4b0:	00004a97          	auipc	s5,0x4
    c4b4:	ae8a8a93          	addi	s5,s5,-1304 # 0xff98
    c4b8:	00004b17          	auipc	s6,0x4
    c4bc:	b38b0b13          	addi	s6,s6,-1224 # 0xfff0
    c4c0:	00004b97          	auipc	s7,0x4
    c4c4:	030b8b93          	addi	s7,s7,48 # 0x104f0
    c4c8:	00040513          	mv	a0,s0
    c4cc:	00010593          	mv	a1,sp
    c4d0:	be9ff0ef          	jal	ra,0xc0b8
    c4d4:	00050413          	mv	s0,a0
    c4d8:	00098913          	mv	s2,s3
    c4dc:	00000493          	li	s1,0
    c4e0:	01812783          	lw	a5,24(sp)
    c4e4:	02f4ce63          	blt	s1,a5,0xc520
    c4e8:	fe0410e3          	bnez	s0,0xc4c8
    c4ec:	0a813083          	ld	ra,168(sp)
    c4f0:	0a013403          	ld	s0,160(sp)
    c4f4:	09813483          	ld	s1,152(sp)
    c4f8:	09013903          	ld	s2,144(sp)
    c4fc:	08813983          	ld	s3,136(sp)
    c500:	08013a03          	ld	s4,128(sp)
    c504:	07813a83          	ld	s5,120(sp)
    c508:	07013b03          	ld	s6,112(sp)
    c50c:	06813b83          	ld	s7,104(sp)
    c510:	06013c03          	ld	s8,96(sp)
    c514:	00000513          	li	a0,0
    c518:	0b010113          	addi	sp,sp,176
    c51c:	00008067          	ret
    c520:	00093c03          	ld	s8,0(s2)
    c524:	b51f30ef          	jal	ra,0x74
    c528:	01014703          	lbu	a4,16(sp)
    c52c:	ffcc4783          	lbu	a5,-4(s8) # 0x7ffc
    c530:	07f7f793          	andi	a5,a5,127
    c534:	00f70a63          	beq	a4,a5,0xc548
    c538:	b45f30ef          	jal	ra,0x7c
    c53c:	0014849b          	addiw	s1,s1,1
    c540:	00890913          	addi	s2,s2,8
    c544:	f9dff06f          	j	0xc4e0
    c548:	b35f30ef          	jal	ra,0x7c
    c54c:	010c2783          	lw	a5,16(s8)
    c550:	fe8c0693          	addi	a3,s8,-24
    c554:	000a8713          	mv	a4,s5
    c558:	00fa6a63          	bltu	s4,a5,0xc56c
    c55c:	02079793          	slli	a5,a5,0x20
    c560:	01d7d793          	srli	a5,a5,0x1d
    c564:	00fb87b3          	add	a5,s7,a5
    c568:	0007b703          	ld	a4,0(a5)
    c56c:	018c4783          	lbu	a5,24(s8)
    c570:	01400613          	li	a2,20
    c574:	01400593          	li	a1,20
    c578:	000b0513          	mv	a0,s6
    c57c:	fbdf70ef          	jal	ra,0x4538
    c580:	fbdff06f          	j	0xc53c
    c584:	f5010113          	addi	sp,sp,-176
    c588:	00300513          	li	a0,3
    c58c:	0a113423          	sd	ra,168(sp)
    c590:	0a813023          	sd	s0,160(sp)
    c594:	09413023          	sd	s4,128(sp)
    c598:	07513c23          	sd	s5,120(sp)
    c59c:	08913c23          	sd	s1,152(sp)
    c5a0:	09213823          	sd	s2,144(sp)
    c5a4:	09313423          	sd	s3,136(sp)
    c5a8:	dcdf60ef          	jal	ra,0x3374
    c5ac:	00850513          	addi	a0,a0,8
    c5b0:	00300793          	li	a5,3
    c5b4:	00004617          	auipc	a2,0x4
    c5b8:	a5460613          	addi	a2,a2,-1452 # 0x10008
    c5bc:	01400593          	li	a1,20
    c5c0:	00a13823          	sd	a0,16(sp)
    c5c4:	02f10023          	sb	a5,32(sp)
    c5c8:	00004517          	auipc	a0,0x4
    c5cc:	a4850513          	addi	a0,a0,-1464 # 0x10010
    c5d0:	00800793          	li	a5,8
    c5d4:	03010a13          	addi	s4,sp,48
    c5d8:	02f12223          	sw	a5,36(sp)
    c5dc:	01413c23          	sd	s4,24(sp)
    c5e0:	02012423          	sw	zero,40(sp)
    c5e4:	f55f70ef          	jal	ra,0x4538
    c5e8:	bb1ff0ef          	jal	ra,0xc198
    c5ec:	00004517          	auipc	a0,0x4
    c5f0:	a4c50513          	addi	a0,a0,-1460 # 0x10038
    c5f4:	f45f70ef          	jal	ra,0x4538
    c5f8:	00000413          	li	s0,0
    c5fc:	00004a97          	auipc	s5,0x4
    c600:	a5ca8a93          	addi	s5,s5,-1444 # 0x10058
    c604:	00040513          	mv	a0,s0
    c608:	01010593          	addi	a1,sp,16
    c60c:	aadff0ef          	jal	ra,0xc0b8
    c610:	00050413          	mv	s0,a0
    c614:	000a0993          	mv	s3,s4
    c618:	00000913          	li	s2,0
    c61c:	02812783          	lw	a5,40(sp)
    c620:	02f94863          	blt	s2,a5,0xc650
    c624:	fe0410e3          	bnez	s0,0xc604
    c628:	0a813083          	ld	ra,168(sp)
    c62c:	0a013403          	ld	s0,160(sp)
    c630:	09813483          	ld	s1,152(sp)
    c634:	09013903          	ld	s2,144(sp)
    c638:	08813983          	ld	s3,136(sp)
    c63c:	08013a03          	ld	s4,128(sp)
    c640:	07813a83          	ld	s5,120(sp)
    c644:	00000513          	li	a0,0
    c648:	0b010113          	addi	sp,sp,176
    c64c:	00008067          	ret
    c650:	0009b483          	ld	s1,0(s3)
    c654:	a21f30ef          	jal	ra,0x74
    c658:	02014703          	lbu	a4,32(sp)
    c65c:	ffc4c783          	lbu	a5,-4(s1)
    c660:	07f7f793          	andi	a5,a5,127
    c664:	00f70a63          	beq	a4,a5,0xc678
    c668:	a15f30ef          	jal	ra,0x7c
    c66c:	0019091b          	addiw	s2,s2,1
    c670:	00898993          	addi	s3,s3,8
    c674:	fa9ff06f          	j	0xc61c
    c678:	a05f30ef          	jal	ra,0x7c
    c67c:	fe848693          	addi	a3,s1,-24
    c680:	01048513          	addi	a0,s1,16
    c684:	00d13423          	sd	a3,8(sp)
    c688:	895ff0ef          	jal	ra,0xbf1c
    c68c:	0234c803          	lbu	a6,35(s1)
    c690:	0284b783          	ld	a5,40(s1)
    c694:	00813683          	ld	a3,8(sp)
    c698:	0005089b          	sext.w	a7,a0
    c69c:	01400713          	li	a4,20
    c6a0:	01400613          	li	a2,20
    c6a4:	01400593          	li	a1,20
    c6a8:	000a8513          	mv	a0,s5
    c6ac:	e8df70ef          	jal	ra,0x4538
    c6b0:	fbdff06f          	j	0xc66c
    c6b4:	f5010113          	addi	sp,sp,-176
    c6b8:	00a00513          	li	a0,10
    c6bc:	0a113423          	sd	ra,168(sp)
    c6c0:	0a813023          	sd	s0,160(sp)
    c6c4:	09413023          	sd	s4,128(sp)
    c6c8:	07513c23          	sd	s5,120(sp)
    c6cc:	07613823          	sd	s6,112(sp)
    c6d0:	07713423          	sd	s7,104(sp)
    c6d4:	08913c23          	sd	s1,152(sp)
    c6d8:	09213823          	sd	s2,144(sp)
    c6dc:	09313423          	sd	s3,136(sp)
    c6e0:	c95f60ef          	jal	ra,0x3374
    c6e4:	00850513          	addi	a0,a0,8
    c6e8:	00a00793          	li	a5,10
    c6ec:	00001617          	auipc	a2,0x1
    c6f0:	fd460613          	addi	a2,a2,-44 # 0xd6c0
    c6f4:	01400593          	li	a1,20
    c6f8:	00a13023          	sd	a0,0(sp)
    c6fc:	00f10823          	sb	a5,16(sp)
    c700:	00004517          	auipc	a0,0x4
    c704:	97050513          	addi	a0,a0,-1680 # 0x10070
    c708:	00800793          	li	a5,8
    c70c:	02010a13          	addi	s4,sp,32
    c710:	00f12a23          	sw	a5,20(sp)
    c714:	01413423          	sd	s4,8(sp)
    c718:	00012c23          	sw	zero,24(sp)
    c71c:	e1df70ef          	jal	ra,0x4538
    c720:	a79ff0ef          	jal	ra,0xc198
    c724:	00004517          	auipc	a0,0x4
    c728:	97450513          	addi	a0,a0,-1676 # 0x10098
    c72c:	e0df70ef          	jal	ra,0x4538
    c730:	00000413          	li	s0,0
    c734:	00004a97          	auipc	s5,0x4
    c738:	98ca8a93          	addi	s5,s5,-1652 # 0x100c0
    c73c:	00004b17          	auipc	s6,0x4
    c740:	9acb0b13          	addi	s6,s6,-1620 # 0x100e8
    c744:	00004b97          	auipc	s7,0x4
    c748:	994b8b93          	addi	s7,s7,-1644 # 0x100d8
    c74c:	00040513          	mv	a0,s0
    c750:	00010593          	mv	a1,sp
    c754:	965ff0ef          	jal	ra,0xc0b8
    c758:	00050413          	mv	s0,a0
    c75c:	000a0993          	mv	s3,s4
    c760:	00000913          	li	s2,0
    c764:	01812783          	lw	a5,24(sp)
    c768:	04f94663          	blt	s2,a5,0xc7b4
    c76c:	fe0410e3          	bnez	s0,0xc74c
    c770:	b01f60ef          	jal	ra,0x3270
    c774:	0005059b          	sext.w	a1,a0
    c778:	00004517          	auipc	a0,0x4
    c77c:	98050513          	addi	a0,a0,-1664 # 0x100f8
    c780:	db9f70ef          	jal	ra,0x4538
    c784:	0a813083          	ld	ra,168(sp)
    c788:	0a013403          	ld	s0,160(sp)
    c78c:	09813483          	ld	s1,152(sp)
    c790:	09013903          	ld	s2,144(sp)
    c794:	08813983          	ld	s3,136(sp)
    c798:	08013a03          	ld	s4,128(sp)
    c79c:	07813a83          	ld	s5,120(sp)
    c7a0:	07013b03          	ld	s6,112(sp)
    c7a4:	06813b83          	ld	s7,104(sp)
    c7a8:	00000513          	li	a0,0
    c7ac:	0b010113          	addi	sp,sp,176
    c7b0:	00008067          	ret
    c7b4:	0009b483          	ld	s1,0(s3)
    c7b8:	8bdf30ef          	jal	ra,0x74
    c7bc:	01014703          	lbu	a4,16(sp)
    c7c0:	ffc4c783          	lbu	a5,-4(s1)
    c7c4:	07f7f793          	andi	a5,a5,127
    c7c8:	00f70a63          	beq	a4,a5,0xc7dc
    c7cc:	8b1f30ef          	jal	ra,0x7c
    c7d0:	0019091b          	addiw	s2,s2,1
    c7d4:	00898993          	addi	s3,s3,8
    c7d8:	f8dff06f          	j	0xc764
    c7dc:	8a1f30ef          	jal	ra,0x7c
    c7e0:	0344a783          	lw	a5,52(s1)
    c7e4:	0304a703          	lw	a4,48(s1)
    c7e8:	000a8513          	mv	a0,s5
    c7ec:	fe848693          	addi	a3,s1,-24
    c7f0:	01400613          	li	a2,20
    c7f4:	01400593          	li	a1,20
    c7f8:	d41f70ef          	jal	ra,0x4538
    c7fc:	ffd4c783          	lbu	a5,-3(s1)
    c800:	000b8513          	mv	a0,s7
    c804:	0017f793          	andi	a5,a5,1
    c808:	00079463          	bnez	a5,0xc810
    c80c:	000b0513          	mv	a0,s6
    c810:	d29f70ef          	jal	ra,0x4538
    c814:	fbdff06f          	j	0xc7d0
    c818:	f4010113          	addi	sp,sp,-192
    c81c:	00400513          	li	a0,4
    c820:	0a113c23          	sd	ra,184(sp)
    c824:	0a913423          	sd	s1,168(sp)
    c828:	09513423          	sd	s5,136(sp)
    c82c:	09613023          	sd	s6,128(sp)
    c830:	07713c23          	sd	s7,120(sp)
    c834:	07813823          	sd	s8,112(sp)
    c838:	0a813823          	sd	s0,176(sp)
    c83c:	0b213023          	sd	s2,160(sp)
    c840:	09313c23          	sd	s3,152(sp)
    c844:	09413823          	sd	s4,144(sp)
    c848:	b2df60ef          	jal	ra,0x3374
    c84c:	00850513          	addi	a0,a0,8
    c850:	00400793          	li	a5,4
    c854:	00004617          	auipc	a2,0x4
    c858:	8bc60613          	addi	a2,a2,-1860 # 0x10110
    c85c:	01400593          	li	a1,20
    c860:	00a13823          	sd	a0,16(sp)
    c864:	02f10023          	sb	a5,32(sp)
    c868:	00004517          	auipc	a0,0x4
    c86c:	8b050513          	addi	a0,a0,-1872 # 0x10118
    c870:	00800793          	li	a5,8
    c874:	03010a93          	addi	s5,sp,48
    c878:	02f12223          	sw	a5,36(sp)
    c87c:	01513c23          	sd	s5,24(sp)
    c880:	02012423          	sw	zero,40(sp)
    c884:	cb5f70ef          	jal	ra,0x4538
    c888:	911ff0ef          	jal	ra,0xc198
    c88c:	00004517          	auipc	a0,0x4
    c890:	8b450513          	addi	a0,a0,-1868 # 0x10140
    c894:	ca5f70ef          	jal	ra,0x4538
    c898:	00000493          	li	s1,0
    c89c:	00004b17          	auipc	s6,0x4
    c8a0:	8dcb0b13          	addi	s6,s6,-1828 # 0x10178
    c8a4:	00004b97          	auipc	s7,0x4
    c8a8:	8bcb8b93          	addi	s7,s7,-1860 # 0x10160
    c8ac:	00003c17          	auipc	s8,0x3
    c8b0:	58cc0c13          	addi	s8,s8,1420 # 0xfe38
    c8b4:	00048513          	mv	a0,s1
    c8b8:	01010593          	addi	a1,sp,16
    c8bc:	ffcff0ef          	jal	ra,0xc0b8
    c8c0:	00050493          	mv	s1,a0
    c8c4:	000a8993          	mv	s3,s5
    c8c8:	00000913          	li	s2,0
    c8cc:	02812783          	lw	a5,40(sp)
    c8d0:	02f94e63          	blt	s2,a5,0xc90c
    c8d4:	fe0490e3          	bnez	s1,0xc8b4
    c8d8:	0b813083          	ld	ra,184(sp)
    c8dc:	0b013403          	ld	s0,176(sp)
    c8e0:	0a813483          	ld	s1,168(sp)
    c8e4:	0a013903          	ld	s2,160(sp)
    c8e8:	09813983          	ld	s3,152(sp)
    c8ec:	09013a03          	ld	s4,144(sp)
    c8f0:	08813a83          	ld	s5,136(sp)
    c8f4:	08013b03          	ld	s6,128(sp)
    c8f8:	07813b83          	ld	s7,120(sp)
    c8fc:	07013c03          	ld	s8,112(sp)
    c900:	00000513          	li	a0,0
    c904:	0c010113          	addi	sp,sp,192
    c908:	00008067          	ret
    c90c:	0009b403          	ld	s0,0(s3)
    c910:	f64f30ef          	jal	ra,0x74
    c914:	02014703          	lbu	a4,32(sp)
    c918:	ffc44783          	lbu	a5,-4(s0)
    c91c:	07f7f793          	andi	a5,a5,127
    c920:	00f70a63          	beq	a4,a5,0xc934
    c924:	f58f30ef          	jal	ra,0x7c
    c928:	0019091b          	addiw	s2,s2,1
    c92c:	00898993          	addi	s3,s3,8
    c930:	f9dff06f          	j	0xc8cc
    c934:	f48f30ef          	jal	ra,0x7c
    c938:	01043783          	ld	a5,16(s0)
    c93c:	01040a13          	addi	s4,s0,16
    c940:	fe840693          	addi	a3,s0,-24
    c944:	04fa0063          	beq	s4,a5,0xc984
    c948:	000a0513          	mv	a0,s4
    c94c:	00d13423          	sd	a3,8(sp)
    c950:	dccff0ef          	jal	ra,0xbf1c
    c954:	02042703          	lw	a4,32(s0)
    c958:	00813683          	ld	a3,8(sp)
    c95c:	0005079b          	sext.w	a5,a0
    c960:	01400613          	li	a2,20
    c964:	01400593          	li	a1,20
    c968:	000b8513          	mv	a0,s7
    c96c:	bcdf70ef          	jal	ra,0x4538
    c970:	000a0513          	mv	a0,s4
    c974:	e10ff0ef          	jal	ra,0xbf84
    c978:	000c0513          	mv	a0,s8
    c97c:	bbdf70ef          	jal	ra,0x4538
    c980:	fa9ff06f          	j	0xc928
    c984:	02042703          	lw	a4,32(s0)
    c988:	01400613          	li	a2,20
    c98c:	01400593          	li	a1,20
    c990:	000b0513          	mv	a0,s6
    c994:	ba5f70ef          	jal	ra,0x4538
    c998:	f91ff06f          	j	0xc928
    c99c:	f4010113          	addi	sp,sp,-192
    c9a0:	00600513          	li	a0,6
    c9a4:	0a113c23          	sd	ra,184(sp)
    c9a8:	0a913423          	sd	s1,168(sp)
    c9ac:	09513423          	sd	s5,136(sp)
    c9b0:	09613023          	sd	s6,128(sp)
    c9b4:	07713c23          	sd	s7,120(sp)
    c9b8:	07813823          	sd	s8,112(sp)
    c9bc:	0a813823          	sd	s0,176(sp)
    c9c0:	0b213023          	sd	s2,160(sp)
    c9c4:	09313c23          	sd	s3,152(sp)
    c9c8:	09413823          	sd	s4,144(sp)
    c9cc:	9a9f60ef          	jal	ra,0x3374
    c9d0:	00850513          	addi	a0,a0,8
    c9d4:	00600793          	li	a5,6
    c9d8:	00003617          	auipc	a2,0x3
    c9dc:	7b860613          	addi	a2,a2,1976 # 0x10190
    c9e0:	01400593          	li	a1,20
    c9e4:	00a13823          	sd	a0,16(sp)
    c9e8:	02f10023          	sb	a5,32(sp)
    c9ec:	00003517          	auipc	a0,0x3
    c9f0:	7b450513          	addi	a0,a0,1972 # 0x101a0
    c9f4:	00800793          	li	a5,8
    c9f8:	03010a93          	addi	s5,sp,48
    c9fc:	02f12223          	sw	a5,36(sp)
    ca00:	01513c23          	sd	s5,24(sp)
    ca04:	02012423          	sw	zero,40(sp)
    ca08:	b31f70ef          	jal	ra,0x4538
    ca0c:	f8cff0ef          	jal	ra,0xc198
    ca10:	00003517          	auipc	a0,0x3
    ca14:	7b050513          	addi	a0,a0,1968 # 0x101c0
    ca18:	b21f70ef          	jal	ra,0x4538
    ca1c:	00000493          	li	s1,0
    ca20:	00003b17          	auipc	s6,0x3
    ca24:	7d0b0b13          	addi	s6,s6,2000 # 0x101f0
    ca28:	00003b97          	auipc	s7,0x3
    ca2c:	7b0b8b93          	addi	s7,s7,1968 # 0x101d8
    ca30:	00003c17          	auipc	s8,0x3
    ca34:	408c0c13          	addi	s8,s8,1032 # 0xfe38
    ca38:	00048513          	mv	a0,s1
    ca3c:	01010593          	addi	a1,sp,16
    ca40:	e78ff0ef          	jal	ra,0xc0b8
    ca44:	00050493          	mv	s1,a0
    ca48:	000a8a13          	mv	s4,s5
    ca4c:	00000993          	li	s3,0
    ca50:	02812783          	lw	a5,40(sp)
    ca54:	02f9ce63          	blt	s3,a5,0xca90
    ca58:	fe0490e3          	bnez	s1,0xca38
    ca5c:	0b813083          	ld	ra,184(sp)
    ca60:	0b013403          	ld	s0,176(sp)
    ca64:	0a813483          	ld	s1,168(sp)
    ca68:	0a013903          	ld	s2,160(sp)
    ca6c:	09813983          	ld	s3,152(sp)
    ca70:	09013a03          	ld	s4,144(sp)
    ca74:	08813a83          	ld	s5,136(sp)
    ca78:	08013b03          	ld	s6,128(sp)
    ca7c:	07813b83          	ld	s7,120(sp)
    ca80:	07013c03          	ld	s8,112(sp)
    ca84:	00000513          	li	a0,0
    ca88:	0c010113          	addi	sp,sp,192
    ca8c:	00008067          	ret
    ca90:	000a3403          	ld	s0,0(s4)
    ca94:	de0f30ef          	jal	ra,0x74
    ca98:	02014703          	lbu	a4,32(sp)
    ca9c:	ffc44783          	lbu	a5,-4(s0)
    caa0:	07f7f793          	andi	a5,a5,127
    caa4:	00f70a63          	beq	a4,a5,0xcab8
    caa8:	dd4f30ef          	jal	ra,0x7c
    caac:	0019899b          	addiw	s3,s3,1
    cab0:	008a0a13          	addi	s4,s4,8
    cab4:	f9dff06f          	j	0xca50
    cab8:	dc4f30ef          	jal	ra,0x7c
    cabc:	01043783          	ld	a5,16(s0)
    cac0:	fe840693          	addi	a3,s0,-24
    cac4:	01040913          	addi	s2,s0,16
    cac8:	00d13423          	sd	a3,8(sp)
    cacc:	00090513          	mv	a0,s2
    cad0:	02f90c63          	beq	s2,a5,0xcb08
    cad4:	c48ff0ef          	jal	ra,0xbf1c
    cad8:	02c45703          	lhu	a4,44(s0)
    cadc:	00813683          	ld	a3,8(sp)
    cae0:	0005079b          	sext.w	a5,a0
    cae4:	01400613          	li	a2,20
    cae8:	01400593          	li	a1,20
    caec:	000b8513          	mv	a0,s7
    caf0:	a49f70ef          	jal	ra,0x4538
    caf4:	00090513          	mv	a0,s2
    caf8:	c8cff0ef          	jal	ra,0xbf84
    cafc:	000c0513          	mv	a0,s8
    cb00:	a39f70ef          	jal	ra,0x4538
    cb04:	fa9ff06f          	j	0xcaac
    cb08:	c14ff0ef          	jal	ra,0xbf1c
    cb0c:	02c45703          	lhu	a4,44(s0)
    cb10:	00813683          	ld	a3,8(sp)
    cb14:	0005079b          	sext.w	a5,a0
    cb18:	01400613          	li	a2,20
    cb1c:	01400593          	li	a1,20
    cb20:	000b0513          	mv	a0,s6
    cb24:	a15f70ef          	jal	ra,0x4538
    cb28:	f85ff06f          	j	0xcaac
    cb2c:	f4010113          	addi	sp,sp,-192
    cb30:	00200513          	li	a0,2
    cb34:	0a113c23          	sd	ra,184(sp)
    cb38:	0a913423          	sd	s1,168(sp)
    cb3c:	09513423          	sd	s5,136(sp)
    cb40:	09613023          	sd	s6,128(sp)
    cb44:	07713c23          	sd	s7,120(sp)
    cb48:	07813823          	sd	s8,112(sp)
    cb4c:	0a813823          	sd	s0,176(sp)
    cb50:	0b213023          	sd	s2,160(sp)
    cb54:	09313c23          	sd	s3,152(sp)
    cb58:	09413823          	sd	s4,144(sp)
    cb5c:	819f60ef          	jal	ra,0x3374
    cb60:	00850513          	addi	a0,a0,8
    cb64:	00200793          	li	a5,2
    cb68:	00003617          	auipc	a2,0x3
    cb6c:	6a060613          	addi	a2,a2,1696 # 0x10208
    cb70:	01400593          	li	a1,20
    cb74:	00a13823          	sd	a0,16(sp)
    cb78:	02f10023          	sb	a5,32(sp)
    cb7c:	00003517          	auipc	a0,0x3
    cb80:	69c50513          	addi	a0,a0,1692 # 0x10218
    cb84:	00800793          	li	a5,8
    cb88:	03010a93          	addi	s5,sp,48
    cb8c:	02f12223          	sw	a5,36(sp)
    cb90:	01513c23          	sd	s5,24(sp)
    cb94:	02012423          	sw	zero,40(sp)
    cb98:	9a1f70ef          	jal	ra,0x4538
    cb9c:	dfcff0ef          	jal	ra,0xc198
    cba0:	00003517          	auipc	a0,0x3
    cba4:	69850513          	addi	a0,a0,1688 # 0x10238
    cba8:	991f70ef          	jal	ra,0x4538
    cbac:	00000493          	li	s1,0
    cbb0:	00003b17          	auipc	s6,0x3
    cbb4:	6b0b0b13          	addi	s6,s6,1712 # 0x10260
    cbb8:	00003b97          	auipc	s7,0x3
    cbbc:	698b8b93          	addi	s7,s7,1688 # 0x10250
    cbc0:	00003c17          	auipc	s8,0x3
    cbc4:	278c0c13          	addi	s8,s8,632 # 0xfe38
    cbc8:	00048513          	mv	a0,s1
    cbcc:	01010593          	addi	a1,sp,16
    cbd0:	ce8ff0ef          	jal	ra,0xc0b8
    cbd4:	00050493          	mv	s1,a0
    cbd8:	000a8a13          	mv	s4,s5
    cbdc:	00000993          	li	s3,0
    cbe0:	02812783          	lw	a5,40(sp)
    cbe4:	02f9ce63          	blt	s3,a5,0xcc20
    cbe8:	fe0490e3          	bnez	s1,0xcbc8
    cbec:	0b813083          	ld	ra,184(sp)
    cbf0:	0b013403          	ld	s0,176(sp)
    cbf4:	0a813483          	ld	s1,168(sp)
    cbf8:	0a013903          	ld	s2,160(sp)
    cbfc:	09813983          	ld	s3,152(sp)
    cc00:	09013a03          	ld	s4,144(sp)
    cc04:	08813a83          	ld	s5,136(sp)
    cc08:	08013b03          	ld	s6,128(sp)
    cc0c:	07813b83          	ld	s7,120(sp)
    cc10:	07013c03          	ld	s8,112(sp)
    cc14:	00000513          	li	a0,0
    cc18:	0c010113          	addi	sp,sp,192
    cc1c:	00008067          	ret
    cc20:	000a3403          	ld	s0,0(s4)
    cc24:	c50f30ef          	jal	ra,0x74
    cc28:	02014703          	lbu	a4,32(sp)
    cc2c:	ffc44783          	lbu	a5,-4(s0)
    cc30:	07f7f793          	andi	a5,a5,127
    cc34:	00f70a63          	beq	a4,a5,0xcc48
    cc38:	c44f30ef          	jal	ra,0x7c
    cc3c:	0019899b          	addiw	s3,s3,1
    cc40:	008a0a13          	addi	s4,s4,8
    cc44:	f9dff06f          	j	0xcbe0
    cc48:	c34f30ef          	jal	ra,0x7c
    cc4c:	01043783          	ld	a5,16(s0)
    cc50:	fe840693          	addi	a3,s0,-24
    cc54:	01040913          	addi	s2,s0,16
    cc58:	00d13423          	sd	a3,8(sp)
    cc5c:	00090513          	mv	a0,s2
    cc60:	02f90c63          	beq	s2,a5,0xcc98
    cc64:	ab8ff0ef          	jal	ra,0xbf1c
    cc68:	02045703          	lhu	a4,32(s0)
    cc6c:	00813683          	ld	a3,8(sp)
    cc70:	0005079b          	sext.w	a5,a0
    cc74:	01400613          	li	a2,20
    cc78:	01400593          	li	a1,20
    cc7c:	000b8513          	mv	a0,s7
    cc80:	8b9f70ef          	jal	ra,0x4538
    cc84:	00090513          	mv	a0,s2
    cc88:	afcff0ef          	jal	ra,0xbf84
    cc8c:	000c0513          	mv	a0,s8
    cc90:	8a9f70ef          	jal	ra,0x4538
    cc94:	fa9ff06f          	j	0xcc3c
    cc98:	a84ff0ef          	jal	ra,0xbf1c
    cc9c:	02045703          	lhu	a4,32(s0)
    cca0:	00813683          	ld	a3,8(sp)
    cca4:	0005079b          	sext.w	a5,a0
    cca8:	01400613          	li	a2,20
    ccac:	01400593          	li	a1,20
    ccb0:	000b0513          	mv	a0,s6
    ccb4:	885f70ef          	jal	ra,0x4538
    ccb8:	f85ff06f          	j	0xcc3c
    ccbc:	f4010113          	addi	sp,sp,-192
    ccc0:	00500513          	li	a0,5
    ccc4:	0a113c23          	sd	ra,184(sp)
    ccc8:	0a913423          	sd	s1,168(sp)
    cccc:	09513423          	sd	s5,136(sp)
    ccd0:	09613023          	sd	s6,128(sp)
    ccd4:	07713c23          	sd	s7,120(sp)
    ccd8:	07813823          	sd	s8,112(sp)
    ccdc:	0a813823          	sd	s0,176(sp)
    cce0:	0b213023          	sd	s2,160(sp)
    cce4:	09313c23          	sd	s3,152(sp)
    cce8:	09413823          	sd	s4,144(sp)
    ccec:	e88f60ef          	jal	ra,0x3374
    ccf0:	00850513          	addi	a0,a0,8
    ccf4:	00500793          	li	a5,5
    ccf8:	00003617          	auipc	a2,0x3
    ccfc:	57860613          	addi	a2,a2,1400 # 0x10270
    cd00:	01400593          	li	a1,20
    cd04:	00a13823          	sd	a0,16(sp)
    cd08:	02f10023          	sb	a5,32(sp)
    cd0c:	00003517          	auipc	a0,0x3
    cd10:	56c50513          	addi	a0,a0,1388 # 0x10278
    cd14:	00800793          	li	a5,8
    cd18:	03010a93          	addi	s5,sp,48
    cd1c:	02f12223          	sw	a5,36(sp)
    cd20:	01513c23          	sd	s5,24(sp)
    cd24:	02012423          	sw	zero,40(sp)
    cd28:	811f70ef          	jal	ra,0x4538
    cd2c:	c6cff0ef          	jal	ra,0xc198
    cd30:	00003517          	auipc	a0,0x3
    cd34:	57050513          	addi	a0,a0,1392 # 0x102a0
    cd38:	801f70ef          	jal	ra,0x4538
    cd3c:	00000493          	li	s1,0
    cd40:	00003b17          	auipc	s6,0x3
    cd44:	598b0b13          	addi	s6,s6,1432 # 0x102d8
    cd48:	00003b97          	auipc	s7,0x3
    cd4c:	578b8b93          	addi	s7,s7,1400 # 0x102c0
    cd50:	00003c17          	auipc	s8,0x3
    cd54:	0e8c0c13          	addi	s8,s8,232 # 0xfe38
    cd58:	00048513          	mv	a0,s1
    cd5c:	01010593          	addi	a1,sp,16
    cd60:	b58ff0ef          	jal	ra,0xc0b8
    cd64:	00050493          	mv	s1,a0
    cd68:	000a8a13          	mv	s4,s5
    cd6c:	00000993          	li	s3,0
    cd70:	02812783          	lw	a5,40(sp)
    cd74:	02f9ce63          	blt	s3,a5,0xcdb0
    cd78:	fe0490e3          	bnez	s1,0xcd58
    cd7c:	0b813083          	ld	ra,184(sp)
    cd80:	0b013403          	ld	s0,176(sp)
    cd84:	0a813483          	ld	s1,168(sp)
    cd88:	0a013903          	ld	s2,160(sp)
    cd8c:	09813983          	ld	s3,152(sp)
    cd90:	09013a03          	ld	s4,144(sp)
    cd94:	08813a83          	ld	s5,136(sp)
    cd98:	08013b03          	ld	s6,128(sp)
    cd9c:	07813b83          	ld	s7,120(sp)
    cda0:	07013c03          	ld	s8,112(sp)
    cda4:	00000513          	li	a0,0
    cda8:	0c010113          	addi	sp,sp,192
    cdac:	00008067          	ret
    cdb0:	000a3403          	ld	s0,0(s4)
    cdb4:	ac0f30ef          	jal	ra,0x74
    cdb8:	02014703          	lbu	a4,32(sp)
    cdbc:	ffc44783          	lbu	a5,-4(s0)
    cdc0:	07f7f793          	andi	a5,a5,127
    cdc4:	00f70a63          	beq	a4,a5,0xcdd8
    cdc8:	ab4f30ef          	jal	ra,0x7c
    cdcc:	0019899b          	addiw	s3,s3,1
    cdd0:	008a0a13          	addi	s4,s4,8
    cdd4:	f9dff06f          	j	0xcd70
    cdd8:	aa4f30ef          	jal	ra,0x7c
    cddc:	01043783          	ld	a5,16(s0)
    cde0:	fe840693          	addi	a3,s0,-24
    cde4:	01040913          	addi	s2,s0,16
    cde8:	00d13423          	sd	a3,8(sp)
    cdec:	00090513          	mv	a0,s2
    cdf0:	02f90e63          	beq	s2,a5,0xce2c
    cdf4:	928ff0ef          	jal	ra,0xbf1c
    cdf8:	02845783          	lhu	a5,40(s0)
    cdfc:	02a45703          	lhu	a4,42(s0)
    ce00:	00813683          	ld	a3,8(sp)
    ce04:	0005081b          	sext.w	a6,a0
    ce08:	01400613          	li	a2,20
    ce0c:	01400593          	li	a1,20
    ce10:	000b8513          	mv	a0,s7
    ce14:	f24f70ef          	jal	ra,0x4538
    ce18:	00090513          	mv	a0,s2
    ce1c:	968ff0ef          	jal	ra,0xbf84
    ce20:	000c0513          	mv	a0,s8
    ce24:	f14f70ef          	jal	ra,0x4538
    ce28:	fa5ff06f          	j	0xcdcc
    ce2c:	8f0ff0ef          	jal	ra,0xbf1c
    ce30:	02845783          	lhu	a5,40(s0)
    ce34:	02a45703          	lhu	a4,42(s0)
    ce38:	00813683          	ld	a3,8(sp)
    ce3c:	0005081b          	sext.w	a6,a0
    ce40:	01400613          	li	a2,20
    ce44:	01400593          	li	a1,20
    ce48:	000b0513          	mv	a0,s6
    ce4c:	eecf70ef          	jal	ra,0x4538
    ce50:	f7dff06f          	j	0xcdcc
    ce54:	f5010113          	addi	sp,sp,-176
    ce58:	00800513          	li	a0,8
    ce5c:	0a113423          	sd	ra,168(sp)
    ce60:	08913c23          	sd	s1,152(sp)
    ce64:	07513c23          	sd	s5,120(sp)
    ce68:	07613823          	sd	s6,112(sp)
    ce6c:	07713423          	sd	s7,104(sp)
    ce70:	07813023          	sd	s8,96(sp)
    ce74:	0a813023          	sd	s0,160(sp)
    ce78:	09213823          	sd	s2,144(sp)
    ce7c:	09313423          	sd	s3,136(sp)
    ce80:	09413023          	sd	s4,128(sp)
    ce84:	cf0f60ef          	jal	ra,0x3374
    ce88:	00850513          	addi	a0,a0,8
    ce8c:	00800793          	li	a5,8
    ce90:	00003617          	auipc	a2,0x3
    ce94:	46060613          	addi	a2,a2,1120 # 0x102f0
    ce98:	01400593          	li	a1,20
    ce9c:	00a13023          	sd	a0,0(sp)
    cea0:	00f10823          	sb	a5,16(sp)
    cea4:	00003517          	auipc	a0,0x3
    cea8:	45450513          	addi	a0,a0,1108 # 0x102f8
    ceac:	00800793          	li	a5,8
    ceb0:	02010a93          	addi	s5,sp,32
    ceb4:	00f12a23          	sw	a5,20(sp)
    ceb8:	01513423          	sd	s5,8(sp)
    cebc:	00012c23          	sw	zero,24(sp)
    cec0:	e78f70ef          	jal	ra,0x4538
    cec4:	ad4ff0ef          	jal	ra,0xc198
    cec8:	00003517          	auipc	a0,0x3
    cecc:	45850513          	addi	a0,a0,1112 # 0x10320
    ced0:	e68f70ef          	jal	ra,0x4538
    ced4:	00000493          	li	s1,0
    ced8:	00003b17          	auipc	s6,0x3
    cedc:	490b0b13          	addi	s6,s6,1168 # 0x10368
    cee0:	00003b97          	auipc	s7,0x3
    cee4:	468b8b93          	addi	s7,s7,1128 # 0x10348
    cee8:	00003c17          	auipc	s8,0x3
    ceec:	f50c0c13          	addi	s8,s8,-176 # 0xfe38
    cef0:	00048513          	mv	a0,s1
    cef4:	00010593          	mv	a1,sp
    cef8:	9c0ff0ef          	jal	ra,0xc0b8
    cefc:	00050493          	mv	s1,a0
    cf00:	000a8a13          	mv	s4,s5
    cf04:	00000993          	li	s3,0
    cf08:	01812783          	lw	a5,24(sp)
    cf0c:	02f9ce63          	blt	s3,a5,0xcf48
    cf10:	fe0490e3          	bnez	s1,0xcef0
    cf14:	0a813083          	ld	ra,168(sp)
    cf18:	0a013403          	ld	s0,160(sp)
    cf1c:	09813483          	ld	s1,152(sp)
    cf20:	09013903          	ld	s2,144(sp)
    cf24:	08813983          	ld	s3,136(sp)
    cf28:	08013a03          	ld	s4,128(sp)
    cf2c:	07813a83          	ld	s5,120(sp)
    cf30:	07013b03          	ld	s6,112(sp)
    cf34:	06813b83          	ld	s7,104(sp)
    cf38:	06013c03          	ld	s8,96(sp)
    cf3c:	00000513          	li	a0,0
    cf40:	0b010113          	addi	sp,sp,176
    cf44:	00008067          	ret
    cf48:	000a3403          	ld	s0,0(s4)
    cf4c:	928f30ef          	jal	ra,0x74
    cf50:	01014703          	lbu	a4,16(sp)
    cf54:	ffc44783          	lbu	a5,-4(s0)
    cf58:	07f7f793          	andi	a5,a5,127
    cf5c:	00f70a63          	beq	a4,a5,0xcf70
    cf60:	91cf30ef          	jal	ra,0x7c
    cf64:	0019899b          	addiw	s3,s3,1
    cf68:	008a0a13          	addi	s4,s4,8
    cf6c:	f9dff06f          	j	0xcf08
    cf70:	90cf30ef          	jal	ra,0x7c
    cf74:	04043903          	ld	s2,64(s0)
    cf78:	00000893          	li	a7,0
    cf7c:	fe840693          	addi	a3,s0,-24
    cf80:	04040793          	addi	a5,s0,64
    cf84:	02f91c63          	bne	s2,a5,0xcfbc
    cf88:	02043703          	ld	a4,32(s0)
    cf8c:	03043783          	ld	a5,48(s0)
    cf90:	03843803          	ld	a6,56(s0)
    cf94:	02088a63          	beqz	a7,0xcfc8
    cf98:	01400613          	li	a2,20
    cf9c:	01400593          	li	a1,20
    cfa0:	000b8513          	mv	a0,s7
    cfa4:	d94f70ef          	jal	ra,0x4538
    cfa8:	00090513          	mv	a0,s2
    cfac:	fd9fe0ef          	jal	ra,0xbf84
    cfb0:	000c0513          	mv	a0,s8
    cfb4:	d84f70ef          	jal	ra,0x4538
    cfb8:	fadff06f          	j	0xcf64
    cfbc:	00093903          	ld	s2,0(s2)
    cfc0:	0018889b          	addiw	a7,a7,1
    cfc4:	fc1ff06f          	j	0xcf84
    cfc8:	00000893          	li	a7,0
    cfcc:	01400613          	li	a2,20
    cfd0:	01400593          	li	a1,20
    cfd4:	000b0513          	mv	a0,s6
    cfd8:	d60f70ef          	jal	ra,0x4538
    cfdc:	f89ff06f          	j	0xcf64
    cfe0:	6548                	ld	a0,136(a0)
    cfe2:	6c6c                	ld	a1,216(s0)
    cfe4:	6f572c6f          	jal	s8,0x7fed8
    cfe8:	6c72                	ld	s8,280(sp)
    cfea:	2164                	fld	fs1,192(a0)
    cfec:	000a                	c.slli	zero,0x2
    cfee:	0000                	unimp
    cff0:	6f50                	ld	a2,152(a4)
    cff2:	616c                	ld	a1,192(a0)
    cff4:	6972                	ld	s2,280(sp)
    cff6:	32322073          	csrs	mhpmevent3,tp
    cffa:	3a41                	addiw	s4,s4,-16
    cffc:	4952                	lw	s2,20(sp)
    cffe:	562d4353          	0x562d4353
    d002:	4d20                	lw	s0,88(a0)
    d004:	6c75                	lui	s8,0x1d
    d006:	6974                	ld	a3,208(a0)
    d008:	65726f63          	bltu	tp,s7,0xd666
    d00c:	5020                	lw	s0,96(s0)
    d00e:	7261                	lui	tp,0xffff8
    d010:	6c61                	lui	s8,0x18
    d012:	656c                	ld	a1,200(a0)
    d014:	206c                	fld	fa1,192(s0)
    d016:	654e                	ld	a0,208(sp)
    d018:	7275                	lui	tp,0xffffd
    d01a:	726f6d6f          	jal	s10,0x103740
    d01e:	6870                	ld	a2,208(s0)
    d020:	6369                	lui	t1,0x1a
    d022:	5020                	lw	s0,96(s0)
    d024:	6f72                	ld	t5,280(sp)
    d026:	73736563          	bltu	t1,s7,0xd750
    d02a:	0a21726f          	jal	tp,0x240cc
    d02e:	0000                	unimp
    d030:	69726573          	csrrsi	a0,0x697,4
    d034:	6c61                	lui	s8,0x18
    d036:	2120                	fld	fs0,64(a0)
    d038:	203d                	0x203d
    d03a:	5452                	lw	s0,52(sp)
    d03c:	4e5f 4c55 004c      	0x4c4c554e5f
    d042:	0000                	unimp
    d044:	0000                	unimp
    d046:	0000                	unimp
    d048:	6175                	addi	sp,sp,368
    d04a:	7472                	ld	s0,312(sp)
    d04c:	2120                	fld	fs0,64(a0)
    d04e:	203d                	0x203d
    d050:	5452                	lw	s0,52(sp)
    d052:	4e5f 4c55 004c      	0x4c4c554e5f
    d058:	6175                	addi	sp,sp,368
    d05a:	7472                	ld	s0,312(sp)
    d05c:	0000                	unimp
    d05e:	0000                	unimp
    d060:	7472                	ld	s0,312(sp)
    d062:	755f 7261 5f74      	0x5f747261755f
    d068:	666e6f63          	bltu	t3,t1,0xd6e6
    d06c:	6769                	lui	a4,0x1a
    d06e:	7275                	lui	tp,0xffffd
    d070:	0065                	c.nop	25
    d072:	0000                	unimp
    d074:	0000                	unimp
    d076:	0000                	unimp
    d078:	6175                	addi	sp,sp,368
    d07a:	7472                	ld	s0,312(sp)
    d07c:	635f 6e6f 7274      	0x72746e6f635f
    d082:	00006c6f          	jal	s8,0x13082
    d086:	0000                	unimp
    d088:	0360                	addi	s0,sp,396
    d08a:	0000                	unimp
    d08c:	0000                	unimp
    d08e:	0000                	unimp
    d090:	03bc                	addi	a5,sp,456
    d092:	0000                	unimp
    d094:	0000                	unimp
    d096:	0000                	unimp
    d098:	02f8                	addi	a4,sp,332
    d09a:	0000                	unimp
    d09c:	0000                	unimp
    d09e:	0000                	unimp
    d0a0:	0340                	addi	s0,sp,388
	...
    d0ae:	0000                	unimp
    d0b0:	6568                	ld	a0,200(a0)
    d0b2:	7061                	c.lui	zero,0xffff8
    d0b4:	203a                	fld	ft0,392(sp)
    d0b6:	2578305b          	0x2578305b
    d0ba:	3830                	fld	fa2,112(s0)
    d0bc:	2078                	fld	fa4,192(s0)
    d0be:	202d                	0x202d
    d0c0:	7830                	ld	a2,112(s0)
    d0c2:	3025                	0x3025
    d0c4:	7838                	ld	a4,112(s0)
    d0c6:	0a5d                	addi	s4,s4,23
	...
    d0d0:	6572                	ld	a0,280(sp)
    d0d2:	20746573          	csrrsi	a0,0x207,8
    d0d6:	616d                	addi	sp,sp,240
    d0d8:	6e696863          	bltu	s2,t1,0xd7c8
    d0dc:	0065                	c.nop	25
    d0de:	0000                	unimp
    d0e0:	5f5f 6d63 5f64      	0x5f646d635f5f
    d0e6:	6572                	ld	a0,280(sp)
    d0e8:	6f62                	ld	t5,24(sp)
    d0ea:	0000746f          	jal	s0,0x140ea
    d0ee:	0000                	unimp
    d0f0:	6f74                	ld	a3,216(a4)
    d0f2:	6174                	ld	a3,192(a0)
    d0f4:	206c                	fld	fa1,192(s0)
    d0f6:	656d                	lui	a0,0x1b
    d0f8:	6f6d                	lui	t5,0x1b
    d0fa:	7972                	ld	s2,312(sp)
    d0fc:	203a                	fld	ft0,392(sp)
    d0fe:	6425                	lui	s0,0x9
    d100:	000a                	c.slli	zero,0x2
    d102:	0000                	unimp
    d104:	0000                	unimp
    d106:	0000                	unimp
    d108:	7375                	lui	t1,0xffffd
    d10a:	6465                	lui	s0,0x19
    d10c:	6d20                	ld	s0,88(a0)
    d10e:	6d65                	lui	s10,0x19
    d110:	2079726f          	jal	tp,0xa4b16
    d114:	203a                	fld	ft0,392(sp)
    d116:	6425                	lui	s0,0x9
    d118:	000a                	c.slli	zero,0x2
    d11a:	0000                	unimp
    d11c:	0000                	unimp
    d11e:	0000                	unimp
    d120:	616d                	addi	sp,sp,240
    d122:	6978                	ld	a4,208(a0)
    d124:	756d                	lui	a0,0xffffb
    d126:	206d                	0x206d
    d128:	6c61                	lui	s8,0x18
    d12a:	6f6c                	ld	a1,216(a4)
    d12c:	65746163          	bltu	s0,s7,0xd76e
    d130:	2064                	fld	fs1,192(s0)
    d132:	656d                	lui	a0,0x1b
    d134:	6f6d                	lui	t5,0x1b
    d136:	7972                	ld	s2,312(sp)
    d138:	203a                	fld	ft0,392(sp)
    d13a:	6425                	lui	s0,0x9
    d13c:	000a                	c.slli	zero,0x2
    d13e:	0000                	unimp
    d140:	6d0a                	ld	s10,128(sp)
    d142:	6d65                	lui	s10,0x19
    d144:	2079726f          	jal	tp,0xa4b4a
    d148:	6568                	ld	a0,200(a0)
    d14a:	7061                	c.lui	zero,0xffff8
    d14c:	6120                	ld	s0,64(a0)
    d14e:	6464                	ld	s1,200(s0)
    d150:	6572                	ld	a0,280(sp)
    d152:	0a3a7373          	csrrci	t1,0xa3,20
    d156:	0000                	unimp
    d158:	6568                	ld	a0,200(a0)
    d15a:	7061                	c.lui	zero,0xffff8
    d15c:	705f 7274 203a      	0x203a7274705f
    d162:	7830                	ld	a2,112(s0)
    d164:	3025                	0x3025
    d166:	7838                	ld	a4,112(s0)
    d168:	000a                	c.slli	zero,0x2
    d16a:	0000                	unimp
    d16c:	0000                	unimp
    d16e:	0000                	unimp
    d170:	666c                	ld	a1,200(a2)
    d172:	6572                	ld	a0,280(sp)
    d174:	2065                	0x2065
    d176:	2020                	fld	fs0,64(s0)
    d178:	203a                	fld	ft0,392(sp)
    d17a:	7830                	ld	a2,112(s0)
    d17c:	3025                	0x3025
    d17e:	7838                	ld	a4,112(s0)
    d180:	000a                	c.slli	zero,0x2
    d182:	0000                	unimp
    d184:	0000                	unimp
    d186:	0000                	unimp
    d188:	6568                	ld	a0,200(a0)
    d18a:	7061                	c.lui	zero,0xffff8
    d18c:	655f 646e 203a      	0x203a646e655f
    d192:	7830                	ld	a2,112(s0)
    d194:	3025                	0x3025
    d196:	7838                	ld	a4,112(s0)
    d198:	000a                	c.slli	zero,0x2
    d19a:	0000                	unimp
    d19c:	0000                	unimp
    d19e:	0000                	unimp
    d1a0:	2d0a                	fld	fs10,128(sp)
    d1a2:	6d2d                	lui	s10,0xb
    d1a4:	6d65                	lui	s10,0x19
    d1a6:	2079726f          	jal	tp,0xa4bac
    d1aa:	7469                	lui	s0,0xffffa
    d1ac:	6d65                	lui	s10,0x19
    d1ae:	6920                	ld	s0,80(a0)
    d1b0:	666e                	ld	a2,216(sp)
    d1b2:	616d726f          	jal	tp,0xe47c8
    d1b6:	6974                	ld	a3,208(a0)
    d1b8:	2d206e6f          	jal	t3,0x1348a
    d1bc:	0a2d                	addi	s4,s4,11
    d1be:	0000                	unimp
    d1c0:	2578305b          	0x2578305b
    d1c4:	3830                	fld	fa2,112(s0)
    d1c6:	2078                	fld	fa4,192(s0)
    d1c8:	202d                	0x202d
    d1ca:	0000                	unimp
    d1cc:	0000                	unimp
    d1ce:	0000                	unimp
    d1d0:	3525                	addiw	a0,a0,-23
    d1d2:	0064                	addi	s1,sp,12
    d1d4:	0000                	unimp
    d1d6:	0000                	unimp
    d1d8:	3425                	addiw	s0,s0,-23
    d1da:	4b64                	lw	s1,84(a4)
    d1dc:	0000                	unimp
    d1de:	0000                	unimp
    d1e0:	3425                	addiw	s0,s0,-23
    d1e2:	4d64                	lw	s1,92(a0)
    d1e4:	0000                	unimp
    d1e6:	0000                	unimp
    d1e8:	205d                	0x205d
    d1ea:	6325                	lui	t1,0x9
    d1ec:	6325                	lui	t1,0x9
    d1ee:	6325                	lui	t1,0x9
    d1f0:	6325                	lui	t1,0x9
    d1f2:	0000                	unimp
    d1f4:	0000                	unimp
    d1f6:	0000                	unimp
    d1f8:	203a                	fld	ft0,392(sp)
    d1fa:	2a2a                	fld	fs4,136(sp)
    d1fc:	0a2a                	slli	s4,s4,0xa
    d1fe:	0000                	unimp
    d200:	7228                	ld	a0,96(a2)
    d202:	5f74                	lw	a3,124(a4)
    d204:	6975                	lui	s2,0x1d
    d206:	746e                	ld	s0,248(sp)
    d208:	5f38                	lw	a4,120(a4)
    d20a:	2074                	fld	fa3,192(s0)
    d20c:	292a                	fld	fs2,136(sp)
    d20e:	656d                	lui	a0,0x1b
    d210:	206d                	0x206d
    d212:	3d3e                	fld	fs10,488(sp)
    d214:	6820                	ld	s0,80(s0)
    d216:	6165                	addi	sp,sp,112
    d218:	5f70                	lw	a2,124(a4)
    d21a:	7470                	ld	a2,232(s0)
    d21c:	0072                	c.slli	zero,0x1c
    d21e:	0000                	unimp
    d220:	7228                	ld	a0,96(a2)
    d222:	5f74                	lw	a3,124(a4)
    d224:	6975                	lui	s2,0x1d
    d226:	746e                	ld	s0,248(sp)
    d228:	5f38                	lw	a4,120(a4)
    d22a:	2074                	fld	fa3,192(s0)
    d22c:	292a                	fld	fs2,136(sp)
    d22e:	656d                	lui	a0,0x1b
    d230:	206d                	0x206d
    d232:	203c                	fld	fa5,64(s0)
    d234:	7228                	ld	a0,96(a2)
    d236:	5f74                	lw	a3,124(a4)
    d238:	6975                	lui	s2,0x1d
    d23a:	746e                	ld	s0,248(sp)
    d23c:	5f38                	lw	a4,120(a4)
    d23e:	2074                	fld	fa3,192(s0)
    d240:	292a                	fld	fs2,136(sp)
    d242:	6568                	ld	a0,200(a0)
    d244:	7061                	c.lui	zero,0xffff8
    d246:	655f 646e 0000      	0x646e655f
    d24c:	0000                	unimp
    d24e:	0000                	unimp
    d250:	656d                	lui	a0,0x1b
    d252:	2d6d                	addiw	s10,s10,27
    d254:	753e                	ld	a0,488(sp)
    d256:	20646573          	csrrsi	a0,0x206,8
    d25a:	3d3d                	addiw	s10,s10,-17
    d25c:	3020                	fld	fs0,96(s0)
    d25e:	0000                	unimp
    d260:	654d                	lui	a0,0x13
    d262:	6f6d                	lui	t5,0x1b
    d264:	7972                	ld	s2,312(sp)
    d266:	6220                	ld	s0,64(a2)
    d268:	6f6c                	ld	a1,216(a4)
    d26a:	77206b63          	bltu	zero,s2,0xd9e0
    d26e:	6f72                	ld	t5,280(sp)
    d270:	676e                	ld	a4,216(sp)
    d272:	0a3a                	slli	s4,s4,0xe
    d274:	0000                	unimp
    d276:	0000                	unimp
    d278:	6461                	lui	s0,0x18
    d27a:	7264                	ld	s1,224(a2)
    d27c:	7365                	lui	t1,0xffff9
    d27e:	30203a73          	csrrc	s4,medeleg,zero
    d282:	2578                	fld	fa4,200(a0)
    d284:	3830                	fld	fa2,112(s0)
    d286:	0a78                	addi	a4,sp,284
	...
    d290:	2020                	fld	fs0,64(s0)
    d292:	616d                	addi	sp,sp,240
    d294:	3a636967          	0x3a636967
    d298:	3020                	fld	fs0,96(s0)
    d29a:	2578                	fld	fa4,200(a0)
    d29c:	3430                	fld	fa2,104(s0)
    d29e:	0a78                	addi	a4,sp,284
	...
    d2a8:	2020                	fld	fs0,64(s0)
    d2aa:	7520                	ld	s0,104(a0)
    d2ac:	3a646573          	csrrsi	a0,0x3a6,8
    d2b0:	2520                	fld	fs0,72(a0)
    d2b2:	0a64                	addi	s1,sp,284
    d2b4:	0000                	unimp
    d2b6:	0000                	unimp
    d2b8:	2020                	fld	fs0,64(s0)
    d2ba:	657a6973          	csrrsi	s2,0x657,20
    d2be:	203a                	fld	ft0,392(sp)
    d2c0:	6425                	lui	s0,0x9
    d2c2:	000a                	c.slli	zero,0x2
    d2c4:	0000                	unimp
    d2c6:	0000                	unimp
    d2c8:	7546                	ld	a0,112(sp)
    d2ca:	636e                	ld	t1,216(sp)
    d2cc:	6974                	ld	a3,208(a0)
    d2ce:	255b6e6f          	jal	t3,0xc3d22
    d2d2:	73205d73          	csrrwi	s10,0x732,0
    d2d6:	6168                	ld	a0,192(a0)
    d2d8:	6c6c                	ld	a1,216(s0)
    d2da:	6e20                	ld	s0,88(a2)
    d2dc:	6220746f          	jal	s0,0x148fe
    d2e0:	2065                	0x2065
    d2e2:	7375                	lui	t1,0xffffd
    d2e4:	6465                	lui	s0,0x19
    d2e6:	6920                	ld	s0,80(a0)
    d2e8:	206e                	fld	ft0,216(sp)
    d2ea:	5349                	li	t1,-14
    d2ec:	0a52                	slli	s4,s4,0x14
    d2ee:	0000                	unimp
    d2f0:	0030                	addi	a2,sp,8
    d2f2:	0000                	unimp
    d2f4:	0000                	unimp
    d2f6:	0000                	unimp
    d2f8:	4e49                	li	t3,18
    d2fa:	5449                	li	s0,-14
    d2fc:	0000                	unimp
    d2fe:	0000                	unimp
    d300:	6568                	ld	a0,200(a0)
    d302:	7061                	c.lui	zero,0xffff8
    d304:	0000                	unimp
    d306:	0000                	unimp
    d308:	656d                	lui	a0,0x1b
    d30a:	206d                	0x206d
    d30c:	6e69                	lui	t3,0x1a
    d30e:	7469                	lui	s0,0xffffa
    d310:	202c                	fld	fa1,64(s0)
    d312:	7265                	lui	tp,0xffff9
    d314:	6f72                	ld	t5,280(sp)
    d316:	2072                	fld	ft0,280(sp)
    d318:	6562                	ld	a0,24(sp)
    d31a:	206e6967          	0x206e6967
    d31e:	6461                	lui	s0,0x18
    d320:	7264                	ld	s1,224(a2)
    d322:	7365                	lui	t1,0xffff9
    d324:	78302073          	csrr	zero,0x783
    d328:	7825                	lui	a6,0xfffe9
    d32a:	202c                	fld	fa1,64(s0)
    d32c:	6e61                	lui	t3,0x18
    d32e:	2064                	fld	fs1,192(s0)
    d330:	6e65                	lui	t3,0x19
    d332:	2064                	fld	fs1,192(s0)
    d334:	6461                	lui	s0,0x18
    d336:	7264                	ld	s1,224(a2)
    d338:	7365                	lui	t1,0xffff9
    d33a:	78302073          	csrr	zero,0x783
    d33e:	7825                	lui	a6,0xfffe9
    d340:	000a                	c.slli	zero,0x2
    d342:	0000                	unimp
    d344:	0000                	unimp
    d346:	0000                	unimp
    d348:	2020                	fld	fs0,64(s0)
    d34a:	2020                	fld	fs0,64(s0)
    d34c:	0000                	unimp
    d34e:	0000                	unimp
    d350:	4f4e                	lw	t5,208(sp)
    d352:	454e                	lw	a0,208(sp)
    d354:	0000                	unimp
    d356:	0000                	unimp
    d358:	7228                	ld	a0,96(a2)
    d35a:	5f74                	lw	a3,124(a4)
    d35c:	6275                	lui	tp,0x1d
    d35e:	7361                	lui	t1,0xffff8
    d360:	5f65                	li	t5,-7
    d362:	2974                	fld	fa3,208(a0)
    d364:	656d                	lui	a0,0x1b
    d366:	206d                	0x206d
    d368:	4953202b          	0x4953202b
    d36c:	455a                	lw	a0,148(sp)
    d36e:	535f464f          	fnmadd.d	fa2,ft10,fs5,fa0,rmm
    d372:	5254                	lw	a3,36(a2)
    d374:	4355                	li	t1,21
    d376:	5f54                	lw	a3,60(a4)
    d378:	454d                	li	a0,19
    d37a:	204d                	0x204d
    d37c:	6973202b          	0x6973202b
    d380:	657a                	ld	a0,408(sp)
    d382:	3c20                	fld	fs0,120(s0)
    d384:	203d                	0x203d
    d386:	7228                	ld	a0,96(a2)
    d388:	5f74                	lw	a3,124(a4)
    d38a:	6275                	lui	tp,0x1d
    d38c:	7361                	lui	t1,0xffff8
    d38e:	5f65                	li	t5,-7
    d390:	2974                	fld	fa3,208(a0)
    d392:	6568                	ld	a0,200(a0)
    d394:	7061                	c.lui	zero,0xffff8
    d396:	655f 646e 0000      	0x646e655f
    d39c:	0000                	unimp
    d39e:	0000                	unimp
    d3a0:	7228                	ld	a0,96(a2)
    d3a2:	5f74                	lw	a3,124(a4)
    d3a4:	6275                	lui	tp,0x1d
    d3a6:	7361                	lui	t1,0xffff8
    d3a8:	5f65                	li	t5,-7
    d3aa:	2974                	fld	fa3,208(a0)
    d3ac:	2828                	fld	fa0,80(s0)
    d3ae:	7472                	ld	s0,312(sp)
    d3b0:	755f 6e69 3874      	0x38746e69755f
    d3b6:	745f 2a20 6d29      	0x6d292a20745f
    d3bc:	6d65                	lui	s10,0x19
    d3be:	2b20                	fld	fs0,80(a4)
    d3c0:	5320                	lw	s0,96(a4)
    d3c2:	5a49                	li	s4,-14
    d3c4:	4f45                	li	t5,17
    d3c6:	5f46                	lw	t5,112(sp)
    d3c8:	55525453          	0x55525453
    d3cc:	4d5f5443          	0x4d5f5443
    d3d0:	4d45                	li	s10,17
    d3d2:	2029                	0x2029
    d3d4:	2025                	0x2025
    d3d6:	5452                	lw	s0,52(sp)
    d3d8:	415f 494c 4e47      	0x4e47494c415f
    d3de:	535f 5a49 2045      	0x20455a49535f
    d3e4:	3d3d                	addiw	s10,s10,-17
    d3e6:	3020                	fld	fs0,96(s0)
	...
    d3f0:	2828                	fld	fa0,80(s0)
    d3f2:	7228                	ld	a0,96(a2)
    d3f4:	5f74                	lw	a3,124(a4)
    d3f6:	6275                	lui	tp,0x1d
    d3f8:	7361                	lui	t1,0xffff8
    d3fa:	5f65                	li	t5,-7
    d3fc:	2974                	fld	fa3,208(a0)
    d3fe:	656d                	lui	a0,0x1b
    d400:	296d                	addiw	s2,s2,27
    d402:	2620                	fld	fs0,72(a2)
    d404:	2820                	fld	fs0,80(s0)
    d406:	5452                	lw	s0,52(sp)
    d408:	415f 494c 4e47      	0x4e47494c415f
    d40e:	535f 5a49 2045      	0x20455a49535f
    d414:	202d                	0x202d
    d416:	2931                	addiw	s2,s2,12
    d418:	2029                	0x2029
    d41a:	3d3d                	addiw	s10,s10,-17
    d41c:	3020                	fld	fs0,96(s0)
    d41e:	0000                	unimp
    d420:	2828                	fld	fa0,80(s0)
    d422:	7228                	ld	a0,96(a2)
    d424:	5f74                	lw	a3,124(a4)
    d426:	6275                	lui	tp,0x1d
    d428:	7361                	lui	t1,0xffff8
    d42a:	5f65                	li	t5,-7
    d42c:	2974                	fld	fa3,208(a0)
    d42e:	6d72                	ld	s10,280(sp)
    d430:	6d65                	lui	s10,0x19
    d432:	2029                	0x2029
    d434:	2026                	fld	ft0,72(sp)
    d436:	5228                	lw	a0,96(a2)
    d438:	5f54                	lw	a3,60(a4)
    d43a:	4c41                	li	s8,16
    d43c:	4749                	li	a4,18
    d43e:	5f4e                	lw	t5,240(sp)
    d440:	455a4953          	0x455a4953
    d444:	2d20                	fld	fs0,88(a0)
    d446:	3120                	fld	fs0,96(a0)
    d448:	2929                	addiw	s2,s2,10
    d44a:	3d20                	fld	fs0,120(a0)
    d44c:	203d                	0x203d
    d44e:	0030                	addi	a2,sp,8
    d450:	7228                	ld	a0,96(a2)
    d452:	5f74                	lw	a3,124(a4)
    d454:	6975                	lui	s2,0x1d
    d456:	746e                	ld	s0,248(sp)
    d458:	5f38                	lw	a4,120(a4)
    d45a:	2074                	fld	fa3,192(s0)
    d45c:	292a                	fld	fs2,136(sp)
    d45e:	6d72                	ld	s10,280(sp)
    d460:	6d65                	lui	s10,0x19
    d462:	3e20                	fld	fs0,120(a2)
    d464:	203d                	0x203d
    d466:	7228                	ld	a0,96(a2)
    d468:	5f74                	lw	a3,124(a4)
    d46a:	6975                	lui	s2,0x1d
    d46c:	746e                	ld	s0,248(sp)
    d46e:	5f38                	lw	a4,120(a4)
    d470:	2074                	fld	fa3,192(s0)
    d472:	292a                	fld	fs2,136(sp)
    d474:	6568                	ld	a0,200(a0)
    d476:	7061                	c.lui	zero,0xffff8
    d478:	705f 7274 2620      	0x26207274705f
    d47e:	2026                	fld	ft0,72(sp)
    d480:	7228                	ld	a0,96(a2)
    d482:	5f74                	lw	a3,124(a4)
    d484:	6975                	lui	s2,0x1d
    d486:	746e                	ld	s0,248(sp)
    d488:	5f38                	lw	a4,120(a4)
    d48a:	2074                	fld	fa3,192(s0)
    d48c:	292a                	fld	fs2,136(sp)
    d48e:	6d72                	ld	s10,280(sp)
    d490:	6d65                	lui	s10,0x19
    d492:	3c20                	fld	fs0,120(s0)
    d494:	2820                	fld	fs0,80(s0)
    d496:	7472                	ld	s0,312(sp)
    d498:	755f 6e69 3874      	0x38746e69755f
    d49e:	745f 2a20 6829      	0x68292a20745f
    d4a4:	6165                	addi	sp,sp,112
    d4a6:	5f70                	lw	a2,124(a4)
    d4a8:	6e65                	lui	t3,0x19
    d4aa:	0064                	addi	s1,sp,12
    d4ac:	0000                	unimp
    d4ae:	0000                	unimp
    d4b0:	6f74                	ld	a3,216(a4)
    d4b2:	6620                	ld	s0,72(a2)
    d4b4:	6572                	ld	a0,280(sp)
    d4b6:	2065                	0x2065
    d4b8:	2061                	0x2061
    d4ba:	6162                	ld	sp,24(sp)
    d4bc:	2064                	fld	fs1,192(s0)
    d4be:	6164                	ld	s1,192(a0)
    d4c0:	6174                	ld	a3,192(a0)
    d4c2:	6220                	ld	s0,64(a2)
    d4c4:	6f6c                	ld	a1,216(a4)
    d4c6:	0a3a6b63          	bltu	s4,gp,0xd57c
    d4ca:	0000                	unimp
    d4cc:	0000                	unimp
    d4ce:	0000                	unimp
    d4d0:	656d                	lui	a0,0x1b
    d4d2:	3a6d                	addiw	s4,s4,-5
    d4d4:	3020                	fld	fs0,96(s0)
    d4d6:	2578                	fld	fa4,200(a0)
    d4d8:	3830                	fld	fa2,112(s0)
    d4da:	2c78                	fld	fa4,216(s0)
    d4dc:	7520                	ld	s0,104(a0)
    d4de:	20646573          	csrrsi	a0,0x206,8
    d4e2:	6c66                	ld	s8,88(sp)
    d4e4:	6761                	lui	a4,0x18
    d4e6:	203a                	fld	ft0,392(sp)
    d4e8:	6425                	lui	s0,0x9
    d4ea:	202c                	fld	fa1,64(s0)
    d4ec:	616d                	addi	sp,sp,240
    d4ee:	20636967          	0x20636967
    d4f2:	65646f63          	bltu	s0,s6,0xdb50
    d4f6:	203a                	fld	ft0,392(sp)
    d4f8:	7830                	ld	a2,112(s0)
    d4fa:	3025                	0x3025
    d4fc:	7834                	ld	a3,112(s0)
    d4fe:	000a                	c.slli	zero,0x2
    d500:	656d                	lui	a0,0x1b
    d502:	2d6d                	addiw	s10,s10,27
    d504:	753e                	ld	a0,488(sp)
    d506:	00646573          	csrrsi	a0,0x6,8
    d50a:	0000                	unimp
    d50c:	0000                	unimp
    d50e:	0000                	unimp
    d510:	656d                	lui	a0,0x1b
    d512:	2d6d                	addiw	s10,s10,27
    d514:	6d3e                	ld	s10,456(sp)
    d516:	6761                	lui	a4,0x18
    d518:	6369                	lui	t1,0x1a
    d51a:	3d20                	fld	fs0,120(a0)
    d51c:	203d                	0x203d
    d51e:	4548                	lw	a0,12(a0)
    d520:	5041                	c.li	zero,-16
    d522:	4d5f 4741 4349      	0x434947414d5f
	...
    d530:	6c70                	ld	a2,216(s0)
    d532:	6775                	lui	a4,0x1d
    d534:	685f 6c6f 7365      	0x73656c6f685f
    d53a:	0000                	unimp
    d53c:	0000                	unimp
    d53e:	0000                	unimp
    d540:	7472                	ld	s0,312(sp)
    d542:	735f 7379 6574      	0x65747379735f
    d548:	5f6d                	li	t5,-5
    d54a:	6568                	ld	a0,200(a0)
    d54c:	7061                	c.lui	zero,0xffff8
    d54e:	695f 696e 0074      	0x74696e695f
    d554:	0000                	unimp
    d556:	0000                	unimp
    d558:	7472                	ld	s0,312(sp)
    d55a:	6d5f 6c61 6f6c      	0x6f6c6c616d5f
    d560:	00000063          	beqz	zero,0xd560
    d564:	0000                	unimp
    d566:	0000                	unimp
    d568:	7472                	ld	s0,312(sp)
    d56a:	725f 6165 6c6c      	0x6c6c6165725f
    d570:	0000636f          	jal	t1,0x13570
    d574:	0000                	unimp
    d576:	0000                	unimp
    d578:	7564                	ld	s1,232(a0)
    d57a:	706d                	c.lui	zero,0xffffb
    d57c:	6d20                	ld	s0,88(a0)
    d57e:	6d65                	lui	s10,0x19
    d580:	2079726f          	jal	tp,0xa4f86
    d584:	7274                	ld	a3,224(a2)
    d586:	6361                	lui	t1,0x18
    d588:	2065                	0x2065
    d58a:	6e69                	lui	t3,0x1a
    d58c:	6f66                	ld	t5,88(sp)
    d58e:	6d72                	ld	s10,280(sp)
    d590:	7461                	lui	s0,0xffff8
    d592:	6f69                	lui	t5,0x1a
    d594:	006e                	c.slli	zero,0x1b
    d596:	0000                	unimp
    d598:	5f5f 6d63 5f64      	0x5f646d635f5f
    d59e:	656d                	lui	a0,0x1b
    d5a0:	746d                	lui	s0,0xffffb
    d5a2:	6172                	ld	sp,280(sp)
    d5a4:	00006563          	bltu	zero,zero,0xd5ae
    d5a8:	63656863          	bltu	a0,s6,0xdbd8
    d5ac:	656d206b          	0x656d206b
    d5b0:	6f6d                	lui	t5,0x1b
    d5b2:	7972                	ld	s2,312(sp)
    d5b4:	6420                	ld	s0,72(s0)
    d5b6:	7461                	lui	s0,0xffff8
    d5b8:	0061                	c.nop	24
    d5ba:	0000                	unimp
    d5bc:	0000                	unimp
    d5be:	0000                	unimp
    d5c0:	5f5f 6d63 5f64      	0x5f646d635f5f
    d5c6:	656d                	lui	a0,0x1b
    d5c8:	636d                	lui	t1,0x1b
    d5ca:	6568                	ld	a0,200(a0)
    d5cc:	00006b63          	bltu	zero,zero,0xd5e2
    d5d0:	696c                	ld	a1,208(a0)
    d5d2:	6d207473          	csrrci	s0,0x6d2,0
    d5d6:	6d65                	lui	s10,0x19
    d5d8:	2079726f          	jal	tp,0xa4fde
    d5dc:	7375                	lui	t1,0xffffd
    d5de:	6761                	lui	a4,0x18
    d5e0:	2065                	0x2065
    d5e2:	6e69                	lui	t3,0x1a
    d5e4:	6f66                	ld	t5,88(sp)
    d5e6:	6d72                	ld	s10,280(sp)
    d5e8:	7461                	lui	s0,0xffff8
    d5ea:	6f69                	lui	t5,0x1a
    d5ec:	006e                	c.slli	zero,0x1b
    d5ee:	0000                	unimp
    d5f0:	696c                	ld	a1,208(a0)
    d5f2:	6d5f7473          	csrrci	s0,0x6d5,30
    d5f6:	6d65                	lui	s10,0x19
	...
    d600:	6974                	ld	a3,208(a0)
    d602:	656d                	lui	a0,0x1b
    d604:	2072                	fld	ft0,280(sp)
    d606:	3d21                	addiw	s10,s10,-24
    d608:	5220                	lw	s0,96(a2)
    d60a:	5f54                	lw	a3,60(a4)
    d60c:	554e                	lw	a0,240(sp)
    d60e:	4c4c                	lw	a1,28(s0)
	...
    d618:	7472                	ld	s0,312(sp)
    d61a:	6f5f 6a62 6365      	0x63656a626f5f
    d620:	5f74                	lw	a3,124(a4)
    d622:	5f746567          	0x5f746567
    d626:	7974                	ld	a3,240(a0)
    d628:	6570                	ld	a2,200(a0)
    d62a:	2628                	fld	fa0,72(a2)
    d62c:	6974                	ld	a3,208(a0)
    d62e:	656d                	lui	a0,0x1b
    d630:	2d72                	fld	fs10,280(sp)
    d632:	703e                	0x703e
    d634:	7261                	lui	tp,0xffff8
    d636:	6e65                	lui	t3,0x19
    d638:	2974                	fld	fa3,208(a0)
    d63a:	3d20                	fld	fs0,120(a0)
    d63c:	203d                	0x203d
    d63e:	5452                	lw	s0,52(sp)
    d640:	4f5f 6a62 6365      	0x63656a624f5f
    d646:	5f74                	lw	a3,124(a4)
    d648:	73616c43          	fmadd.d	fs8,ft2,fs6,fa4,unknown
    d64c:	69545f73          	csrrwi	t5,0x695,8
    d650:	656d                	lui	a0,0x1b
    d652:	0072                	c.slli	zero,0x1c
    d654:	0000                	unimp
    d656:	0000                	unimp
    d658:	7472                	ld	s0,312(sp)
    d65a:	6f5f 6a62 6365      	0x63656a626f5f
    d660:	5f74                	lw	a3,124(a4)
    d662:	7369                	lui	t1,0xffffa
    d664:	735f 7379 6574      	0x65747379735f
    d66a:	6f6d                	lui	t5,0x1b
    d66c:	6a62                	ld	s4,24(sp)
    d66e:	6365                	lui	t1,0x19
    d670:	2874                	fld	fa3,208(s0)
    d672:	7426                	ld	s0,104(sp)
    d674:	6d69                	lui	s10,0x1a
    d676:	7265                	lui	tp,0xffff9
    d678:	3e2d                	addiw	t3,t3,-21
    d67a:	6170                	ld	a2,192(a0)
    d67c:	6572                	ld	a0,280(sp)
    d67e:	746e                	ld	s0,248(sp)
    d680:	0029                	c.nop	10
    d682:	0000                	unimp
    d684:	0000                	unimp
    d686:	0000                	unimp
    d688:	6974                	ld	a3,208(a0)
    d68a:	656d                	lui	a0,0x1b
    d68c:	2d72                	fld	fs10,280(sp)
    d68e:	693e                	ld	s2,456(sp)
    d690:	696e                	ld	s2,216(sp)
    d692:	5f74                	lw	a3,124(a4)
    d694:	6974                	ld	a3,208(a0)
    d696:	3c206b63          	bltu	zero,sp,0xda6c
    d69a:	5220                	lw	s0,96(a2)
    d69c:	5f54                	lw	a3,60(a4)
    d69e:	4954                	lw	a3,20(a0)
    d6a0:	4d5f4b43          	0x4d5f4b43
    d6a4:	5841                	li	a6,-16
    d6a6:	2f20                	fld	fs0,88(a4)
    d6a8:	3220                	fld	fs0,96(a2)
    d6aa:	0000                	unimp
    d6ac:	4130                	lw	a2,64(a0)
    d6ae:	ffff                	0xffff
    d6b0:	4124                	lw	s1,64(a0)
    d6b2:	ffff                	0xffff
    d6b4:	4158                	lw	a4,4(a0)
    d6b6:	ffff                	0xffff
    d6b8:	4168                	lw	a0,68(a0)
    d6ba:	ffff                	0xffff
    d6bc:	4174                	lw	a3,68(a0)
    d6be:	ffff                	0xffff
    d6c0:	6974                	ld	a3,208(a0)
    d6c2:	656d                	lui	a0,0x1b
    d6c4:	0072                	c.slli	zero,0x1c
    d6c6:	0000                	unimp
    d6c8:	7472                	ld	s0,312(sp)
    d6ca:	745f 6d69 7265      	0x72656d69745f
    d6d0:	695f 696e 0074      	0x74696e695f
    d6d6:	0000                	unimp
    d6d8:	7472                	ld	s0,312(sp)
    d6da:	745f 6d69 7265      	0x72656d69745f
    d6e0:	645f 7465 6361      	0x63617465645f
    d6e6:	0068                	addi	a0,sp,12
    d6e8:	7472                	ld	s0,312(sp)
    d6ea:	745f 6d69 7265      	0x72656d69745f
    d6f0:	735f 6174 7472      	0x74726174735f
    d6f6:	0000                	unimp
    d6f8:	7472                	ld	s0,312(sp)
    d6fa:	745f 6d69 7265      	0x72656d69745f
    d700:	735f 6f74 0070      	0x706f74735f
    d706:	0000                	unimp
    d708:	7472                	ld	s0,312(sp)
    d70a:	745f 6d69 7265      	0x72656d69745f
    d710:	635f 6e6f 7274      	0x72746e6f635f
    d716:	00006c6f          	jal	s8,0x13716
    d71a:	0000                	unimp
    d71c:	0000                	unimp
    d71e:	0000                	unimp
    d720:	7270                	ld	a2,224(a2)
    d722:	6f69                	lui	t5,0x1a
    d724:	6972                	ld	s2,280(sp)
    d726:	7974                	ld	a3,240(a0)
    d728:	3c20                	fld	fs0,120(s0)
    d72a:	5220                	lw	s0,96(a2)
    d72c:	5f54                	lw	a3,60(a4)
    d72e:	4854                	lw	a3,20(s0)
    d730:	4552                	lw	a0,20(sp)
    d732:	4441                	li	s0,16
    d734:	505f 4952 524f      	0x524f4952505f
    d73a:	5449                	li	s0,-14
    d73c:	5f59                	li	t5,-10
    d73e:	414d                	li	sp,19
    d740:	0058                	addi	a4,sp,4
    d742:	0000                	unimp
    d744:	0000                	unimp
    d746:	0000                	unimp
    d748:	6874                	ld	a3,208(s0)
    d74a:	6572                	ld	a0,280(sp)
    d74c:	6461                	lui	s0,0x18
    d74e:	2120                	fld	fs0,64(a0)
    d750:	203d                	0x203d
    d752:	5452                	lw	s0,52(sp)
    d754:	4e5f 4c55 004c      	0x4c4c554e5f
    d75a:	0000                	unimp
    d75c:	0000                	unimp
    d75e:	0000                	unimp
    d760:	7428                	ld	a0,104(s0)
    d762:	7268                	ld	a0,224(a2)
    d764:	6165                	addi	sp,sp,112
    d766:	2d64                	fld	fs1,216(a0)
    d768:	733e                	ld	t1,488(sp)
    d76a:	6174                	ld	a3,192(a0)
    d76c:	2074                	fld	fa3,192(s0)
    d76e:	2026                	fld	ft0,72(sp)
    d770:	5452                	lw	s0,52(sp)
    d772:	545f 5248 4145      	0x41455248545f
    d778:	5f44                	lw	s1,60(a4)
    d77a:	54415453          	0x54415453
    d77e:	4d5f 5341 294b      	0x294b53414d5f
    d784:	3d20                	fld	fs0,120(a0)
    d786:	203d                	0x203d
    d788:	5452                	lw	s0,52(sp)
    d78a:	545f 5248 4145      	0x41455248545f
    d790:	5f44                	lw	s1,60(a4)
    d792:	50535553          	0x50535553
    d796:	4e45                	li	t3,17
    d798:	0044                	addi	s1,sp,4
    d79a:	0000                	unimp
    d79c:	0000                	unimp
    d79e:	0000                	unimp
    d7a0:	7472                	ld	s0,312(sp)
    d7a2:	6f5f 6a62 6365      	0x63656a626f5f
    d7a8:	5f74                	lw	a3,124(a4)
    d7aa:	5f746567          	0x5f746567
    d7ae:	7974                	ld	a3,240(a0)
    d7b0:	6570                	ld	a2,200(a0)
    d7b2:	2828                	fld	fa0,80(s0)
    d7b4:	7472                	ld	s0,312(sp)
    d7b6:	6f5f 6a62 6365      	0x63656a626f5f
    d7bc:	5f74                	lw	a3,124(a4)
    d7be:	2974                	fld	fa3,208(a0)
    d7c0:	6874                	ld	a3,208(s0)
    d7c2:	6572                	ld	a0,280(sp)
    d7c4:	6461                	lui	s0,0x18
    d7c6:	2029                	0x2029
    d7c8:	3d3d                	addiw	s10,s10,-17
    d7ca:	5220                	lw	s0,96(a2)
    d7cc:	5f54                	lw	a3,60(a4)
    d7ce:	656a624f          	0x656a624f
    d7d2:	435f7463          	bgeu	t5,s5,0xdbfa
    d7d6:	616c                	ld	a1,192(a0)
    d7d8:	545f7373          	csrrci	t1,0x545,30
    d7dc:	7268                	ld	a0,224(a2)
    d7de:	6165                	addi	sp,sp,112
    d7e0:	0064                	addi	s1,sp,12
    d7e2:	0000                	unimp
    d7e4:	0000                	unimp
    d7e6:	0000                	unimp
    d7e8:	63617473          	csrrci	s0,0x636,2
    d7ec:	74735f6b          	0x74735f6b
    d7f0:	7261                	lui	tp,0xffff8
    d7f2:	2074                	fld	fa3,192(s0)
    d7f4:	3d21                	addiw	s10,s10,-24
    d7f6:	5220                	lw	s0,96(a2)
    d7f8:	5f54                	lw	a3,60(a4)
    d7fa:	554e                	lw	a0,240(sp)
    d7fc:	4c4c                	lw	a1,28(s0)
    d7fe:	0000                	unimp
    d800:	7472                	ld	s0,312(sp)
    d802:	6f5f 6a62 6365      	0x63656a626f5f
    d808:	5f74                	lw	a3,124(a4)
    d80a:	7369                	lui	t1,0xffffa
    d80c:	735f 7379 6574      	0x65747379735f
    d812:	6f6d                	lui	t5,0x1b
    d814:	6a62                	ld	s4,24(sp)
    d816:	6365                	lui	t1,0x19
    d818:	2874                	fld	fa3,208(s0)
    d81a:	7228                	ld	a0,96(a2)
    d81c:	5f74                	lw	a3,124(a4)
    d81e:	656a626f          	jal	tp,0xb3e74
    d822:	745f7463          	bgeu	t5,t0,0xdf6a
    d826:	7429                	lui	s0,0xfffea
    d828:	7268                	ld	a0,224(a2)
    d82a:	6165                	addi	sp,sp,112
    d82c:	2964                	fld	fs1,208(a0)
    d82e:	0000                	unimp
    d830:	7472                	ld	s0,312(sp)
    d832:	6f5f 6a62 6365      	0x63656a626f5f
    d838:	5f74                	lw	a3,124(a4)
    d83a:	7369                	lui	t1,0xffffa
    d83c:	735f 7379 6574      	0x65747379735f
    d842:	6f6d                	lui	t5,0x1b
    d844:	6a62                	ld	s4,24(sp)
    d846:	6365                	lui	t1,0x19
    d848:	2874                	fld	fa3,208(s0)
    d84a:	7228                	ld	a0,96(a2)
    d84c:	5f74                	lw	a3,124(a4)
    d84e:	656a626f          	jal	tp,0xb3ea4
    d852:	745f7463          	bgeu	t5,t0,0xdf9a
    d856:	7429                	lui	s0,0xfffea
    d858:	7268                	ld	a0,224(a2)
    d85a:	6165                	addi	sp,sp,112
    d85c:	2964                	fld	fs1,208(a0)
    d85e:	3d20                	fld	fs0,120(a0)
    d860:	203d                	0x203d
    d862:	5452                	lw	s0,52(sp)
    d864:	465f 4c41 4553      	0x45534c41465f
    d86a:	0000                	unimp
    d86c:	0000                	unimp
    d86e:	0000                	unimp
    d870:	6874                	ld	a3,208(s0)
    d872:	6572                	ld	a0,280(sp)
    d874:	6461                	lui	s0,0x18
    d876:	3d20                	fld	fs0,120(a0)
    d878:	203d                	0x203d
    d87a:	7472                	ld	s0,312(sp)
    d87c:	745f 7268 6165      	0x61657268745f
    d882:	5f64                	lw	s1,124(a4)
    d884:	666c6573          	csrrsi	a0,0x666,24
    d888:	2928                	fld	fa0,80(a0)
    d88a:	0000                	unimp
    d88c:	0000                	unimp
    d88e:	0000                	unimp
    d890:	7428                	ld	a0,104(s0)
    d892:	7268                	ld	a0,224(a2)
    d894:	6165                	addi	sp,sp,112
    d896:	2d64                	fld	fs1,216(a0)
    d898:	733e                	ld	t1,488(sp)
    d89a:	6174                	ld	a3,192(a0)
    d89c:	2074                	fld	fa3,192(s0)
    d89e:	2026                	fld	ft0,72(sp)
    d8a0:	5452                	lw	s0,52(sp)
    d8a2:	545f 5248 4145      	0x41455248545f
    d8a8:	5f44                	lw	s1,60(a4)
    d8aa:	54415453          	0x54415453
    d8ae:	4d5f 5341 294b      	0x294b53414d5f
    d8b4:	3d20                	fld	fs0,120(a0)
    d8b6:	203d                	0x203d
    d8b8:	5452                	lw	s0,52(sp)
    d8ba:	545f 5248 4145      	0x41455248545f
    d8c0:	5f44                	lw	s1,60(a4)
    d8c2:	4e49                	li	t3,18
    d8c4:	5449                	li	s0,-14
    d8c6:	0000                	unimp
    d8c8:	725f 5f74 6874      	0x68745f74725f
    d8ce:	6572                	ld	a0,280(sp)
    d8d0:	6461                	lui	s0,0x18
    d8d2:	695f 696e 0074      	0x74696e695f
    d8d8:	7472                	ld	s0,312(sp)
    d8da:	745f 7268 6165      	0x61657268745f
    d8e0:	5f64                	lw	s1,124(a4)
    d8e2:	6e69                	lui	t3,0x1a
    d8e4:	7469                	lui	s0,0xffffa
    d8e6:	0000                	unimp
    d8e8:	7472                	ld	s0,312(sp)
    d8ea:	745f 7268 6165      	0x61657268745f
    d8f0:	5f64                	lw	s1,124(a4)
    d8f2:	72617473          	csrrci	s0,0x726,2
    d8f6:	7574                	ld	a3,232(a0)
    d8f8:	0070                	addi	a2,sp,12
    d8fa:	0000                	unimp
    d8fc:	0000                	unimp
    d8fe:	0000                	unimp
    d900:	7472                	ld	s0,312(sp)
    d902:	745f 7268 6165      	0x61657268745f
    d908:	5f64                	lw	s1,124(a4)
    d90a:	6564                	ld	s1,200(a0)
    d90c:	6174                	ld	a3,192(a0)
    d90e:	00006863          	bltu	zero,zero,0xd91e
    d912:	0000                	unimp
    d914:	0000                	unimp
    d916:	0000                	unimp
    d918:	7472                	ld	s0,312(sp)
    d91a:	745f 7268 6165      	0x61657268745f
    d920:	5f64                	lw	s1,124(a4)
    d922:	6564                	ld	s1,200(a0)
    d924:	656c                	ld	a1,200(a0)
    d926:	6574                	ld	a3,200(a0)
	...
    d930:	7472                	ld	s0,312(sp)
    d932:	745f 7268 6165      	0x61657268745f
    d938:	5f64                	lw	s1,124(a4)
    d93a:	65656c73          	csrrsi	s8,0x656,10
    d93e:	0070                	addi	a2,sp,12
    d940:	7472                	ld	s0,312(sp)
    d942:	745f 7268 6165      	0x61657268745f
    d948:	5f64                	lw	s1,124(a4)
    d94a:	746e6f63          	bltu	t3,t1,0xe0a8
    d94e:	6f72                	ld	t5,280(sp)
    d950:	006c                	addi	a1,sp,12
    d952:	0000                	unimp
    d954:	0000                	unimp
    d956:	0000                	unimp
    d958:	7472                	ld	s0,312(sp)
    d95a:	745f 7268 6165      	0x61657268745f
    d960:	5f64                	lw	s1,124(a4)
    d962:	70737573          	csrrci	a0,0x707,6
    d966:	6e65                	lui	t3,0x19
    d968:	0064                	addi	s1,sp,12
    d96a:	0000                	unimp
    d96c:	0000                	unimp
    d96e:	0000                	unimp
    d970:	7472                	ld	s0,312(sp)
    d972:	745f 7268 6165      	0x61657268745f
    d978:	5f64                	lw	s1,124(a4)
    d97a:	6572                	ld	a0,280(sp)
    d97c:	656d7573          	csrrci	a0,0x656,26
	...
    d988:	7472                	ld	s0,312(sp)
    d98a:	745f 7268 6165      	0x61657268745f
    d990:	5f64                	lw	s1,124(a4)
    d992:	6974                	ld	a3,208(a0)
    d994:	656d                	lui	a0,0x1b
    d996:	0074756f          	jal	a0,0x5519c
    d99a:	0000                	unimp
    d99c:	0000                	unimp
    d99e:	0000                	unimp
    d9a0:	7472                	ld	s0,312(sp)
    d9a2:	735f 6863 6465      	0x64656863735f
    d9a8:	6c75                	lui	s8,0x1d
    d9aa:	5f65                	li	t5,-7
    d9ac:	6e69                	lui	t3,0x1a
    d9ae:	74726573          	csrrsi	a0,0x747,4
    d9b2:	745f 7268 6165      	0x61657268745f
    d9b8:	0064                	addi	s1,sp,12
    d9ba:	0000                	unimp
    d9bc:	0000                	unimp
    d9be:	0000                	unimp
    d9c0:	7472                	ld	s0,312(sp)
    d9c2:	735f 6863 6465      	0x64656863735f
    d9c8:	6c75                	lui	s8,0x1d
    d9ca:	5f65                	li	t5,-7
    d9cc:	6572                	ld	a0,280(sp)
    d9ce:	6f6d                	lui	t5,0x1b
    d9d0:	6576                	ld	a0,344(sp)
    d9d2:	745f 7268 6165      	0x61657268745f
    d9d8:	0064                	addi	s1,sp,12
    d9da:	0000                	unimp
    d9dc:	0000                	unimp
    d9de:	0000                	unimp
    d9e0:	6564                	ld	s1,200(a0)
    d9e2:	2076                	fld	ft0,344(sp)
    d9e4:	3d21                	addiw	s10,s10,-24
    d9e6:	5220                	lw	s0,96(a2)
    d9e8:	5f54                	lw	a3,60(a4)
    d9ea:	554e                	lw	a0,240(sp)
    d9ec:	4c4c                	lw	a1,28(s0)
    d9ee:	0000                	unimp
    d9f0:	7472                	ld	s0,312(sp)
    d9f2:	6f5f 6a62 6365      	0x63656a626f5f
    d9f8:	5f74                	lw	a3,124(a4)
    d9fa:	5f746567          	0x5f746567
    d9fe:	7974                	ld	a3,240(a0)
    da00:	6570                	ld	a2,200(a0)
    da02:	2628                	fld	fa0,72(a2)
    da04:	6564                	ld	s1,200(a0)
    da06:	2d76                	fld	fs10,344(sp)
    da08:	703e                	0x703e
    da0a:	7261                	lui	tp,0xffff8
    da0c:	6e65                	lui	t3,0x19
    da0e:	2974                	fld	fa3,208(a0)
    da10:	3d20                	fld	fs0,120(a0)
    da12:	203d                	0x203d
    da14:	5452                	lw	s0,52(sp)
    da16:	4f5f 6a62 6365      	0x63656a624f5f
    da1c:	5f74                	lw	a3,124(a4)
    da1e:	73616c43          	fmadd.d	fs8,ft2,fs6,fa4,unknown
    da22:	65445f73          	csrrwi	t5,0x654,8
    da26:	6976                	ld	s2,344(sp)
    da28:	00006563          	bltu	zero,zero,0xda32
    da2c:	0000                	unimp
    da2e:	0000                	unimp
    da30:	7472                	ld	s0,312(sp)
    da32:	6f5f 6a62 6365      	0x63656a626f5f
    da38:	5f74                	lw	a3,124(a4)
    da3a:	7369                	lui	t1,0xffffa
    da3c:	735f 7379 6574      	0x65747379735f
    da42:	6f6d                	lui	t5,0x1b
    da44:	6a62                	ld	s4,24(sp)
    da46:	6365                	lui	t1,0x19
    da48:	2874                	fld	fa3,208(s0)
    da4a:	6426                	ld	s0,72(sp)
    da4c:	7665                	lui	a2,0xffff9
    da4e:	3e2d                	addiw	t3,t3,-21
    da50:	6170                	ld	a2,192(a0)
    da52:	6572                	ld	a0,280(sp)
    da54:	746e                	ld	s0,248(sp)
    da56:	0029                	c.nop	10
    da58:	6f54                	ld	a3,152(a4)
    da5a:	6920                	ld	s0,80(a0)
    da5c:	696e                	ld	s2,216(sp)
    da5e:	6974                	ld	a3,208(a0)
    da60:	6c61                	lui	s8,0x18
    da62:	7a69                	lui	s4,0xffffa
    da64:	2065                	0x2065
    da66:	6564                	ld	s1,200(a0)
    da68:	6976                	ld	s2,344(sp)
    da6a:	253a6563          	bltu	s4,s3,0xdcb4
    da6e:	61662073          	csrs	0x616,a2
    da72:	6c69                	lui	s8,0x1a
    da74:	6465                	lui	s0,0x19
    da76:	202e                	fld	ft0,200(sp)
    da78:	6854                	ld	a3,144(s0)
    da7a:	2065                	0x2065
    da7c:	7265                	lui	tp,0xffff9
    da7e:	6f72                	ld	t5,280(sp)
    da80:	2072                	fld	ft0,280(sp)
    da82:	65646f63          	bltu	s0,s6,0xe0e0
    da86:	6920                	ld	s0,80(a0)
    da88:	64252073          	csrs	0x642,a0
    da8c:	000a                	c.slli	zero,0x2
    da8e:	0000                	unimp
    da90:	6564                	ld	s1,200(a0)
    da92:	2d76                	fld	fs10,344(sp)
    da94:	723e                	ld	tp,488(sp)
    da96:	6665                	lui	a2,0x19
    da98:	635f 756f 746e      	0x746e756f635f
    da9e:	2120                	fld	fs0,64(a0)
    daa0:	203d                	0x203d
    daa2:	0030                	addi	a2,sp,8
    daa4:	0000                	unimp
    daa6:	0000                	unimp
    daa8:	7472                	ld	s0,312(sp)
    daaa:	645f 7665 6369      	0x63697665645f
    dab0:	5f65                	li	t5,-7
    dab2:	6e65706f          	j	0x65198
    dab6:	0000                	unimp
    dab8:	7472                	ld	s0,312(sp)
    daba:	645f 7665 6369      	0x63697665645f
    dac0:	5f65                	li	t5,-7
    dac2:	736f6c63          	bltu	t5,s6,0xe1fa
    dac6:	0065                	c.nop	25
    dac8:	7472                	ld	s0,312(sp)
    daca:	645f 7665 6369      	0x63697665645f
    dad0:	5f65                	li	t5,-7
    dad2:	6572                	ld	a0,280(sp)
    dad4:	6461                	lui	s0,0x18
    dad6:	0000                	unimp
    dad8:	7472                	ld	s0,312(sp)
    dada:	645f 7665 6369      	0x63697665645f
    dae0:	5f65                	li	t5,-7
    dae2:	74697277          	0x74697277
    dae6:	0065                	c.nop	25
    dae8:	7472                	ld	s0,312(sp)
    daea:	645f 7665 6369      	0x63697665645f
    daf0:	5f65                	li	t5,-7
    daf2:	746e6f63          	bltu	t3,t1,0xe250
    daf6:	6f72                	ld	t5,280(sp)
    daf8:	006c                	addi	a1,sp,12
    dafa:	0000                	unimp
    dafc:	0000                	unimp
    dafe:	0000                	unimp
    db00:	7472                	ld	s0,312(sp)
    db02:	645f 7665 6369      	0x63697665645f
    db08:	5f65                	li	t5,-7
    db0a:	5f746573          	csrrsi	a0,0x5f7,8
    db0e:	7872                	ld	a6,312(sp)
    db10:	695f 646e 6369      	0x6369646e695f
    db16:	7461                	lui	s0,0xffff8
    db18:	0065                	c.nop	25
    db1a:	0000                	unimp
    db1c:	0000                	unimp
    db1e:	0000                	unimp
    db20:	616d                	addi	sp,sp,240
    db22:	6e69                	lui	t3,0x1a
    db24:	0000                	unimp
    db26:	0000                	unimp
    db28:	6974                	ld	a3,208(a0)
    db2a:	2064                	fld	fs1,192(s0)
    db2c:	3d21                	addiw	s10,s10,-24
    db2e:	5220                	lw	s0,96(a2)
    db30:	5f54                	lw	a3,60(a4)
    db32:	554e                	lw	a0,240(sp)
    db34:	4c4c                	lw	a1,28(s0)
    db36:	0000                	unimp
    db38:	7472                	ld	s0,312(sp)
    db3a:	615f 7070 696c      	0x696c7070615f
    db40:	69746163          	bltu	s0,s7,0xe1c2
    db44:	695f6e6f          	jal	t3,0x1049d8
    db48:	696e                	ld	s2,216(sp)
    db4a:	0074                	addi	a3,sp,12
    db4c:	0000                	unimp
    db4e:	0000                	unimp
    db50:	6e69                	lui	t3,0x1a
    db52:	6f66                	ld	t5,88(sp)
    db54:	6d72                	ld	s10,280(sp)
    db56:	7461                	lui	s0,0xffff8
    db58:	6f69                	lui	t5,0x1a
    db5a:	206e                	fld	ft0,216(sp)
    db5c:	3d21                	addiw	s10,s10,-24
    db5e:	5220                	lw	s0,96(a2)
    db60:	5f54                	lw	a3,60(a4)
    db62:	554e                	lw	a0,240(sp)
    db64:	4c4c                	lw	a1,28(s0)
    db66:	0000                	unimp
    db68:	206a626f          	jal	tp,0xb3d6e
    db6c:	3d21                	addiw	s10,s10,-24
    db6e:	6f20                	ld	s0,88(a4)
    db70:	6a62                	ld	s4,24(sp)
    db72:	6365                	lui	t1,0x19
    db74:	0074                	addi	a3,sp,12
    db76:	0000                	unimp
    db78:	656a626f          	jal	tp,0xb41ce
    db7c:	21207463          	bgeu	zero,s2,0xdd84
    db80:	203d                	0x203d
    db82:	5452                	lw	s0,52(sp)
    db84:	4e5f 4c55 004c      	0x4c4c554e5f
    db8a:	0000                	unimp
    db8c:	0000                	unimp
    db8e:	0000                	unimp
    db90:	2821                	addiw	a6,a6,8
    db92:	656a626f          	jal	tp,0xb41e8
    db96:	3e2d7463          	bgeu	s10,sp,0xdf7e
    db9a:	7974                	ld	a3,240(a0)
    db9c:	6570                	ld	a2,200(a0)
    db9e:	2620                	fld	fs0,72(a2)
    dba0:	5220                	lw	s0,96(a2)
    dba2:	5f54                	lw	a3,60(a4)
    dba4:	656a624f          	0x656a624f
    dba8:	435f7463          	bgeu	t5,s5,0xdfd0
    dbac:	616c                	ld	a1,192(a0)
    dbae:	535f7373          	csrrci	t1,0x535,30
    dbb2:	6174                	ld	a3,192(a0)
    dbb4:	6974                	ld	a3,208(a0)
    dbb6:	00002963          	0x2963
    dbba:	0000                	unimp
    dbbc:	0000                	unimp
    dbbe:	0000                	unimp
    dbc0:	7472                	ld	s0,312(sp)
    dbc2:	6f5f 6a62 6365      	0x63656a626f5f
    dbc8:	5f74                	lw	a3,124(a4)
    dbca:	6e69                	lui	t3,0x1a
    dbcc:	7469                	lui	s0,0xffffa
    dbce:	0000                	unimp
    dbd0:	7472                	ld	s0,312(sp)
    dbd2:	6f5f 6a62 6365      	0x63656a626f5f
    dbd8:	5f74                	lw	a3,124(a4)
    dbda:	6564                	ld	s1,200(a0)
    dbdc:	6174                	ld	a3,192(a0)
    dbde:	00006863          	bltu	zero,zero,0xdbee
    dbe2:	0000                	unimp
    dbe4:	0000                	unimp
    dbe6:	0000                	unimp
    dbe8:	7472                	ld	s0,312(sp)
    dbea:	6f5f 6a62 6365      	0x63656a626f5f
    dbf0:	5f74                	lw	a3,124(a4)
    dbf2:	6c61                	lui	s8,0x18
    dbf4:	6f6c                	ld	a1,216(a4)
    dbf6:	65746163          	bltu	s0,s7,0xe238
    dbfa:	0000                	unimp
    dbfc:	0000                	unimp
    dbfe:	0000                	unimp
    dc00:	7472                	ld	s0,312(sp)
    dc02:	6f5f 6a62 6365      	0x63656a626f5f
    dc08:	5f74                	lw	a3,124(a4)
    dc0a:	6564                	ld	s1,200(a0)
    dc0c:	656c                	ld	a1,200(a0)
    dc0e:	6574                	ld	a3,200(a0)
	...
    dc18:	7472                	ld	s0,312(sp)
    dc1a:	6f5f 6a62 6365      	0x63656a626f5f
    dc20:	5f74                	lw	a3,124(a4)
    dc22:	7369                	lui	t1,0xffffa
    dc24:	735f 7379 6574      	0x65747379735f
    dc2a:	6f6d                	lui	t5,0x1b
    dc2c:	6a62                	ld	s4,24(sp)
    dc2e:	6365                	lui	t1,0x19
    dc30:	0074                	addi	a3,sp,12
    dc32:	0000                	unimp
    dc34:	0000                	unimp
    dc36:	0000                	unimp
    dc38:	7472                	ld	s0,312(sp)
    dc3a:	6f5f 6a62 6365      	0x63656a626f5f
    dc40:	5f74                	lw	a3,124(a4)
    dc42:	5f746567          	0x5f746567
    dc46:	7974                	ld	a3,240(a0)
    dc48:	6570                	ld	a2,200(a0)
    dc4a:	0000                	unimp
    dc4c:	0000                	unimp
    dc4e:	0000                	unimp
    dc50:	7472                	ld	s0,312(sp)
    dc52:	6f5f 6a62 6365      	0x63656a626f5f
    dc58:	5f74                	lw	a3,124(a4)
    dc5a:	6966                	ld	s2,88(sp)
    dc5c:	646e                	ld	s0,216(sp)
    dc5e:	0000                	unimp
    dc60:	4e28                	lw	a0,88(a2)
    dc62:	4c55                	li	s8,21
    dc64:	294c                	fld	fa1,144(a0)
    dc66:	0000                	unimp
    dc68:	6560                	ld	s0,200(a0)
    dc6a:	ffff                	0xffff
    dc6c:	67a4                	ld	s1,72(a5)
    dc6e:	ffff                	0xffff
    dc70:	64e0                	ld	s0,200(s1)
    dc72:	ffff                	0xffff
    dc74:	64e0                	ld	s0,200(s1)
    dc76:	ffff                	0xffff
    dc78:	64e0                	ld	s0,200(s1)
    dc7a:	ffff                	0xffff
    dc7c:	64e0                	ld	s0,200(s1)
    dc7e:	ffff                	0xffff
    dc80:	67a4                	ld	s1,72(a5)
    dc82:	ffff                	0xffff
    dc84:	64e0                	ld	s0,200(s1)
    dc86:	ffff                	0xffff
    dc88:	64e0                	ld	s0,200(s1)
    dc8a:	ffff                	0xffff
    dc8c:	64e0                	ld	s0,200(s1)
    dc8e:	ffff                	0xffff
    dc90:	64e0                	ld	s0,200(s1)
    dc92:	ffff                	0xffff
    dc94:	64e0                	ld	s0,200(s1)
    dc96:	ffff                	0xffff
    dc98:	67b8                	ld	a4,72(a5)
    dc9a:	ffff                	0xffff
    dc9c:	6728                	ld	a0,72(a4)
    dc9e:	ffff                	0xffff
    dca0:	64e0                	ld	s0,200(s1)
    dca2:	ffff                	0xffff
    dca4:	64e0                	ld	s0,200(s1)
    dca6:	ffff                	0xffff
    dca8:	6610                	ld	a2,8(a2)
    dcaa:	ffff                	0xffff
    dcac:	64e0                	ld	s0,200(s1)
    dcae:	ffff                	0xffff
    dcb0:	67a8                	ld	a0,72(a5)
    dcb2:	ffff                	0xffff
    dcb4:	64e0                	ld	s0,200(s1)
    dcb6:	ffff                	0xffff
    dcb8:	64e0                	ld	s0,200(s1)
    dcba:	ffff                	0xffff
    dcbc:	6768                	ld	a0,200(a4)
    dcbe:	ffff                	0xffff
    dcc0:	200a                	fld	ft0,128(sp)
    dcc2:	205c                	fld	fa5,128(s0)
    dcc4:	207c                	fld	fa5,192(s0)
    dcc6:	00000a2f          	0xa2f
    dcca:	0000                	unimp
    dccc:	0000                	unimp
    dcce:	0000                	unimp
    dcd0:	202d                	0x202d
    dcd2:	5452                	lw	s0,52(sp)
    dcd4:	2d20                	fld	fs0,88(a0)
    dcd6:	2020                	fld	fs0,64(s0)
    dcd8:	2020                	fld	fs0,64(s0)
    dcda:	5420                	lw	s0,104(s0)
    dcdc:	7268                	ld	a0,224(a2)
    dcde:	6165                	addi	sp,sp,112
    dce0:	2064                	fld	fs1,192(s0)
    dce2:	7265704f          	fnmadd.d	ft0,fa0,ft6,fa4
    dce6:	7461                	lui	s0,0xffff8
    dce8:	6e69                	lui	t3,0x1a
    dcea:	79532067          	0x79532067
    dcee:	6d657473          	csrrci	s0,0x6d6,10
    dcf2:	000a                	c.slli	zero,0x2
    dcf4:	0000                	unimp
    dcf6:	0000                	unimp
    dcf8:	20706553          	0x20706553
    dcfc:	3832                	fld	fa6,296(sp)
    dcfe:	3220                	fld	fs0,96(a2)
    dd00:	3230                	fld	fa2,96(a2)
    dd02:	0032                	c.slli	zero,0xc
    dd04:	0000                	unimp
    dd06:	0000                	unimp
    dd08:	2f20                	fld	fs0,88(a4)
    dd0a:	7c20                	ld	s0,120(s0)
    dd0c:	5c20                	lw	s0,120(s0)
    dd0e:	2020                	fld	fs0,64(s0)
    dd10:	2020                	fld	fs0,64(s0)
    dd12:	2520                	fld	fs0,72(a0)
    dd14:	2e64                	fld	fs1,216(a2)
    dd16:	6425                	lui	s0,0x9
    dd18:	252e                	fld	fa0,200(sp)
    dd1a:	2064                	fld	fs1,192(s0)
    dd1c:	7562                	ld	a0,56(sp)
    dd1e:	6c69                	lui	s8,0x1a
    dd20:	2064                	fld	fs1,192(s0)
    dd22:	7325                	lui	t1,0xfffe9
    dd24:	000a                	c.slli	zero,0x2
    dd26:	0000                	unimp
    dd28:	3220                	fld	fs0,96(a2)
    dd2a:	3030                	fld	fa2,96(s0)
    dd2c:	2036                	fld	ft0,328(sp)
    dd2e:	202d                	0x202d
    dd30:	3032                	fld	ft0,296(sp)
    dd32:	3132                	fld	ft2,296(sp)
    dd34:	4320                	lw	s0,64(a4)
    dd36:	7279706f          	j	0xa5c5c
    dd3a:	6769                	lui	a4,0x1a
    dd3c:	7468                	ld	a0,232(s0)
    dd3e:	6220                	ld	s0,64(a2)
    dd40:	2079                	0x2079
    dd42:	7472                	ld	s0,312(sp)
    dd44:	742d                	lui	s0,0xfffeb
    dd46:	7268                	ld	a0,224(a2)
    dd48:	6165                	addi	sp,sp,112
    dd4a:	2064                	fld	fs1,192(s0)
    dd4c:	6574                	ld	a3,200(a0)
    dd4e:	6d61                	lui	s10,0x18
    dd50:	000a                	c.slli	zero,0x2
    dd52:	0000                	unimp
    dd54:	0000                	unimp
    dd56:	0000                	unimp
    dd58:	2528                	fld	fa0,72(a0)
    dd5a:	61202973          	csrr	s2,0x612
    dd5e:	72657373          	csrrci	t1,0x726,10
    dd62:	6974                	ld	a3,208(a0)
    dd64:	66206e6f          	jal	t3,0x143c6
    dd68:	6961                	lui	s2,0x18
    dd6a:	656c                	ld	a1,200(a0)
    dd6c:	2064                	fld	fs1,192(s0)
    dd6e:	7461                	lui	s0,0xffff8
    dd70:	6620                	ld	s0,72(a2)
    dd72:	6e75                	lui	t3,0x1d
    dd74:	6f697463          	bgeu	s2,s6,0xe45c
    dd78:	3a6e                	fld	fs4,248(sp)
    dd7a:	7325                	lui	t1,0xfffe9
    dd7c:	202c                	fld	fa1,64(s0)
    dd7e:	696c                	ld	a1,208(a0)
    dd80:	656e                	ld	a0,216(sp)
    dd82:	6e20                	ld	s0,88(a2)
    dd84:	6d75                	lui	s10,0x1d
    dd86:	6562                	ld	a0,24(sp)
    dd88:	3a72                	fld	fs4,312(sp)
    dd8a:	6425                	lui	s0,0x9
    dd8c:	0a20                	addi	s0,sp,280
    dd8e:	0000                	unimp
    dd90:	0000                	unimp
    dd92:	0001                	nop
    dd94:	0002                	c.slli64	zero
    dd96:	0001                	nop
    dd98:	00010003          	lb	zero,0(sp)
    dd9c:	0002                	c.slli64	zero
    dd9e:	0001                	nop
    dda0:	0004                	0x4
    dda2:	0001                	nop
    dda4:	0002                	c.slli64	zero
    dda6:	0001                	nop
    dda8:	00010003          	lb	zero,0(sp)
    ddac:	0002                	c.slli64	zero
    ddae:	0001                	nop
    ddb0:	0005                	c.nop	1
    ddb2:	0001                	nop
    ddb4:	0002                	c.slli64	zero
    ddb6:	0001                	nop
    ddb8:	00010003          	lb	zero,0(sp)
    ddbc:	0002                	c.slli64	zero
    ddbe:	0001                	nop
    ddc0:	0004                	0x4
    ddc2:	0001                	nop
    ddc4:	0002                	c.slli64	zero
    ddc6:	0001                	nop
    ddc8:	00010003          	lb	zero,0(sp)
    ddcc:	0002                	c.slli64	zero
    ddce:	0001                	nop
    ddd0:	0006                	c.slli	zero,0x1
    ddd2:	0001                	nop
    ddd4:	0002                	c.slli64	zero
    ddd6:	0001                	nop
    ddd8:	00010003          	lb	zero,0(sp)
    dddc:	0002                	c.slli64	zero
    ddde:	0001                	nop
    dde0:	0004                	0x4
    dde2:	0001                	nop
    dde4:	0002                	c.slli64	zero
    dde6:	0001                	nop
    dde8:	00010003          	lb	zero,0(sp)
    ddec:	0002                	c.slli64	zero
    ddee:	0001                	nop
    ddf0:	0005                	c.nop	1
    ddf2:	0001                	nop
    ddf4:	0002                	c.slli64	zero
    ddf6:	0001                	nop
    ddf8:	00010003          	lb	zero,0(sp)
    ddfc:	0002                	c.slli64	zero
    ddfe:	0001                	nop
    de00:	0004                	0x4
    de02:	0001                	nop
    de04:	0002                	c.slli64	zero
    de06:	0001                	nop
    de08:	00010003          	lb	zero,0(sp)
    de0c:	0002                	c.slli64	zero
    de0e:	0001                	nop
    de10:	00010007          	0x10007
    de14:	0002                	c.slli64	zero
    de16:	0001                	nop
    de18:	00010003          	lb	zero,0(sp)
    de1c:	0002                	c.slli64	zero
    de1e:	0001                	nop
    de20:	0004                	0x4
    de22:	0001                	nop
    de24:	0002                	c.slli64	zero
    de26:	0001                	nop
    de28:	00010003          	lb	zero,0(sp)
    de2c:	0002                	c.slli64	zero
    de2e:	0001                	nop
    de30:	0005                	c.nop	1
    de32:	0001                	nop
    de34:	0002                	c.slli64	zero
    de36:	0001                	nop
    de38:	00010003          	lb	zero,0(sp)
    de3c:	0002                	c.slli64	zero
    de3e:	0001                	nop
    de40:	0004                	0x4
    de42:	0001                	nop
    de44:	0002                	c.slli64	zero
    de46:	0001                	nop
    de48:	00010003          	lb	zero,0(sp)
    de4c:	0002                	c.slli64	zero
    de4e:	0001                	nop
    de50:	0006                	c.slli	zero,0x1
    de52:	0001                	nop
    de54:	0002                	c.slli64	zero
    de56:	0001                	nop
    de58:	00010003          	lb	zero,0(sp)
    de5c:	0002                	c.slli64	zero
    de5e:	0001                	nop
    de60:	0004                	0x4
    de62:	0001                	nop
    de64:	0002                	c.slli64	zero
    de66:	0001                	nop
    de68:	00010003          	lb	zero,0(sp)
    de6c:	0002                	c.slli64	zero
    de6e:	0001                	nop
    de70:	0005                	c.nop	1
    de72:	0001                	nop
    de74:	0002                	c.slli64	zero
    de76:	0001                	nop
    de78:	00010003          	lb	zero,0(sp)
    de7c:	0002                	c.slli64	zero
    de7e:	0001                	nop
    de80:	0004                	0x4
    de82:	0001                	nop
    de84:	0002                	c.slli64	zero
    de86:	0001                	nop
    de88:	00010003          	lb	zero,0(sp)
    de8c:	0002                	c.slli64	zero
    de8e:	0001                	nop
    de90:	3130                	fld	fa2,96(a0)
    de92:	3332                	fld	ft6,296(sp)
    de94:	3534                	fld	fa3,104(a0)
    de96:	3736                	fld	fa4,360(sp)
    de98:	3938                	fld	fa4,112(a0)
    de9a:	4241                	li	tp,16
    de9c:	46454443          	fmadd.q	fs0,fa0,ft4,fs0,rmm
	...
    dea8:	3130                	fld	fa2,96(a0)
    deaa:	3332                	fld	ft6,296(sp)
    deac:	3534                	fld	fa3,104(a0)
    deae:	3736                	fld	fa4,360(sp)
    deb0:	3938                	fld	fa4,112(a0)
    deb2:	6261                	lui	tp,0x18
    deb4:	66656463          	bltu	a0,t1,0xe51c
	...
    dec0:	6974                	ld	a3,208(a0)
    dec2:	6c64                	ld	s1,216(s0)
    dec4:	2565                	addiw	a0,a0,25
    dec6:	0064                	addi	s1,sp,12
    dec8:	7472                	ld	s0,312(sp)
    deca:	645f 6665 6e75      	0x6e756665645f
    ded0:	655f7463          	bgeu	t5,s5,0xe518
    ded4:	6578                	ld	a4,200(a0)
    ded6:	65747563          	bgeu	s0,s7,0xe520
    deda:	0000                	unimp
    dedc:	0000                	unimp
    dede:	0000                	unimp
    dee0:	206d6573          	csrrsi	a0,0x206,26
    dee4:	3d21                	addiw	s10,s10,-24
    dee6:	5220                	lw	s0,96(a2)
    dee8:	5f54                	lw	a3,60(a4)
    deea:	554e                	lw	a0,240(sp)
    deec:	4c4c                	lw	a1,28(s0)
    deee:	0000                	unimp
    def0:	6176                	ld	sp,344(sp)
    def2:	756c                	ld	a1,232(a0)
    def4:	2065                	0x2065
    def6:	203c                	fld	fa5,64(s0)
    def8:	7830                	ld	a2,112(s0)
    defa:	3031                	0x3031
    defc:	3030                	fld	fa2,96(s0)
    defe:	5530                	lw	a2,104(a0)
	...
    df08:	7472                	ld	s0,312(sp)
    df0a:	6f5f 6a62 6365      	0x63656a626f5f
    df10:	5f74                	lw	a3,124(a4)
    df12:	5f746567          	0x5f746567
    df16:	7974                	ld	a3,240(a0)
    df18:	6570                	ld	a2,200(a0)
    df1a:	2628                	fld	fa0,72(a2)
    df1c:	2d6d6573          	csrrsi	a0,0x2d6,26
    df20:	703e                	0x703e
    df22:	7261                	lui	tp,0xffff8
    df24:	6e65                	lui	t3,0x19
    df26:	2e74                	fld	fa3,216(a2)
    df28:	6170                	ld	a2,192(a0)
    df2a:	6572                	ld	a0,280(sp)
    df2c:	746e                	ld	s0,248(sp)
    df2e:	2029                	0x2029
    df30:	3d3d                	addiw	s10,s10,-17
    df32:	5220                	lw	s0,96(a2)
    df34:	5f54                	lw	a3,60(a4)
    df36:	656a624f          	0x656a624f
    df3a:	435f7463          	bgeu	t5,s5,0xe362
    df3e:	616c                	ld	a1,192(a0)
    df40:	535f7373          	csrrci	t1,0x535,30
    df44:	6d65                	lui	s10,0x19
    df46:	7061                	c.lui	zero,0xffff8
    df48:	6f68                	ld	a0,216(a4)
    df4a:	6572                	ld	a0,280(sp)
    df4c:	0000                	unimp
    df4e:	0000                	unimp
    df50:	7472                	ld	s0,312(sp)
    df52:	6f5f 6a62 6365      	0x63656a626f5f
    df58:	5f74                	lw	a3,124(a4)
    df5a:	7369                	lui	t1,0xffffa
    df5c:	735f 7379 6574      	0x65747379735f
    df62:	6f6d                	lui	t5,0x1b
    df64:	6a62                	ld	s4,24(sp)
    df66:	6365                	lui	t1,0x19
    df68:	2874                	fld	fa3,208(s0)
    df6a:	7326                	ld	t1,104(sp)
    df6c:	6d65                	lui	s10,0x19
    df6e:	3e2d                	addiw	t3,t3,-21
    df70:	6170                	ld	a2,192(a0)
    df72:	6572                	ld	a0,280(sp)
    df74:	746e                	ld	s0,248(sp)
    df76:	702e                	0x702e
    df78:	7261                	lui	tp,0xffff8
    df7a:	6e65                	lui	t3,0x19
    df7c:	2974                	fld	fa3,208(a0)
    df7e:	0000                	unimp
    df80:	7546                	ld	a0,112(sp)
    df82:	636e                	ld	t1,216(sp)
    df84:	6974                	ld	a3,208(a0)
    df86:	255b6e6f          	jal	t3,0xc49da
    df8a:	73205d73          	csrrwi	s10,0x732,0
    df8e:	6168                	ld	a0,192(a0)
    df90:	6c6c                	ld	a1,216(s0)
    df92:	6e20                	ld	s0,88(a2)
    df94:	6220746f          	jal	s0,0x155b6
    df98:	2065                	0x2065
    df9a:	7375                	lui	t1,0xffffd
    df9c:	6465                	lui	s0,0x19
    df9e:	6220                	ld	s0,64(a2)
    dfa0:	6665                	lui	a2,0x19
    dfa2:	2065726f          	jal	tp,0x651a8
    dfa6:	65686373          	csrrsi	t1,0x656,16
    dfaa:	7564                	ld	s1,232(a0)
    dfac:	656c                	ld	a1,200(a0)
    dfae:	2072                	fld	ft0,280(sp)
    dfb0:	72617473          	csrrci	s0,0x726,2
    dfb4:	0a74                	addi	a3,sp,284
    dfb6:	0000                	unimp
    dfb8:	756d                	lui	a0,0xffffb
    dfba:	6574                	ld	a3,200(a0)
    dfbc:	2078                	fld	fa4,192(s0)
    dfbe:	3d21                	addiw	s10,s10,-24
    dfc0:	5220                	lw	s0,96(a2)
    dfc2:	5f54                	lw	a3,60(a4)
    dfc4:	554e                	lw	a0,240(sp)
    dfc6:	4c4c                	lw	a1,28(s0)
	...
    dfd0:	7472                	ld	s0,312(sp)
    dfd2:	6f5f 6a62 6365      	0x63656a626f5f
    dfd8:	5f74                	lw	a3,124(a4)
    dfda:	5f746567          	0x5f746567
    dfde:	7974                	ld	a3,240(a0)
    dfe0:	6570                	ld	a2,200(a0)
    dfe2:	2628                	fld	fa0,72(a2)
    dfe4:	756d                	lui	a0,0xffffb
    dfe6:	6574                	ld	a3,200(a0)
    dfe8:	2d78                	fld	fa4,216(a0)
    dfea:	703e                	0x703e
    dfec:	7261                	lui	tp,0xffff8
    dfee:	6e65                	lui	t3,0x19
    dff0:	2e74                	fld	fa3,216(a2)
    dff2:	6170                	ld	a2,192(a0)
    dff4:	6572                	ld	a0,280(sp)
    dff6:	746e                	ld	s0,248(sp)
    dff8:	2029                	0x2029
    dffa:	3d3d                	addiw	s10,s10,-17
    dffc:	5220                	lw	s0,96(a2)
    dffe:	5f54                	lw	a3,60(a4)
    e000:	656a624f          	0x656a624f
    e004:	435f7463          	bgeu	t5,s5,0xe42c
    e008:	616c                	ld	a1,192(a0)
    e00a:	4d5f7373          	csrrci	t1,0x4d5,30
    e00e:	7475                	lui	s0,0xffffd
    e010:	7865                	lui	a6,0xffff9
    e012:	0000                	unimp
    e014:	0000                	unimp
    e016:	0000                	unimp
    e018:	7472                	ld	s0,312(sp)
    e01a:	6f5f 6a62 6365      	0x63656a626f5f
    e020:	5f74                	lw	a3,124(a4)
    e022:	7369                	lui	t1,0xffffa
    e024:	735f 7379 6574      	0x65747379735f
    e02a:	6f6d                	lui	t5,0x1b
    e02c:	6a62                	ld	s4,24(sp)
    e02e:	6365                	lui	t1,0x19
    e030:	2874                	fld	fa3,208(s0)
    e032:	6d26                	ld	s10,72(sp)
    e034:	7475                	lui	s0,0xffffd
    e036:	7865                	lui	a6,0xffff9
    e038:	3e2d                	addiw	t3,t3,-21
    e03a:	6170                	ld	a2,192(a0)
    e03c:	6572                	ld	a0,280(sp)
    e03e:	746e                	ld	s0,248(sp)
    e040:	702e                	0x702e
    e042:	7261                	lui	tp,0xffff8
    e044:	6e65                	lui	t3,0x19
    e046:	2974                	fld	fa3,208(a0)
	...
    e050:	7472                	ld	s0,312(sp)
    e052:	695f 6370 6c5f      	0x6c5f6370695f
    e058:	7369                	lui	t1,0xffffa
    e05a:	5f74                	lw	a3,124(a4)
    e05c:	70737573          	csrrci	a0,0x707,6
    e060:	6e65                	lui	t3,0x19
    e062:	0064                	addi	s1,sp,12
    e064:	0000                	unimp
    e066:	0000                	unimp
    e068:	7472                	ld	s0,312(sp)
    e06a:	735f 6d65 695f      	0x695f6d65735f
    e070:	696e                	ld	s2,216(sp)
    e072:	0074                	addi	a3,sp,12
    e074:	0000                	unimp
    e076:	0000                	unimp
    e078:	7472                	ld	s0,312(sp)
    e07a:	735f 6d65 745f      	0x745f6d65735f
    e080:	6b61                	lui	s6,0x18
    e082:	0065                	c.nop	25
    e084:	0000                	unimp
    e086:	0000                	unimp
    e088:	7472                	ld	s0,312(sp)
    e08a:	735f 6d65 725f      	0x725f6d65735f
    e090:	6c65                	lui	s8,0x19
    e092:	6165                	addi	sp,sp,112
    e094:	00006573          	csrrsi	a0,ustatus,0
    e098:	7472                	ld	s0,312(sp)
    e09a:	6d5f 7475 7865      	0x786574756d5f
    e0a0:	695f 696e 0074      	0x74696e695f
    e0a6:	0000                	unimp
    e0a8:	7472                	ld	s0,312(sp)
    e0aa:	6d5f 7475 7865      	0x786574756d5f
    e0b0:	745f 6b61 0065      	0x656b61745f
    e0b6:	0000                	unimp
    e0b8:	7472                	ld	s0,312(sp)
    e0ba:	6d5f 7475 7865      	0x786574756d5f
    e0c0:	725f 6c65 6165      	0x61656c65725f
    e0c6:	00006573          	csrrsi	a0,ustatus,0
    e0ca:	0000                	unimp
    e0cc:	0000                	unimp
    e0ce:	0000                	unimp
    e0d0:	4e55                	li	t3,21
    e0d2:	682d                	lui	a6,0xb
    e0d4:	6e61                	lui	t3,0x18
    e0d6:	6c64                	ld	s1,216(s0)
    e0d8:	6465                	lui	s0,0x19
    e0da:	6920                	ld	s0,80(a0)
    e0dc:	746e                	ld	s0,248(sp)
    e0de:	7265                	lui	tp,0xffff9
    e0e0:	7572                	ld	a0,312(sp)
    e0e2:	7470                	ld	a2,232(s0)
    e0e4:	2520                	fld	fs0,72(a0)
    e0e6:	2064                	fld	fs1,192(s0)
    e0e8:	7563636f          	jal	t1,0x4483e
    e0ec:	7272                	ld	tp,312(sp)
    e0ee:	6465                	lui	s0,0x19
    e0f0:	2121                	addiw	sp,sp,8
    e0f2:	0a21                	addi	s4,s4,8
    e0f4:	0000                	unimp
    e0f6:	0000                	unimp
    e0f8:	65707553          	0x65707553
    e0fc:	7672                	ld	a2,312(sp)
    e0fe:	7369                	lui	t1,0xffffa
    e100:	4920726f          	jal	tp,0x15592
    e104:	746e                	ld	s0,248(sp)
    e106:	7265                	lui	tp,0xffff9
    e108:	7572                	ld	a0,312(sp)
    e10a:	7470                	ld	a2,232(s0)
    e10c:	4520                	lw	s0,72(a0)
    e10e:	616e                	ld	sp,216(sp)
    e110:	6c62                	ld	s8,24(sp)
    e112:	6465                	lui	s0,0x19
    e114:	0000                	unimp
    e116:	0000                	unimp
    e118:	65707553          	0x65707553
    e11c:	7672                	ld	a2,312(sp)
    e11e:	7369                	lui	t1,0xffffa
    e120:	4920726f          	jal	tp,0x155b2
    e124:	746e                	ld	s0,248(sp)
    e126:	7265                	lui	tp,0xffff9
    e128:	7572                	ld	a0,312(sp)
    e12a:	7470                	ld	a2,232(s0)
    e12c:	4420                	lw	s0,72(s0)
    e12e:	7369                	lui	t1,0xffffa
    e130:	6261                	lui	tp,0x18
    e132:	656c                	ld	a1,200(a0)
    e134:	0064                	addi	s1,sp,12
    e136:	0000                	unimp
    e138:	614c                	ld	a1,128(a0)
    e13a:	54207473          	csrrci	s0,0x542,0
    e13e:	6d69                	lui	s10,0x1a
    e140:	2065                	0x2065
    e142:	65707553          	0x65707553
    e146:	7672                	ld	a2,312(sp)
    e148:	7369                	lui	t1,0xffffa
    e14a:	4920726f          	jal	tp,0x155dc
    e14e:	746e                	ld	s0,248(sp)
    e150:	7265                	lui	tp,0xffff9
    e152:	7572                	ld	a0,312(sp)
    e154:	7470                	ld	a2,232(s0)
    e156:	4520                	lw	s0,72(a0)
    e158:	616e                	ld	sp,216(sp)
    e15a:	6c62                	ld	s8,24(sp)
    e15c:	6465                	lui	s0,0x19
    e15e:	0000                	unimp
    e160:	614c                	ld	a1,128(a0)
    e162:	54207473          	csrrci	s0,0x542,0
    e166:	6d69                	lui	s10,0x1a
    e168:	2065                	0x2065
    e16a:	65707553          	0x65707553
    e16e:	7672                	ld	a2,312(sp)
    e170:	7369                	lui	t1,0xffffa
    e172:	4920726f          	jal	tp,0x15604
    e176:	746e                	ld	s0,248(sp)
    e178:	7265                	lui	tp,0xffff9
    e17a:	7572                	ld	a0,312(sp)
    e17c:	7470                	ld	a2,232(s0)
    e17e:	4420                	lw	s0,72(s0)
    e180:	7369                	lui	t1,0xffffa
    e182:	6261                	lui	tp,0x18
    e184:	656c                	ld	a1,200(a0)
    e186:	0064                	addi	s1,sp,12
    e188:	614c                	ld	a1,128(a0)
    e18a:	50207473          	csrrci	s0,0x502,0
    e18e:	6972                	ld	s2,280(sp)
    e190:	6976                	ld	s2,344(sp)
    e192:	656c                	ld	a1,200(a0)
    e194:	69206567          	0x69206567
    e198:	75532073          	csrs	0x755,t1
    e19c:	6570                	ld	a2,200(a0)
    e19e:	7672                	ld	a2,312(sp)
    e1a0:	7369                	lui	t1,0xffffa
    e1a2:	4d20726f          	jal	tp,0x15674
    e1a6:	0065646f          	jal	s0,0x641ac
    e1aa:	0000                	unimp
    e1ac:	0000                	unimp
    e1ae:	0000                	unimp
    e1b0:	614c                	ld	a1,128(a0)
    e1b2:	50207473          	csrrci	s0,0x502,0
    e1b6:	6972                	ld	s2,280(sp)
    e1b8:	6976                	ld	s2,344(sp)
    e1ba:	656c                	ld	a1,200(a0)
    e1bc:	69206567          	0x69206567
    e1c0:	73552073          	csrs	0x735,a0
    e1c4:	7265                	lui	tp,0xffff9
    e1c6:	4d20                	lw	s0,88(a0)
    e1c8:	0065646f          	jal	s0,0x641ce
    e1cc:	0000                	unimp
    e1ce:	0000                	unimp
    e1d0:	6550                	ld	a2,136(a0)
    e1d2:	6d72                	ld	s10,280(sp)
    e1d4:	7469                	lui	s0,0xffffa
    e1d6:	7420                	ld	s0,104(s0)
    e1d8:	6341206f          	j	0x2080c
    e1dc:	73736563          	bltu	t1,s7,0xe906
    e1e0:	5520                	lw	s0,104(a0)
    e1e2:	20726573          	csrrsi	a0,0x207,4
    e1e6:	6150                	ld	a2,128(a0)
    e1e8:	00006567          	0x6567
    e1ec:	0000                	unimp
    e1ee:	0000                	unimp
    e1f0:	6f4e                	ld	t5,208(sp)
    e1f2:	2074                	fld	fa3,192(s0)
    e1f4:	6550                	ld	a2,136(a0)
    e1f6:	6d72                	ld	s10,280(sp)
    e1f8:	7469                	lui	s0,0xffffa
    e1fa:	7420                	ld	s0,104(s0)
    e1fc:	6341206f          	j	0x20830
    e200:	73736563          	bltu	t1,s7,0xe92a
    e204:	5520                	lw	s0,104(a0)
    e206:	20726573          	csrrsi	a0,0x207,4
    e20a:	6150                	ld	a2,128(a0)
    e20c:	00006567          	0x6567
    e210:	6550                	ld	a2,136(a0)
    e212:	6d72                	ld	s10,280(sp)
    e214:	7469                	lui	s0,0xffffa
    e216:	7420                	ld	s0,104(s0)
    e218:	6552206f          	j	0x3106c
    e21c:	6461                	lui	s0,0x18
    e21e:	4520                	lw	s0,72(a0)
    e220:	6578                	ld	a4,200(a0)
    e222:	61747563          	bgeu	s0,s7,0xe82c
    e226:	6c62                	ld	s8,24(sp)
    e228:	2d65                	addiw	s10,s10,25
    e22a:	796c6e6f          	jal	t3,0xd49c0
    e22e:	5020                	lw	s0,96(s0)
    e230:	6761                	lui	a4,0x18
    e232:	0065                	c.nop	25
    e234:	0000                	unimp
    e236:	0000                	unimp
    e238:	6f4e                	ld	t5,208(sp)
    e23a:	2074                	fld	fa3,192(s0)
    e23c:	6550                	ld	a2,136(a0)
    e23e:	6d72                	ld	s10,280(sp)
    e240:	7469                	lui	s0,0xffffa
    e242:	7420                	ld	s0,104(s0)
    e244:	6552206f          	j	0x31098
    e248:	6461                	lui	s0,0x18
    e24a:	4520                	lw	s0,72(a0)
    e24c:	6578                	ld	a4,200(a0)
    e24e:	61747563          	bgeu	s0,s7,0xe858
    e252:	6c62                	ld	s8,24(sp)
    e254:	2d65                	addiw	s10,s10,25
    e256:	796c6e6f          	jal	t3,0xd49ec
    e25a:	5020                	lw	s0,96(s0)
    e25c:	6761                	lui	a4,0x18
    e25e:	0065                	c.nop	25
    e260:	6e55                	lui	t3,0x15
    e262:	776f6e6b          	0x776f6e6b
    e266:	206e                	fld	ft0,216(sp)
    e268:	6441                	lui	s0,0x10
    e26a:	7264                	ld	s1,224(a2)
    e26c:	7365                	lui	t1,0xffff9
    e26e:	72542073          	csrs	0x725,s0
    e272:	6e61                	lui	t3,0x18
    e274:	74616c73          	csrrsi	s8,0x746,2
    e278:	6f69                	lui	t5,0x1a
    e27a:	2f6e                	fld	ft10,216(sp)
    e27c:	7250                	ld	a2,160(a2)
    e27e:	6365746f          	jal	s0,0x658b4
    e282:	6974                	ld	a3,208(a0)
    e284:	4d206e6f          	jal	t3,0x14756
    e288:	0065646f          	jal	s0,0x6428e
    e28c:	0000                	unimp
    e28e:	0000                	unimp
    e290:	2d2d                	addiw	s10,s10,11
    e292:	2d2d                	addiw	s10,s10,11
    e294:	2d2d                	addiw	s10,s10,11
    e296:	2d2d                	addiw	s10,s10,11
    e298:	2d2d                	addiw	s10,s10,11
    e29a:	2d2d                	addiw	s10,s10,11
    e29c:	2d2d                	addiw	s10,s10,11
    e29e:	7544                	ld	s1,168(a0)
    e2a0:	706d                	c.lui	zero,0xffffb
    e2a2:	5220                	lw	s0,96(a2)
    e2a4:	6765                	lui	a4,0x19
    e2a6:	7369                	lui	t1,0xffffa
    e2a8:	6574                	ld	a3,200(a0)
    e2aa:	7372                	ld	t1,312(sp)
    e2ac:	2d2d                	addiw	s10,s10,11
    e2ae:	2d2d                	addiw	s10,s10,11
    e2b0:	2d2d                	addiw	s10,s10,11
    e2b2:	2d2d                	addiw	s10,s10,11
    e2b4:	2d2d                	addiw	s10,s10,11
    e2b6:	2d2d                	addiw	s10,s10,11
    e2b8:	2d2d                	addiw	s10,s10,11
    e2ba:	2d2d                	addiw	s10,s10,11
    e2bc:	0a2d                	addi	s4,s4,11
    e2be:	0000                	unimp
    e2c0:	7546                	ld	a0,112(sp)
    e2c2:	636e                	ld	t1,216(sp)
    e2c4:	6974                	ld	a3,208(a0)
    e2c6:	52206e6f          	jal	t3,0x147e8
    e2ca:	6765                	lui	a4,0x19
    e2cc:	7369                	lui	t1,0xffffa
    e2ce:	6574                	ld	a3,200(a0)
    e2d0:	7372                	ld	t1,312(sp)
    e2d2:	0a3a                	slli	s4,s4,0xe
    e2d4:	0000                	unimp
    e2d6:	0000                	unimp
    e2d8:	7209                	lui	tp,0xfffe2
    e2da:	2861                	addiw	a6,a6,24
    e2dc:	3178                	fld	fa4,224(a0)
    e2de:	2029                	0x2029
    e2e0:	203d                	0x203d
    e2e2:	7830                	ld	a2,112(s0)
    e2e4:	7025                	c.lui	zero,0xfffe9
    e2e6:	7509                	lui	a0,0xfffe2
    e2e8:	5f726573          	csrrsi	a0,0x5f7,4
    e2ec:	3d207073          	csrci	0x3d2,0
    e2f0:	3020                	fld	fs0,96(s0)
    e2f2:	2578                	fld	fa4,200(a0)
    e2f4:	0a70                	addi	a2,sp,284
    e2f6:	0000                	unimp
    e2f8:	6709                	lui	a4,0x2
    e2fa:	2870                	fld	fa2,208(s0)
    e2fc:	3378                	fld	fa4,224(a4)
    e2fe:	2029                	0x2029
    e300:	203d                	0x203d
    e302:	7830                	ld	a2,112(s0)
    e304:	7025                	c.lui	zero,0xfffe9
    e306:	7409                	lui	s0,0xfffe2
    e308:	2870                	fld	fa2,208(s0)
    e30a:	3478                	fld	fa4,232(s0)
    e30c:	2029                	0x2029
    e30e:	203d                	0x203d
    e310:	7830                	ld	a2,112(s0)
    e312:	7025                	c.lui	zero,0xfffe9
    e314:	000a                	c.slli	zero,0x2
    e316:	0000                	unimp
    e318:	6554                	ld	a3,136(a0)
    e31a:	706d                	c.lui	zero,0xffffb
    e31c:	7261726f          	jal	tp,0x25a42
    e320:	2079                	0x2079
    e322:	6552                	ld	a0,272(sp)
    e324:	74736967          	0x74736967
    e328:	7265                	lui	tp,0xffff9
    e32a:	000a3a73          	csrrc	s4,ustatus,s4
    e32e:	0000                	unimp
    e330:	7409                	lui	s0,0xfffe2
    e332:	2830                	fld	fa2,80(s0)
    e334:	3578                	fld	fa4,232(a0)
    e336:	2029                	0x2029
    e338:	203d                	0x203d
    e33a:	7830                	ld	a2,112(s0)
    e33c:	7025                	c.lui	zero,0xfffe9
    e33e:	7409                	lui	s0,0xfffe2
    e340:	2831                	addiw	a6,a6,12
    e342:	3678                	fld	fa4,232(a2)
    e344:	2029                	0x2029
    e346:	203d                	0x203d
    e348:	7830                	ld	a2,112(s0)
    e34a:	7025                	c.lui	zero,0xfffe9
    e34c:	000a                	c.slli	zero,0x2
    e34e:	0000                	unimp
    e350:	7409                	lui	s0,0xfffe2
    e352:	2832                	fld	fa6,264(sp)
    e354:	3778                	fld	fa4,232(a4)
    e356:	2029                	0x2029
    e358:	203d                	0x203d
    e35a:	7830                	ld	a2,112(s0)
    e35c:	7025                	c.lui	zero,0xfffe9
    e35e:	000a                	c.slli	zero,0x2
    e360:	7409                	lui	s0,0xfffe2
    e362:	32782833          	0x32782833
    e366:	2938                	fld	fa4,80(a0)
    e368:	3d20                	fld	fs0,120(a0)
    e36a:	3020                	fld	fs0,96(s0)
    e36c:	2578                	fld	fa4,200(a0)
    e36e:	0970                	addi	a2,sp,156
    e370:	3474                	fld	fa3,232(s0)
    e372:	7828                	ld	a0,112(s0)
    e374:	3932                	fld	fs2,296(sp)
    e376:	2029                	0x2029
    e378:	203d                	0x203d
    e37a:	7830                	ld	a2,112(s0)
    e37c:	7025                	c.lui	zero,0xfffe9
    e37e:	000a                	c.slli	zero,0x2
    e380:	7409                	lui	s0,0xfffe2
    e382:	2835                	addiw	a6,a6,13
    e384:	3378                	fld	fa4,224(a4)
    e386:	2930                	fld	fa2,80(a0)
    e388:	3d20                	fld	fs0,120(a0)
    e38a:	3020                	fld	fs0,96(s0)
    e38c:	2578                	fld	fa4,200(a0)
    e38e:	0970                	addi	a2,sp,156
    e390:	3674                	fld	fa3,232(a2)
    e392:	7828                	ld	a0,112(s0)
    e394:	20293133          	0x20293133
    e398:	203d                	0x203d
    e39a:	7830                	ld	a2,112(s0)
    e39c:	7025                	c.lui	zero,0xfffe9
    e39e:	000a                	c.slli	zero,0x2
    e3a0:	65766153          	0x65766153
    e3a4:	2064                	fld	fs1,192(s0)
    e3a6:	6552                	ld	a0,272(sp)
    e3a8:	74736967          	0x74736967
    e3ac:	7265                	lui	tp,0xffff9
    e3ae:	000a3a73          	csrrc	s4,ustatus,s4
    e3b2:	0000                	unimp
    e3b4:	0000                	unimp
    e3b6:	0000                	unimp
    e3b8:	7309                	lui	t1,0xfffe2
    e3ba:	2f30                	fld	fa2,88(a4)
    e3bc:	7066                	0x7066
    e3be:	7828                	ld	a0,112(s0)
    e3c0:	2938                	fld	fa4,80(a0)
    e3c2:	3d20                	fld	fs0,120(a0)
    e3c4:	3020                	fld	fs0,96(s0)
    e3c6:	2578                	fld	fa4,200(a0)
    e3c8:	0970                	addi	a2,sp,156
    e3ca:	78283173          	csrrc	sp,0x782,a6
    e3ce:	2939                	addiw	s2,s2,14
    e3d0:	3d20                	fld	fs0,120(a0)
    e3d2:	3020                	fld	fs0,96(s0)
    e3d4:	2578                	fld	fa4,200(a0)
    e3d6:	0a70                	addi	a2,sp,284
	...
    e3e0:	7309                	lui	t1,0xfffe2
    e3e2:	2832                	fld	fa6,264(sp)
    e3e4:	3178                	fld	fa4,224(a0)
    e3e6:	2938                	fld	fa4,80(a0)
    e3e8:	3d20                	fld	fs0,120(a0)
    e3ea:	3020                	fld	fs0,96(s0)
    e3ec:	2578                	fld	fa4,200(a0)
    e3ee:	0970                	addi	a2,sp,156
    e3f0:	78283373          	csrrc	t1,0x782,a6
    e3f4:	3931                	addiw	s2,s2,-20
    e3f6:	2029                	0x2029
    e3f8:	203d                	0x203d
    e3fa:	7830                	ld	a2,112(s0)
    e3fc:	7025                	c.lui	zero,0xfffe9
    e3fe:	000a                	c.slli	zero,0x2
    e400:	7309                	lui	t1,0xfffe2
    e402:	2834                	fld	fa3,80(s0)
    e404:	3278                	fld	fa4,224(a2)
    e406:	2930                	fld	fa2,80(a0)
    e408:	3d20                	fld	fs0,120(a0)
    e40a:	3020                	fld	fs0,96(s0)
    e40c:	2578                	fld	fa4,200(a0)
    e40e:	0970                	addi	a2,sp,156
    e410:	78283573          	csrrc	a0,0x782,a6
    e414:	3132                	fld	ft2,296(sp)
    e416:	2029                	0x2029
    e418:	203d                	0x203d
    e41a:	7830                	ld	a2,112(s0)
    e41c:	7025                	c.lui	zero,0xfffe9
    e41e:	000a                	c.slli	zero,0x2
    e420:	7309                	lui	t1,0xfffe2
    e422:	2836                	fld	fa6,328(sp)
    e424:	3278                	fld	fa4,224(a2)
    e426:	2932                	fld	fs2,264(sp)
    e428:	3d20                	fld	fs0,120(a0)
    e42a:	3020                	fld	fs0,96(s0)
    e42c:	2578                	fld	fa4,200(a0)
    e42e:	0970                	addi	a2,sp,156
    e430:	78283773          	csrrc	a4,0x782,a6
    e434:	3332                	fld	ft6,296(sp)
    e436:	2029                	0x2029
    e438:	203d                	0x203d
    e43a:	7830                	ld	a2,112(s0)
    e43c:	7025                	c.lui	zero,0xfffe9
    e43e:	000a                	c.slli	zero,0x2
    e440:	7309                	lui	t1,0xfffe2
    e442:	2838                	fld	fa4,80(s0)
    e444:	3278                	fld	fa4,224(a2)
    e446:	2934                	fld	fa3,80(a0)
    e448:	3d20                	fld	fs0,120(a0)
    e44a:	3020                	fld	fs0,96(s0)
    e44c:	2578                	fld	fa4,200(a0)
    e44e:	0970                	addi	a2,sp,156
    e450:	78283973          	csrrc	s2,0x782,a6
    e454:	3532                	fld	fa0,296(sp)
    e456:	2029                	0x2029
    e458:	203d                	0x203d
    e45a:	7830                	ld	a2,112(s0)
    e45c:	7025                	c.lui	zero,0xfffe9
    e45e:	000a                	c.slli	zero,0x2
    e460:	7309                	lui	t1,0xfffe2
    e462:	3031                	0x3031
    e464:	7828                	ld	a0,112(s0)
    e466:	3632                	fld	fa2,296(sp)
    e468:	2029                	0x2029
    e46a:	203d                	0x203d
    e46c:	7830                	ld	a2,112(s0)
    e46e:	7025                	c.lui	zero,0xfffe9
    e470:	7309                	lui	t1,0xfffe2
    e472:	3131                	addiw	sp,sp,-20
    e474:	7828                	ld	a0,112(s0)
    e476:	3732                	fld	fa4,296(sp)
    e478:	2029                	0x2029
    e47a:	203d                	0x203d
    e47c:	7830                	ld	a2,112(s0)
    e47e:	7025                	c.lui	zero,0xfffe9
    e480:	000a                	c.slli	zero,0x2
    e482:	0000                	unimp
    e484:	0000                	unimp
    e486:	0000                	unimp
    e488:	7546                	ld	a0,112(sp)
    e48a:	636e                	ld	t1,216(sp)
    e48c:	6974                	ld	a3,208(a0)
    e48e:	41206e6f          	jal	t3,0x148a0
    e492:	6772                	ld	a4,280(sp)
    e494:	6d75                	lui	s10,0x1d
    e496:	6e65                	lui	t3,0x19
    e498:	7374                	ld	a3,224(a4)
    e49a:	5220                	lw	s0,96(a2)
    e49c:	6765                	lui	a4,0x19
    e49e:	7369                	lui	t1,0xffffa
    e4a0:	6574                	ld	a3,200(a0)
    e4a2:	7372                	ld	t1,312(sp)
    e4a4:	0a3a                	slli	s4,s4,0xe
    e4a6:	0000                	unimp
    e4a8:	6109                	addi	sp,sp,128
    e4aa:	2830                	fld	fa2,80(s0)
    e4ac:	3178                	fld	fa4,224(a0)
    e4ae:	2930                	fld	fa2,80(a0)
    e4b0:	3d20                	fld	fs0,120(a0)
    e4b2:	3020                	fld	fs0,96(s0)
    e4b4:	2578                	fld	fa4,200(a0)
    e4b6:	0970                	addi	a2,sp,156
    e4b8:	3161                	addiw	sp,sp,-8
    e4ba:	7828                	ld	a0,112(s0)
    e4bc:	3131                	addiw	sp,sp,-20
    e4be:	2029                	0x2029
    e4c0:	203d                	0x203d
    e4c2:	7830                	ld	a2,112(s0)
    e4c4:	7025                	c.lui	zero,0xfffe9
    e4c6:	000a                	c.slli	zero,0x2
    e4c8:	6109                	addi	sp,sp,128
    e4ca:	2832                	fld	fa6,264(sp)
    e4cc:	3178                	fld	fa4,224(a0)
    e4ce:	2932                	fld	fs2,264(sp)
    e4d0:	3d20                	fld	fs0,120(a0)
    e4d2:	3020                	fld	fs0,96(s0)
    e4d4:	2578                	fld	fa4,200(a0)
    e4d6:	0970                	addi	a2,sp,156
    e4d8:	3361                	addiw	t1,t1,-8
    e4da:	7828                	ld	a0,112(s0)
    e4dc:	3331                	addiw	t1,t1,-20
    e4de:	2029                	0x2029
    e4e0:	203d                	0x203d
    e4e2:	7830                	ld	a2,112(s0)
    e4e4:	7025                	c.lui	zero,0xfffe9
    e4e6:	000a                	c.slli	zero,0x2
    e4e8:	6109                	addi	sp,sp,128
    e4ea:	2834                	fld	fa3,80(s0)
    e4ec:	3178                	fld	fa4,224(a0)
    e4ee:	2934                	fld	fa3,80(a0)
    e4f0:	3d20                	fld	fs0,120(a0)
    e4f2:	3020                	fld	fs0,96(s0)
    e4f4:	2578                	fld	fa4,200(a0)
    e4f6:	0970                	addi	a2,sp,156
    e4f8:	3561                	addiw	a0,a0,-8
    e4fa:	7828                	ld	a0,112(s0)
    e4fc:	3531                	addiw	a0,a0,-20
    e4fe:	2029                	0x2029
    e500:	203d                	0x203d
    e502:	7830                	ld	a2,112(s0)
    e504:	7025                	c.lui	zero,0xfffe9
    e506:	000a                	c.slli	zero,0x2
    e508:	6109                	addi	sp,sp,128
    e50a:	2836                	fld	fa6,328(sp)
    e50c:	3178                	fld	fa4,224(a0)
    e50e:	2936                	fld	fs2,328(sp)
    e510:	3d20                	fld	fs0,120(a0)
    e512:	3020                	fld	fs0,96(s0)
    e514:	2578                	fld	fa4,200(a0)
    e516:	0970                	addi	a2,sp,156
    e518:	3761                	addiw	a4,a4,-8
    e51a:	7828                	ld	a0,112(s0)
    e51c:	3731                	addiw	a4,a4,-20
    e51e:	2029                	0x2029
    e520:	203d                	0x203d
    e522:	7830                	ld	a2,112(s0)
    e524:	7025                	c.lui	zero,0xfffe9
    e526:	000a                	c.slli	zero,0x2
    e528:	7378                	ld	a4,224(a4)
    e52a:	6174                	ld	a3,192(a0)
    e52c:	7574                	ld	a3,232(a0)
    e52e:	203d2073          	csrs	hideleg,s10
    e532:	7830                	ld	a2,112(s0)
    e534:	7025                	c.lui	zero,0xfffe9
    e536:	000a                	c.slli	zero,0x2
    e538:	2509                	addiw	a0,a0,2
    e53a:	00000a73          	0xa73
    e53e:	0000                	unimp
    e540:	70746173          	csrrsi	sp,0x707,8
    e544:	3d20                	fld	fs0,120(a0)
    e546:	3020                	fld	fs0,96(s0)
    e548:	2578                	fld	fa4,200(a0)
    e54a:	0a70                	addi	a2,sp,284
    e54c:	0000                	unimp
    e54e:	0000                	unimp
    e550:	4d09                	li	s10,2
    e552:	2065646f          	jal	s0,0x64758
    e556:	203d                	0x203d
    e558:	7325                	lui	t1,0xfffe9
    e55a:	000a                	c.slli	zero,0x2
    e55c:	0000                	unimp
    e55e:	0000                	unimp
    e560:	2d2d                	addiw	s10,s10,11
    e562:	2d2d                	addiw	s10,s10,11
    e564:	2d2d                	addiw	s10,s10,11
    e566:	2d2d                	addiw	s10,s10,11
    e568:	2d2d                	addiw	s10,s10,11
    e56a:	2d2d                	addiw	s10,s10,11
    e56c:	2d2d                	addiw	s10,s10,11
    e56e:	2d2d                	addiw	s10,s10,11
    e570:	442d                	li	s0,11
    e572:	6d75                	lui	s10,0x1d
    e574:	2070                	fld	fa2,192(s0)
    e576:	2d2d4b4f          	0x2d2d4b4f
    e57a:	2d2d                	addiw	s10,s10,11
    e57c:	2d2d                	addiw	s10,s10,11
    e57e:	2d2d                	addiw	s10,s10,11
    e580:	2d2d                	addiw	s10,s10,11
    e582:	2d2d                	addiw	s10,s10,11
    e584:	2d2d                	addiw	s10,s10,11
    e586:	2d2d                	addiw	s10,s10,11
    e588:	2d2d                	addiw	s10,s10,11
    e58a:	2d2d                	addiw	s10,s10,11
    e58c:	0a2d                	addi	s4,s4,11
    e58e:	0000                	unimp
    e590:	6378                	ld	a4,192(a4)
    e592:	7561                	lui	a0,0xffff8
    e594:	3d206573          	csrrsi	a0,0x3d2,0
    e598:	2520                	fld	fs0,72(a0)
    e59a:	3830                	fld	fa2,112(s0)
    e59c:	2c78                	fld	fa4,216(s0)
    e59e:	7478                	ld	a4,232(s0)
    e5a0:	6176                	ld	sp,344(sp)
    e5a2:	206c                	fld	fa1,192(s0)
    e5a4:	203d                	0x203d
    e5a6:	3025                	0x3025
    e5a8:	7838                	ld	a4,112(s0)
    e5aa:	782c                	ld	a1,112(s0)
    e5ac:	7065                	c.lui	zero,0xffff9
    e5ae:	203d2063          	0x203d2063
    e5b2:	3025                	0x3025
    e5b4:	7838                	ld	a4,112(s0)
    e5b6:	000a                	c.slli	zero,0x2
    e5b8:	450a                	lw	a0,128(sp)
    e5ba:	6378                	ld	a4,192(a4)
    e5bc:	7065                	c.lui	zero,0xffff9
    e5be:	6974                	ld	a3,208(a0)
    e5c0:	0a3a6e6f          	jal	t3,0xb4e62
    e5c4:	0000                	unimp
    e5c6:	0000                	unimp
    e5c8:	6e49                	lui	t3,0x12
    e5ca:	75727473          	csrrci	s0,0x757,4
    e5ce:	6f697463          	bgeu	s2,s6,0xecb6
    e5d2:	206e                	fld	ft0,216(sp)
    e5d4:	6461                	lui	s0,0x18
    e5d6:	7264                	ld	s1,224(a2)
    e5d8:	7365                	lui	t1,0xffff9
    e5da:	696d2073          	csrs	0x696,s10
    e5de:	696c6173          	csrrsi	sp,0x696,24
    e5e2:	64656e67          	0x64656e67
    e5e6:	0000                	unimp
    e5e8:	6e49                	lui	t3,0x12
    e5ea:	75727473          	csrrci	s0,0x757,4
    e5ee:	6f697463          	bgeu	s2,s6,0xecd6
    e5f2:	206e                	fld	ft0,216(sp)
    e5f4:	6361                	lui	t1,0x18
    e5f6:	73736563          	bltu	t1,s7,0xed20
    e5fa:	6620                	ld	s0,72(a2)
    e5fc:	7561                	lui	a0,0xffff8
    e5fe:	746c                	ld	a1,232(s0)
	...
    e608:	6c49                	lui	s8,0x12
    e60a:	656c                	ld	a1,200(a0)
    e60c:	206c6167          	0x206c6167
    e610:	6e69                	lui	t3,0x1a
    e612:	75727473          	csrrci	s0,0x757,4
    e616:	6f697463          	bgeu	s2,s6,0xecfe
    e61a:	006e                	c.slli	zero,0x1b
    e61c:	0000                	unimp
    e61e:	0000                	unimp
    e620:	7242                	ld	tp,48(sp)
    e622:	6165                	addi	sp,sp,112
    e624:	696f706b          	0x696f706b
    e628:	746e                	ld	s0,248(sp)
    e62a:	0000                	unimp
    e62c:	0000                	unimp
    e62e:	0000                	unimp
    e630:	6f4c                	ld	a1,152(a4)
    e632:	6461                	lui	s0,0x18
    e634:	6120                	ld	s0,64(a0)
    e636:	6464                	ld	s1,200(s0)
    e638:	6572                	ld	a0,280(sp)
    e63a:	6d207373          	csrrci	t1,0x6d2,0
    e63e:	7369                	lui	t1,0xffffa
    e640:	6c61                	lui	s8,0x18
    e642:	6769                	lui	a4,0x1a
    e644:	656e                	ld	a0,216(sp)
    e646:	0064                	addi	s1,sp,12
    e648:	6f4c                	ld	a1,152(a4)
    e64a:	6461                	lui	s0,0x18
    e64c:	6120                	ld	s0,64(a0)
    e64e:	73656363          	bltu	a0,s6,0xed74
    e652:	61662073          	csrs	0x616,a2
    e656:	6c75                	lui	s8,0x1d
    e658:	0074                	addi	a3,sp,12
    e65a:	0000                	unimp
    e65c:	0000                	unimp
    e65e:	0000                	unimp
    e660:	726f7453          	0x726f7453
    e664:	2065                	0x2065
    e666:	6461                	lui	s0,0x18
    e668:	7264                	ld	s1,224(a2)
    e66a:	7365                	lui	t1,0xffff9
    e66c:	696d2073          	csrs	0x696,s10
    e670:	696c6173          	csrrsi	sp,0x696,24
    e674:	64656e67          	0x64656e67
	...
    e680:	726f7453          	0x726f7453
    e684:	2065                	0x2065
    e686:	6361                	lui	t1,0x18
    e688:	73736563          	bltu	t1,s7,0xedb2
    e68c:	6620                	ld	s0,72(a2)
    e68e:	7561                	lui	a0,0xffff8
    e690:	746c                	ld	a1,232(s0)
    e692:	0000                	unimp
    e694:	0000                	unimp
    e696:	0000                	unimp
    e698:	6e45                	lui	t3,0x11
    e69a:	6976                	ld	s2,344(sp)
    e69c:	6f72                	ld	t5,280(sp)
    e69e:	6d6e                	ld	s10,216(sp)
    e6a0:	6e65                	lui	t3,0x19
    e6a2:	2074                	fld	fa3,192(s0)
    e6a4:	6c6c6163          	bltu	s8,t1,0xed66
    e6a8:	6620                	ld	s0,72(a2)
    e6aa:	6f72                	ld	t5,280(sp)
    e6ac:	206d                	0x206d
    e6ae:	2d55                	addiw	s10,s10,21
    e6b0:	6f6d                	lui	t5,0x1b
    e6b2:	6564                	ld	s1,200(a0)
    e6b4:	0000                	unimp
    e6b6:	0000                	unimp
    e6b8:	6e45                	lui	t3,0x11
    e6ba:	6976                	ld	s2,344(sp)
    e6bc:	6f72                	ld	t5,280(sp)
    e6be:	6d6e                	ld	s10,216(sp)
    e6c0:	6e65                	lui	t3,0x19
    e6c2:	2074                	fld	fa3,192(s0)
    e6c4:	6c6c6163          	bltu	s8,t1,0xed86
    e6c8:	6620                	ld	s0,72(a2)
    e6ca:	6f72                	ld	t5,280(sp)
    e6cc:	206d                	0x206d
    e6ce:	6f6d2d53          	0x6f6d2d53
    e6d2:	6564                	ld	s1,200(a0)
    e6d4:	0000                	unimp
    e6d6:	0000                	unimp
    e6d8:	6e45                	lui	t3,0x11
    e6da:	6976                	ld	s2,344(sp)
    e6dc:	6f72                	ld	t5,280(sp)
    e6de:	6d6e                	ld	s10,216(sp)
    e6e0:	6e65                	lui	t3,0x19
    e6e2:	2074                	fld	fa3,192(s0)
    e6e4:	6c6c6163          	bltu	s8,t1,0xeda6
    e6e8:	6620                	ld	s0,72(a2)
    e6ea:	6f72                	ld	t5,280(sp)
    e6ec:	206d                	0x206d
    e6ee:	2d48                	fld	fa0,152(a0)
    e6f0:	6f6d                	lui	t5,0x1b
    e6f2:	6564                	ld	s1,200(a0)
    e6f4:	0000                	unimp
    e6f6:	0000                	unimp
    e6f8:	6e45                	lui	t3,0x11
    e6fa:	6976                	ld	s2,344(sp)
    e6fc:	6f72                	ld	t5,280(sp)
    e6fe:	6d6e                	ld	s10,216(sp)
    e700:	6e65                	lui	t3,0x19
    e702:	2074                	fld	fa3,192(s0)
    e704:	6c6c6163          	bltu	s8,t1,0xedc6
    e708:	6620                	ld	s0,72(a2)
    e70a:	6f72                	ld	t5,280(sp)
    e70c:	206d                	0x206d
    e70e:	2d4d                	addiw	s10,s10,19
    e710:	6f6d                	lui	t5,0x1b
    e712:	6564                	ld	s1,200(a0)
    e714:	0000                	unimp
    e716:	0000                	unimp
    e718:	6b55                	lui	s6,0x15
    e71a:	6f6e                	ld	t5,216(sp)
    e71c:	65206e77          	0x65206e77
    e720:	6378                	ld	a4,192(a4)
    e722:	7065                	c.lui	zero,0xffff9
    e724:	6974                	ld	a3,208(a0)
    e726:	3a206e6f          	jal	t3,0x14ac8
    e72a:	2520                	fld	fs0,72(a0)
    e72c:	3830                	fld	fa2,112(s0)
    e72e:	586c                	lw	a1,116(s0)
	...
    e738:	7865                	lui	a6,0xffff9
    e73a:	74706563          	bltu	zero,t2,0xee84
    e73e:	6f69                	lui	t5,0x1a
    e740:	206e                	fld	ft0,216(sp)
    e742:	6370                	ld	a2,192(a4)
    e744:	3d20                	fld	fs0,120(a0)
    e746:	203e                	fld	ft0,456(sp)
    e748:	7830                	ld	a2,112(s0)
    e74a:	3025                	0x3025
    e74c:	7838                	ld	a4,112(s0)
    e74e:	000a                	c.slli	zero,0x2
    e750:	72727563          	bgeu	tp,t2,0xee7a
    e754:	6e65                	lui	t3,0x19
    e756:	2074                	fld	fa3,192(s0)
    e758:	6874                	ld	a3,208(s0)
    e75a:	6572                	ld	a0,280(sp)
    e75c:	6461                	lui	s0,0x18
    e75e:	203a                	fld	ft0,392(sp)
    e760:	2e25                	addiw	t3,t3,9
    e762:	732a                	ld	t1,168(sp)
    e764:	000a                	c.slli	zero,0x2
    e766:	0000                	unimp
    e768:	7018                	ld	a4,32(s0)
    e76a:	ffff                	0xffff
    e76c:	7064                	ld	s1,224(s0)
    e76e:	ffff                	0xffff
    e770:	7070                	ld	a2,224(s0)
    e772:	ffff                	0xffff
    e774:	707c                	ld	a5,224(s0)
    e776:	ffff                	0xffff
    e778:	7088                	ld	a0,32(s1)
    e77a:	ffff                	0xffff
    e77c:	7094                	ld	a3,32(s1)
    e77e:	ffff                	0xffff
    e780:	70a0                	ld	s0,96(s1)
    e782:	ffff                	0xffff
    e784:	70ac                	ld	a1,96(s1)
    e786:	ffff                	0xffff
    e788:	70b8                	ld	a4,96(s1)
    e78a:	ffff                	0xffff
    e78c:	70c4                	ld	s1,160(s1)
    e78e:	ffff                	0xffff
    e790:	70d0                	ld	a2,160(s1)
    e792:	ffff                	0xffff
    e794:	70dc                	ld	a5,160(s1)
    e796:	ffff                	0xffff
    e798:	6f4e                	ld	t5,208(sp)
    e79a:	4120                	lw	s0,64(a0)
    e79c:	6464                	ld	s1,200(s0)
    e79e:	6572                	ld	a0,280(sp)
    e7a0:	54207373          	csrrci	t1,0x542,0
    e7a4:	6172                	ld	sp,280(sp)
    e7a6:	736e                	ld	t1,248(sp)
    e7a8:	616c                	ld	a1,192(a0)
    e7aa:	6974                	ld	a3,208(a0)
    e7ac:	502f6e6f          	jal	t3,0x104cae
    e7b0:	6f72                	ld	t5,280(sp)
    e7b2:	6574                	ld	a3,200(a0)
    e7b4:	6f697463          	bgeu	s2,s6,0xee9c
    e7b8:	206e                	fld	ft0,216(sp)
    e7ba:	6f4d                	lui	t5,0x13
    e7bc:	6564                	ld	s1,200(a0)
    e7be:	0000                	unimp
    e7c0:	6150                	ld	a2,128(a0)
    e7c2:	622d6567          	0x622d6567
    e7c6:	7361                	lui	t1,0xffff8
    e7c8:	6465                	lui	s0,0x19
    e7ca:	3320                	fld	fs0,96(a4)
    e7cc:	2d39                	addiw	s10,s10,14
    e7ce:	6962                	ld	s2,24(sp)
    e7d0:	2074                	fld	fa3,192(s0)
    e7d2:	6956                	ld	s2,336(sp)
    e7d4:	7472                	ld	s0,312(sp)
    e7d6:	6175                	addi	sp,sp,368
    e7d8:	206c                	fld	fa1,192(s0)
    e7da:	6441                	lui	s0,0x10
    e7dc:	7264                	ld	s1,224(a2)
    e7de:	7365                	lui	t1,0xffff9
    e7e0:	676e6973          	csrrsi	s2,0x676,28
    e7e4:	4d20                	lw	s0,88(a0)
    e7e6:	0065646f          	jal	s0,0x647ec
    e7ea:	0000                	unimp
    e7ec:	0000                	unimp
    e7ee:	0000                	unimp
    e7f0:	6150                	ld	a2,128(a0)
    e7f2:	622d6567          	0x622d6567
    e7f6:	7361                	lui	t1,0xffff8
    e7f8:	6465                	lui	s0,0x19
    e7fa:	3420                	fld	fs0,104(s0)
    e7fc:	2d38                	fld	fa4,88(a0)
    e7fe:	6962                	ld	s2,24(sp)
    e800:	2074                	fld	fa3,192(s0)
    e802:	6956                	ld	s2,336(sp)
    e804:	7472                	ld	s0,312(sp)
    e806:	6175                	addi	sp,sp,368
    e808:	206c                	fld	fa1,192(s0)
    e80a:	6441                	lui	s0,0x10
    e80c:	7264                	ld	s1,224(a2)
    e80e:	7365                	lui	t1,0xffff9
    e810:	676e6973          	csrrsi	s2,0x676,28
    e814:	4d20                	lw	s0,88(a0)
    e816:	0065646f          	jal	s0,0x6481c
    e81a:	0000                	unimp
    e81c:	0000                	unimp
    e81e:	0000                	unimp
    e820:	e798                	sd	a4,8(a5)
    e822:	0000                	unimp
    e824:	0000                	unimp
    e826:	0000                	unimp
    e828:	e260                	sd	s0,192(a2)
    e82a:	0000                	unimp
    e82c:	0000                	unimp
    e82e:	0000                	unimp
    e830:	e260                	sd	s0,192(a2)
    e832:	0000                	unimp
    e834:	0000                	unimp
    e836:	0000                	unimp
    e838:	e260                	sd	s0,192(a2)
    e83a:	0000                	unimp
    e83c:	0000                	unimp
    e83e:	0000                	unimp
    e840:	e260                	sd	s0,192(a2)
    e842:	0000                	unimp
    e844:	0000                	unimp
    e846:	0000                	unimp
    e848:	e260                	sd	s0,192(a2)
    e84a:	0000                	unimp
    e84c:	0000                	unimp
    e84e:	0000                	unimp
    e850:	e260                	sd	s0,192(a2)
    e852:	0000                	unimp
    e854:	0000                	unimp
    e856:	0000                	unimp
    e858:	e260                	sd	s0,192(a2)
    e85a:	0000                	unimp
    e85c:	0000                	unimp
    e85e:	0000                	unimp
    e860:	e7c0                	sd	s0,136(a5)
    e862:	0000                	unimp
    e864:	0000                	unimp
    e866:	0000                	unimp
    e868:	e7f0                	sd	a2,200(a5)
    e86a:	0000                	unimp
    e86c:	0000                	unimp
    e86e:	0000                	unimp
    e870:	7872                	ld	a6,312(sp)
    e872:	665f 6669 206f      	0x206f6669665f
    e878:	3d21                	addiw	s10,s10,-24
    e87a:	5220                	lw	s0,96(a2)
    e87c:	5f54                	lw	a3,60(a4)
    e87e:	554e                	lw	a0,240(sp)
    e880:	4c4c                	lw	a1,28(s0)
    e882:	0000                	unimp
    e884:	0000                	unimp
    e886:	0000                	unimp
    e888:	7872                	ld	a6,312(sp)
    e88a:	645f 616d 2120      	0x2120616d645f
    e890:	203d                	0x203d
    e892:	5452                	lw	s0,52(sp)
    e894:	4e5f 4c55 004c      	0x4c4c554e5f
    e89a:	0000                	unimp
    e89c:	0000                	unimp
    e89e:	0000                	unimp
    e8a0:	7874                	ld	a3,240(s0)
    e8a2:	665f 6669 206f      	0x206f6669665f
    e8a8:	3d21                	addiw	s10,s10,-24
    e8aa:	5220                	lw	s0,96(a2)
    e8ac:	5f54                	lw	a3,60(a4)
    e8ae:	554e                	lw	a0,240(sp)
    e8b0:	4c4c                	lw	a1,28(s0)
    e8b2:	0000                	unimp
    e8b4:	0000                	unimp
    e8b6:	0000                	unimp
    e8b8:	7874                	ld	a3,240(s0)
    e8ba:	645f 616d 2120      	0x2120616d645f
    e8c0:	203d                	0x203d
    e8c2:	5452                	lw	s0,52(sp)
    e8c4:	4e5f 4c55 004c      	0x4c4c554e5f
    e8ca:	0000                	unimp
    e8cc:	0000                	unimp
    e8ce:	0000                	unimp
    e8d0:	7874                	ld	a3,240(s0)
    e8d2:	2120                	fld	fs0,64(a0)
    e8d4:	203d                	0x203d
    e8d6:	5452                	lw	s0,52(sp)
    e8d8:	4e5f 4c55 004c      	0x4c4c554e5f
    e8de:	0000                	unimp
    e8e0:	7328                	ld	a0,96(a4)
    e8e2:	7265                	lui	tp,0xffff9
    e8e4:	6169                	addi	sp,sp,208
    e8e6:	206c                	fld	fa1,192(s0)
    e8e8:	3d21                	addiw	s10,s10,-24
    e8ea:	5220                	lw	s0,96(a2)
    e8ec:	5f54                	lw	a3,60(a4)
    e8ee:	554e                	lw	a0,240(sp)
    e8f0:	4c4c                	lw	a1,28(s0)
    e8f2:	2029                	0x2029
    e8f4:	2626                	fld	fa2,72(sp)
    e8f6:	2820                	fld	fs0,80(s0)
    e8f8:	6164                	ld	s1,192(a0)
    e8fa:	6174                	ld	a3,192(a0)
    e8fc:	2120                	fld	fs0,64(a0)
    e8fe:	203d                	0x203d
    e900:	5452                	lw	s0,52(sp)
    e902:	4e5f 4c55 294c      	0x294c4c554e5f
	...
    e910:	69726573          	csrrsi	a0,0x697,4
    e914:	6c61                	lui	s8,0x18
    e916:	3e2d                	addiw	t3,t3,-21
    e918:	2d73706f          	j	0x463ee
    e91c:	643e                	ld	s0,456(sp)
    e91e:	616d                	addi	sp,sp,240
    e920:	745f 6172 736e      	0x736e6172745f
    e926:	696d                	lui	s2,0x1b
    e928:	2074                	fld	fa3,192(s0)
    e92a:	3d21                	addiw	s10,s10,-24
    e92c:	5220                	lw	s0,96(a2)
    e92e:	5f54                	lw	a3,60(a4)
    e930:	554e                	lw	a0,240(sp)
    e932:	4c4c                	lw	a1,28(s0)
    e934:	0000                	unimp
    e936:	0000                	unimp
    e938:	656c                	ld	a1,200(a0)
    e93a:	206e                	fld	ft0,216(sp)
    e93c:	3d3c                	fld	fa5,120(a0)
    e93e:	7220                	ld	s0,96(a2)
    e940:	5f74                	lw	a3,124(a4)
    e942:	6d64                	ld	s1,216(a0)
    e944:	5f61                	li	t5,-8
    e946:	636c6163          	bltu	s8,s6,0xef68
    e94a:	725f 6365 6576      	0x65766365725f
    e950:	5f64                	lw	s1,124(a4)
    e952:	656c                	ld	a1,200(a0)
    e954:	286e                	fld	fa6,216(sp)
    e956:	69726573          	csrrsi	a0,0x697,4
    e95a:	6c61                	lui	s8,0x18
    e95c:	0029                	c.nop	10
    e95e:	0000                	unimp
    e960:	735f 7265 6169      	0x61697265735f
    e966:	5f6c                	lw	a1,124(a4)
    e968:	6e69                	lui	t3,0x1a
    e96a:	5f74                	lw	a3,124(a4)
    e96c:	7872                	ld	a6,312(sp)
    e96e:	0000                	unimp
    e970:	735f 7265 6169      	0x61697265735f
    e976:	5f6c                	lw	a1,124(a4)
    e978:	6e69                	lui	t3,0x1a
    e97a:	5f74                	lw	a3,124(a4)
    e97c:	7874                	ld	a3,240(s0)
    e97e:	0000                	unimp
    e980:	735f 7265 6169      	0x61697265735f
    e986:	5f6c                	lw	a1,124(a4)
    e988:	6966                	ld	s2,88(sp)
    e98a:	6f66                	ld	t5,88(sp)
    e98c:	635f 6c61 5f63      	0x5f636c61635f
    e992:	6572                	ld	a0,280(sp)
    e994:	64657663          	bgeu	a0,t1,0xefe0
    e998:	6c5f 6e65 0000      	0x6e656c5f
    e99e:	0000                	unimp
    e9a0:	7472                	ld	s0,312(sp)
    e9a2:	645f 616d 725f      	0x725f616d645f
    e9a8:	6365                	lui	t1,0x19
    e9aa:	5f76                	lw	t5,124(sp)
    e9ac:	7075                	c.lui	zero,0xffffd
    e9ae:	6164                	ld	s1,192(a0)
    e9b0:	6574                	ld	a3,200(a0)
    e9b2:	675f 7465 695f      	0x695f7465675f
    e9b8:	646e                	ld	s0,216(sp)
    e9ba:	7865                	lui	a6,0xffff9
    e9bc:	0000                	unimp
    e9be:	0000                	unimp
    e9c0:	735f 7265 6169      	0x61697265735f
    e9c6:	5f6c                	lw	a1,124(a4)
    e9c8:	6d64                	ld	s1,216(a0)
    e9ca:	5f61                	li	t5,-8
    e9cc:	7872                	ld	a6,312(sp)
    e9ce:	0000                	unimp
    e9d0:	7472                	ld	s0,312(sp)
    e9d2:	735f 7265 6169      	0x61697265735f
    e9d8:	5f6c                	lw	a1,124(a4)
    e9da:	6e69                	lui	t3,0x1a
    e9dc:	7469                	lui	s0,0xffffa
    e9de:	0000                	unimp
    e9e0:	7472                	ld	s0,312(sp)
    e9e2:	735f 7265 6169      	0x61697265735f
    e9e8:	5f6c                	lw	a1,124(a4)
    e9ea:	6e65706f          	j	0x660d0
    e9ee:	0000                	unimp
    e9f0:	7472                	ld	s0,312(sp)
    e9f2:	735f 7265 6169      	0x61697265735f
    e9f8:	5f6c                	lw	a1,124(a4)
    e9fa:	736f6c63          	bltu	t5,s6,0xf132
    e9fe:	0065                	c.nop	25
    ea00:	7472                	ld	s0,312(sp)
    ea02:	735f 7265 6169      	0x61697265735f
    ea08:	5f6c                	lw	a1,124(a4)
    ea0a:	6572                	ld	a0,280(sp)
    ea0c:	6461                	lui	s0,0x18
    ea0e:	0000                	unimp
    ea10:	7472                	ld	s0,312(sp)
    ea12:	735f 7265 6169      	0x61697265735f
    ea18:	5f6c                	lw	a1,124(a4)
    ea1a:	74697277          	0x74697277
    ea1e:	0065                	c.nop	25
    ea20:	7472                	ld	s0,312(sp)
    ea22:	735f 7265 6169      	0x61697265735f
    ea28:	5f6c                	lw	a1,124(a4)
    ea2a:	746e6f63          	bltu	t3,t1,0xf188
    ea2e:	6f72                	ld	t5,280(sp)
    ea30:	006c                	addi	a1,sp,12
    ea32:	0000                	unimp
    ea34:	0000                	unimp
    ea36:	0000                	unimp
    ea38:	7472                	ld	s0,312(sp)
    ea3a:	685f 5f77 6573      	0x65735f77685f
    ea40:	6972                	ld	s2,280(sp)
    ea42:	6c61                	lui	s8,0x18
    ea44:	725f 6765 7369      	0x73696765725f
    ea4a:	6574                	ld	a3,200(a0)
    ea4c:	0072                	c.slli	zero,0x1c
    ea4e:	0000                	unimp
    ea50:	706d6f63          	bltu	s10,t1,0xf16e
    ea54:	656c                	ld	a1,200(a0)
    ea56:	6974                	ld	a3,208(a0)
    ea58:	21206e6f          	jal	t3,0x14c6a
    ea5c:	203d                	0x203d
    ea5e:	5452                	lw	s0,52(sp)
    ea60:	4e5f 4c55 004c      	0x4c4c554e5f
    ea66:	0000                	unimp
    ea68:	7472                	ld	s0,312(sp)
    ea6a:	6c5f 7369 5f74      	0x5f7473696c5f
    ea70:	7369                	lui	t1,0xffffa
    ea72:	6d65                	lui	s10,0x19
    ea74:	7470                	ld	a2,232(s0)
    ea76:	2879                	addiw	a6,a6,30
    ea78:	2826                	fld	fa6,72(sp)
    ea7a:	706d6f63          	bltu	s10,t1,0xf198
    ea7e:	656c                	ld	a1,200(a0)
    ea80:	6974                	ld	a3,208(a0)
    ea82:	3e2d6e6f          	jal	t3,0xe4e64
    ea86:	70737573          	csrrci	a0,0x707,6
    ea8a:	6e65                	lui	t3,0x19
    ea8c:	6564                	ld	s1,200(a0)
    ea8e:	5f64                	lw	s1,124(a4)
    ea90:	696c                	ld	a1,208(a0)
    ea92:	29297473          	csrrci	s0,0x292,18
    ea96:	0000                	unimp
    ea98:	7472                	ld	s0,312(sp)
    ea9a:	635f 6d6f 6c70      	0x6c706d6f635f
    eaa0:	7465                	lui	s0,0xffff9
    eaa2:	6f69                	lui	t5,0x1a
    eaa4:	5f6e                	lw	t5,248(sp)
    eaa6:	6e69                	lui	t3,0x1a
    eaa8:	7469                	lui	s0,0xffffa
    eaaa:	0000                	unimp
    eaac:	0000                	unimp
    eaae:	0000                	unimp
    eab0:	7472                	ld	s0,312(sp)
    eab2:	635f 6d6f 6c70      	0x6c706d6f635f
    eab8:	7465                	lui	s0,0xffff9
    eaba:	6f69                	lui	t5,0x1a
    eabc:	5f6e                	lw	t5,248(sp)
    eabe:	74696177          	0x74696177
    eac2:	0000                	unimp
    eac4:	0000                	unimp
    eac6:	0000                	unimp
    eac8:	7571                	lui	a0,0xffffc
    eaca:	7565                	lui	a0,0xffff9
    eacc:	2065                	0x2065
    eace:	3d21                	addiw	s10,s10,-24
    ead0:	5220                	lw	s0,96(a2)
    ead2:	5f54                	lw	a3,60(a4)
    ead4:	554e                	lw	a0,240(sp)
    ead6:	4c4c                	lw	a1,28(s0)
	...
    eae0:	657a6973          	csrrsi	s2,0x657,20
    eae4:	3e20                	fld	fs0,120(a2)
    eae6:	3020                	fld	fs0,96(s0)
	...
    eaf0:	7571                	lui	a0,0xffffc
    eaf2:	7565                	lui	a0,0xffff9
    eaf4:	2d65                	addiw	s10,s10,25
    eaf6:	6d3e                	ld	s10,456(sp)
    eaf8:	6761                	lui	a4,0x18
    eafa:	6369                	lui	t1,0x1a
    eafc:	3d20                	fld	fs0,120(a0)
    eafe:	203d                	0x203d
    eb00:	4144                	lw	s1,4(a0)
    eb02:	4154                	lw	a3,4(a0)
    eb04:	5551                	li	a0,-12
    eb06:	5545                	li	a0,-15
    eb08:	5f45                	li	t5,-15
    eb0a:	414d                	li	sp,19
    eb0c:	00434947          	fmsub.s	fs2,ft6,ft4,ft0,rmm
    eb10:	7472                	ld	s0,312(sp)
    eb12:	645f 7461 5f61      	0x5f617461645f
    eb18:	7571                	lui	a0,0xffffc
    eb1a:	7565                	lui	a0,0xffff9
    eb1c:	5f65                	li	t5,-7
    eb1e:	6e69                	lui	t3,0x1a
    eb20:	7469                	lui	s0,0xffffa
    eb22:	0000                	unimp
    eb24:	0000                	unimp
    eb26:	0000                	unimp
    eb28:	7472                	ld	s0,312(sp)
    eb2a:	645f 7461 5f61      	0x5f617461645f
    eb30:	7571                	lui	a0,0xffffc
    eb32:	7565                	lui	a0,0xffff9
    eb34:	5f65                	li	t5,-7
    eb36:	7570                	ld	a2,232(a0)
    eb38:	00006873          	csrrsi	a6,ustatus,0
    eb3c:	0000                	unimp
    eb3e:	0000                	unimp
    eb40:	7472                	ld	s0,312(sp)
    eb42:	645f 7461 5f61      	0x5f617461645f
    eb48:	7571                	lui	a0,0xffffc
    eb4a:	7565                	lui	a0,0xffff9
    eb4c:	5f65                	li	t5,-7
    eb4e:	6572                	ld	a0,280(sp)
    eb50:	00746573          	csrrsi	a0,0x7,8
    eb54:	0000                	unimp
    eb56:	0000                	unimp
    eb58:	7472                	ld	s0,312(sp)
    eb5a:	645f 7461 5f61      	0x5f617461645f
    eb60:	7571                	lui	a0,0xffffc
    eb62:	7565                	lui	a0,0xffff9
    eb64:	5f65                	li	t5,-7
    eb66:	6564                	ld	s1,200(a0)
    eb68:	6e69                	lui	t3,0x1a
    eb6a:	7469                	lui	s0,0xffffa
    eb6c:	0000                	unimp
    eb6e:	0000                	unimp
    eb70:	685f 5f77 6970      	0x69705f77685f
    eb76:	2e6e                	fld	ft8,216(sp)
    eb78:	2073706f          	j	0x4657e
    eb7c:	3d21                	addiw	s10,s10,-24
    eb7e:	5220                	lw	s0,96(a2)
    eb80:	5f54                	lw	a3,60(a4)
    eb82:	554e                	lw	a0,240(sp)
    eb84:	4c4c                	lw	a1,28(s0)
    eb86:	0000                	unimp
    eb88:	616e                	ld	sp,216(sp)
    eb8a:	656d                	lui	a0,0x1b
    eb8c:	205d305b          	0x205d305b
    eb90:	3d3d                	addiw	s10,s10,-17
    eb92:	2720                	fld	fs0,72(a4)
    eb94:	2750                	fld	fa2,136(a4)
    eb96:	0000                	unimp
    eb98:	7472                	ld	s0,312(sp)
    eb9a:	705f 6e69 6d5f      	0x6d5f6e69705f
    eba0:	0065646f          	jal	s0,0x64ba6
    eba4:	0000                	unimp
    eba6:	0000                	unimp
    eba8:	7472                	ld	s0,312(sp)
    ebaa:	705f 6e69 775f      	0x775f6e69705f
    ebb0:	6972                	ld	s2,280(sp)
    ebb2:	6574                	ld	a3,200(a0)
    ebb4:	0000                	unimp
    ebb6:	0000                	unimp
    ebb8:	7472                	ld	s0,312(sp)
    ebba:	705f 6e69 725f      	0x725f6e69705f
    ebc0:	6165                	addi	sp,sp,112
    ebc2:	0064                	addi	s1,sp,12
    ebc4:	0000                	unimp
    ebc6:	0000                	unimp
    ebc8:	7472                	ld	s0,312(sp)
    ebca:	705f 6e69 675f      	0x675f6e69705f
    ebd0:	7465                	lui	s0,0xffff9
    ebd2:	0000                	unimp
    ebd4:	0000                	unimp
    ebd6:	0000                	unimp
    ebd8:	20746567          	0x20746567
    ebdc:	6970                	ld	a2,208(a0)
    ebde:	206e                	fld	ft0,216(sp)
    ebe0:	756e                	ld	a0,248(sp)
    ebe2:	626d                	lui	tp,0x1b
    ebe4:	7265                	lui	tp,0xffff9
    ebe6:	6620                	ld	s0,72(a2)
    ebe8:	6f72                	ld	t5,280(sp)
    ebea:	206d                	0x206d
    ebec:	6168                	ld	a0,192(a0)
    ebee:	6472                	ld	s0,280(sp)
    ebf0:	65726177          	0x65726177
    ebf4:	7020                	ld	s0,96(s0)
    ebf6:	6e69                	lui	t3,0x1a
	...
    ec00:	6970                	ld	a2,208(a0)
    ec02:	476e                	lw	a4,216(sp)
    ec04:	7465                	lui	s0,0xffff9
    ec06:	0000                	unimp
    ec08:	6572                	ld	a0,280(sp)
    ec0a:	6461                	lui	s0,0x18
    ec0c:	7320                	ld	s0,96(a4)
    ec0e:	6174                	ld	a3,192(a0)
    ec10:	7574                	ld	a3,232(a0)
    ec12:	72662073          	csrs	0x726,a2
    ec16:	68206d6f          	jal	s10,0x15298
    ec1a:	7261                	lui	tp,0xffff8
    ec1c:	7764                	ld	s1,232(a4)
    ec1e:	7261                	lui	tp,0xffff8
    ec20:	2065                	0x2065
    ec22:	6970                	ld	a2,208(a0)
    ec24:	006e                	c.slli	zero,0x1b
    ec26:	0000                	unimp
    ec28:	6970                	ld	a2,208(a0)
    ec2a:	526e                	lw	tp,248(sp)
    ec2c:	6165                	addi	sp,sp,112
    ec2e:	0064                	addi	s1,sp,12
    ec30:	74697277          	0x74697277
    ec34:	2065                	0x2065
    ec36:	6176                	ld	sp,344(sp)
    ec38:	756c                	ld	a1,232(a0)
    ec3a:	2065                	0x2065
    ec3c:	6f74                	ld	a3,216(a4)
    ec3e:	6820                	ld	s0,80(s0)
    ec40:	7261                	lui	tp,0xffff8
    ec42:	7764                	ld	s1,232(a4)
    ec44:	7261                	lui	tp,0xffff8
    ec46:	2065                	0x2065
    ec48:	6970                	ld	a2,208(a0)
    ec4a:	006e                	c.slli	zero,0x1b
    ec4c:	0000                	unimp
    ec4e:	0000                	unimp
    ec50:	6970                	ld	a2,208(a0)
    ec52:	576e                	lw	a4,248(sp)
    ec54:	6972                	ld	s2,280(sp)
    ec56:	6574                	ld	a3,200(a0)
	...
    ec60:	20746573          	csrrsi	a0,0x207,8
    ec64:	6168                	ld	a0,192(a0)
    ec66:	6472                	ld	s0,280(sp)
    ec68:	65726177          	0x65726177
    ec6c:	7020                	ld	s0,96(s0)
    ec6e:	6e69                	lui	t3,0x1a
    ec70:	6d20                	ld	s0,88(a0)
    ec72:	0065646f          	jal	s0,0x64c78
    ec76:	0000                	unimp
    ec78:	6970                	ld	a2,208(a0)
    ec7a:	4d6e                	lw	s10,216(sp)
    ec7c:	0065646f          	jal	s0,0x64c82
    ec80:	6466                	ld	s0,88(sp)
    ec82:	7420                	ld	s0,104(s0)
    ec84:	7079                	c.lui	zero,0xffffe
    ec86:	2065                	0x2065
    ec88:	2020                	fld	fs0,64(s0)
    ec8a:	7220                	ld	s0,96(a2)
    ec8c:	6665                	lui	a2,0x19
    ec8e:	6d20                	ld	s0,88(a0)
    ec90:	6761                	lui	a4,0x18
    ec92:	6369                	lui	t1,0x1a
    ec94:	2020                	fld	fs0,64(s0)
    ec96:	6170                	ld	a2,192(a0)
    ec98:	6874                	ld	a3,208(s0)
    ec9a:	000a                	c.slli	zero,0x2
    ec9c:	0000                	unimp
    ec9e:	0000                	unimp
    eca0:	2d2d                	addiw	s10,s10,11
    eca2:	2d20                	fld	fs0,88(a0)
    eca4:	2d2d                	addiw	s10,s10,11
    eca6:	2d2d                	addiw	s10,s10,11
    eca8:	202d                	0x202d
    ecaa:	2d20                	fld	fs0,88(a0)
    ecac:	2d2d                	addiw	s10,s10,11
    ecae:	2d20                	fld	fs0,88(a0)
    ecb0:	2d2d                	addiw	s10,s10,11
    ecb2:	2d2d                	addiw	s10,s10,11
    ecb4:	2d20                	fld	fs0,88(a0)
    ecb6:	2d2d                	addiw	s10,s10,11
    ecb8:	2d2d                	addiw	s10,s10,11
    ecba:	0a2d                	addi	s4,s4,11
    ecbc:	0000                	unimp
    ecbe:	0000                	unimp
    ecc0:	3225                	addiw	tp,tp,-23
    ecc2:	2064                	fld	fs1,192(s0)
    ecc4:	0000                	unimp
    ecc6:	0000                	unimp
    ecc8:	6964                	ld	s1,208(a0)
    ecca:	0072                	c.slli	zero,0x1c
    eccc:	0000                	unimp
    ecce:	0000                	unimp
    ecd0:	2d25                	addiw	s10,s10,9
    ecd2:	73372e37          	lui	t3,0x73372
    ecd6:	0020                	addi	s0,sp,8
    ecd8:	6966                	ld	s2,88(sp)
    ecda:	656c                	ld	a1,200(a0)
    ecdc:	0000                	unimp
    ecde:	0000                	unimp
    ece0:	6b636f73          	csrrsi	t5,0x6b6,6
    ece4:	7465                	lui	s0,0xffff9
    ece6:	0000                	unimp
    ece8:	7375                	lui	t1,0xffffd
    ecea:	7265                	lui	tp,0xffff9
    ecec:	0000                	unimp
    ecee:	0000                	unimp
    ecf0:	6564                	ld	s1,200(a0)
    ecf2:	6976                	ld	s2,344(sp)
    ecf4:	00006563          	bltu	zero,zero,0xecfe
    ecf8:	6e75                	lui	t3,0x1d
    ecfa:	776f6e6b          	0x776f6e6b
    ecfe:	006e                	c.slli	zero,0x1b
    ed00:	2d25                	addiw	s10,s10,9
    ed02:	2e38                	fld	fa4,88(a2)
    ed04:	7338                	ld	a4,96(a4)
    ed06:	0020                	addi	s0,sp,8
    ed08:	3325                	addiw	t1,t1,-23
    ed0a:	2064                	fld	fs1,192(s0)
    ed0c:	0000                	unimp
    ed0e:	0000                	unimp
    ed10:	3025                	0x3025
    ed12:	7834                	ld	a3,112(s0)
    ed14:	2020                	fld	fs0,64(s0)
    ed16:	0000                	unimp
    ed18:	6664                	ld	s1,200(a2)
    ed1a:	6c612073          	csrs	0x6c6,sp
    ed1e:	6572                	ld	a0,280(sp)
    ed20:	6461                	lui	s0,0x18
    ed22:	2079                	0x2079
    ed24:	6e69                	lui	t3,0x1a
    ed26:	7469                	lui	s0,0xffffa
    ed28:	0a2e                	slli	s4,s4,0xb
    ed2a:	0000                	unimp
    ed2c:	0000                	unimp
    ed2e:	0000                	unimp
    ed30:	7366                	ld	t1,120(sp)
    ed32:	6f6c                	ld	a1,216(a4)
    ed34:	00006b63          	bltu	zero,zero,0xed4a
    ed38:	6564                	ld	s1,200(a0)
    ed3a:	6676                	ld	a2,344(sp)
    ed3c:	00000073          	ecall
    ed40:	7665642f          	0x7665642f
    ed44:	0000                	unimp
    ed46:	0000                	unimp
    ed48:	442f455b          	0x442f455b
    ed4c:	5346                	lw	t1,112(sp)
    ed4e:	205d                	0x205d
	...
    ed58:	4644                	lw	s1,12(a2)
    ed5a:	64662053          	0x64662053
    ed5e:	6e20                	ld	s0,88(a2)
    ed60:	7765                	lui	a4,0xffff9
    ed62:	6920                	ld	s0,80(a0)
    ed64:	61662073          	csrs	0x616,a2
    ed68:	6c69                	lui	s8,0x1a
    ed6a:	6465                	lui	s0,0x19
    ed6c:	2021                	0x2021
    ed6e:	6c756f43          	0x6c756f43
    ed72:	2064                	fld	fs1,192(s0)
    ed74:	6f6e                	ld	t5,216(sp)
    ed76:	2074                	fld	fa3,192(s0)
    ed78:	6f66                	ld	t5,88(sp)
    ed7a:	6e75                	lui	t3,0x1d
    ed7c:	2064                	fld	fs1,192(s0)
    ed7e:	6e61                	lui	t3,0x18
    ed80:	6520                	ld	s0,72(a0)
    ed82:	706d                	c.lui	zero,0xffffb
    ed84:	7974                	ld	a3,240(a0)
    ed86:	6620                	ld	s0,72(a2)
    ed88:	2064                	fld	fs1,192(s0)
    ed8a:	6e65                	lui	t3,0x19
    ed8c:	7274                	ld	a3,224(a2)
    ed8e:	2e79                	addiw	t3,t3,30
	...
    ed98:	6466                	ld	s0,88(sp)
    ed9a:	2120                	fld	fs0,64(a0)
    ed9c:	203d                	0x203d
    ed9e:	554e                	lw	a0,240(sp)
    eda0:	4c4c                	lw	a1,28(s0)
    eda2:	0000                	unimp
    eda4:	0000                	unimp
    eda6:	0000                	unimp
    eda8:	6966                	ld	s2,88(sp)
    edaa:	656c                	ld	a1,200(a0)
    edac:	616e                	ld	sp,216(sp)
    edae:	656d                	lui	a0,0x1b
    edb0:	2120                	fld	fs0,64(a0)
    edb2:	203d                	0x203d
    edb4:	554e                	lw	a0,240(sp)
    edb6:	4c4c                	lw	a1,28(s0)
	...
    edc0:	7325                	lui	t1,0xfffe9
    edc2:	0073252f          	amoadd.w	a0,t2,(t1)
    edc6:	0000                	unimp
    edc8:	6664                	ld	s1,200(a2)
    edca:	6f6c5f73          	csrrwi	t5,0x6f6,24
    edce:	00006b63          	bltu	zero,zero,0xede4
    edd2:	0000                	unimp
    edd4:	0000                	unimp
    edd6:	0000                	unimp
    edd8:	6664                	ld	s1,200(a2)
    edda:	6f6e5f73          	csrrwi	t5,0x6f6,28
    edde:	6d72                	ld	s10,280(sp)
    ede0:	6c61                	lui	s8,0x18
    ede2:	7a69                	lui	s4,0xffffa
    ede4:	5f65                	li	t5,-7
    ede6:	6170                	ld	a2,192(a0)
    ede8:	6874                	ld	a3,208(s0)
    edea:	0000                	unimp
    edec:	0000                	unimp
    edee:	0000                	unimp
    edf0:	696c                	ld	a1,208(a0)
    edf2:	66207473          	csrrci	s0,0x662,0
    edf6:	6c69                	lui	s8,0x1a
    edf8:	2065                	0x2065
    edfa:	6564                	ld	s1,200(a0)
    edfc:	69726373          	csrrsi	t1,0x697,4
    ee00:	7470                	ld	a2,232(s0)
    ee02:	0000726f          	jal	tp,0x15e02
    ee06:	0000                	unimp
    ee08:	5f5f 6d63 5f64      	0x5f646d635f5f
    ee0e:	696c                	ld	a1,208(a0)
    ee10:	665f7473          	csrrci	s0,0x665,30
    ee14:	0064                	addi	s1,sp,12
    ee16:	0000                	unimp
    ee18:	6e616863          	bltu	sp,t1,0xf508
    ee1c:	63206567          	0x63206567
    ee20:	7275                	lui	tp,0xffffd
    ee22:	6572                	ld	a0,280(sp)
    ee24:	746e                	ld	s0,248(sp)
    ee26:	7720                	ld	s0,104(a4)
    ee28:	696b726f          	jal	tp,0xc64be
    ee2c:	676e                	ld	a4,216(sp)
    ee2e:	6420                	ld	s0,72(s0)
    ee30:	7269                	lui	tp,0xffffa
    ee32:	6365                	lui	t1,0x19
    ee34:	6f74                	ld	a3,216(a4)
    ee36:	7972                	ld	s2,312(sp)
	...
    ee40:	00006463          	bltu	zero,zero,0xee48
    ee44:	0000                	unimp
    ee46:	0000                	unimp
    ee48:	61657263          	bgeu	a0,s6,0xf44c
    ee4c:	6574                	ld	a3,200(a0)
    ee4e:	6120                	ld	s0,64(a0)
    ee50:	6420                	ld	s0,72(s0)
    ee52:	7269                	lui	tp,0xffffa
    ee54:	6365                	lui	t1,0x19
    ee56:	6f74                	ld	a3,216(a4)
    ee58:	7972                	ld	s2,312(sp)
    ee5a:	0000                	unimp
    ee5c:	0000                	unimp
    ee5e:	0000                	unimp
    ee60:	6b6d                	lui	s6,0x1b
    ee62:	6964                	ld	s1,208(a0)
    ee64:	0072                	c.slli	zero,0x1c
    ee66:	0000                	unimp
    ee68:	0000002f          	0x2f
    ee6c:	0000                	unimp
    ee6e:	0000                	unimp
    ee70:	6e65704f          	fnmadd.q	ft0,fa0,ft6,fa3
    ee74:	2520                	fld	fs0,72(a0)
    ee76:	61662073          	csrs	0x616,a2
    ee7a:	6c69                	lui	s8,0x1a
    ee7c:	6465                	lui	s0,0x19
    ee7e:	000a                	c.slli	zero,0x2
    ee80:	7325                	lui	t1,0xfffe9
    ee82:	0000                	unimp
    ee84:	0000                	unimp
    ee86:	0000                	unimp
    ee88:	6544                	ld	s1,136(a0)
    ee8a:	656c                	ld	a1,200(a0)
    ee8c:	6574                	ld	a3,200(a0)
    ee8e:	2520                	fld	fs0,72(a0)
    ee90:	61662073          	csrs	0x616,a2
    ee94:	6c69                	lui	s8,0x1a
    ee96:	6465                	lui	s0,0x19
    ee98:	000a                	c.slli	zero,0x2
    ee9a:	0000                	unimp
    ee9c:	0000                	unimp
    ee9e:	0000                	unimp
    eea0:	2074756f          	jal	a0,0x568a6
    eea4:	6d20666f          	jal	a2,0x15576
    eea8:	6d65                	lui	s10,0x19
    eeaa:	0a79726f          	jal	tp,0xa6750
    eeae:	0000                	unimp
    eeb0:	6552                	ld	a0,272(sp)
    eeb2:	6461                	lui	s0,0x18
    eeb4:	2520                	fld	fs0,72(a0)
    eeb6:	61662073          	csrs	0x616,a2
    eeba:	6c69                	lui	s8,0x1a
    eebc:	6465                	lui	s0,0x19
    eebe:	000a                	c.slli	zero,0x2
    eec0:	74697257          	0x74697257
    eec4:	2065                	0x2065
    eec6:	7325                	lui	t1,0xfffe9
    eec8:	6620                	ld	s0,72(a2)
    eeca:	6961                	lui	s2,0x18
    eecc:	656c                	ld	a1,200(a0)
    eece:	0a64                	addi	s1,sp,284
	...
    eed8:	74697257          	0x74697257
    eedc:	2065                	0x2065
    eede:	6966                	ld	s2,88(sp)
    eee0:	656c                	ld	a1,200(a0)
    eee2:	6420                	ld	s0,72(s0)
    eee4:	7461                	lui	s0,0xffff8
    eee6:	2061                	0x2061
    eee8:	6166                	ld	sp,88(sp)
    eeea:	6c69                	lui	s8,0x1a
    eeec:	6465                	lui	s0,0x19
    eeee:	202c                	fld	fa1,64(s0)
    eef0:	7265                	lui	tp,0xffff9
    eef2:	6e72                	ld	t3,280(sp)
    eef4:	64253d6f          	jal	s10,0x62536
    eef8:	000a                	c.slli	zero,0x2
    eefa:	0000                	unimp
    eefc:	0000                	unimp
    eefe:	0000                	unimp
    ef00:	276e6163          	bltu	t3,s6,0xf162
    ef04:	2074                	fld	fa3,192(s0)
    ef06:	6966                	ld	s2,88(sp)
    ef08:	646e                	ld	s0,216(sp)
    ef0a:	6d20                	ld	s0,88(a0)
    ef0c:	746e756f          	jal	a0,0xf6652
    ef10:	6465                	lui	s0,0x19
    ef12:	6620                	ld	s0,72(a2)
    ef14:	6c69                	lui	s8,0x1a
    ef16:	7365                	lui	t1,0xffff9
    ef18:	7379                	lui	t1,0xffffe
    ef1a:	6574                	ld	a3,200(a0)
    ef1c:	206d                	0x206d
    ef1e:	74206e6f          	jal	t3,0x15660
    ef22:	6968                	ld	a0,208(a0)
    ef24:	61702073          	csrr	zero,0x617
    ef28:	6874                	ld	a3,208(s0)
    ef2a:	253a                	fld	fa0,392(sp)
    ef2c:	00000073          	ecall
    ef30:	6874                	ld	a3,208(s0)
    ef32:	2065                	0x2065
    ef34:	6966                	ld	s2,88(sp)
    ef36:	656c                	ld	a1,200(a0)
    ef38:	74737973          	csrrci	s2,0x747,6
    ef3c:	6d65                	lui	s10,0x19
    ef3e:	6420                	ld	s0,72(s0)
    ef40:	6469                	lui	s0,0x1a
    ef42:	276e                	fld	fa4,216(sp)
    ef44:	2074                	fld	fa3,192(s0)
    ef46:	6d69                	lui	s10,0x1a
    ef48:	6c70                	ld	a2,216(s0)
    ef4a:	6d65                	lui	s10,0x19
    ef4c:	6e65                	lui	t3,0x19
    ef4e:	2074                	fld	fa3,192(s0)
    ef50:	6874                	ld	a3,208(s0)
    ef52:	7369                	lui	t1,0xffffa
    ef54:	6620                	ld	s0,72(a2)
    ef56:	6e75                	lui	t3,0x1d
    ef58:	6f697463          	bgeu	s2,s6,0xf640
    ef5c:	006e                	c.slli	zero,0x1b
    ef5e:	0000                	unimp
    ef60:	6944                	ld	s1,144(a0)
    ef62:	6572                	ld	a0,280(sp)
    ef64:	726f7463          	bgeu	t5,t1,0xf68c
    ef68:	2079                	0x2079
    ef6a:	7325                	lui	t1,0xfffe9
    ef6c:	0a3a                	slli	s4,s4,0xe
    ef6e:	0000                	unimp
    ef70:	2d25                	addiw	s10,s10,9
    ef72:	3032                	fld	ft0,296(sp)
    ef74:	00000073          	ecall
    ef78:	443c                	lw	a5,72(s0)
    ef7a:	5249                	li	tp,-14
    ef7c:	003e                	c.slli	zero,0xf
    ef7e:	0000                	unimp
    ef80:	2d25                	addiw	s10,s10,9
    ef82:	3532                	fld	fa0,296(sp)
    ef84:	00000a73          	0xa73
    ef88:	2d25                	addiw	s10,s10,9
    ef8a:	3532                	fld	fa0,296(sp)
    ef8c:	756c                	ld	a1,232(a0)
    ef8e:	000a                	c.slli	zero,0x2
    ef90:	4142                	lw	sp,16(sp)
    ef92:	2044                	fld	fs1,128(s0)
    ef94:	6966                	ld	s2,88(sp)
    ef96:	656c                	ld	a1,200(a0)
    ef98:	203a                	fld	ft0,392(sp)
    ef9a:	7325                	lui	t1,0xfffe9
    ef9c:	000a                	c.slli	zero,0x2
    ef9e:	0000                	unimp
    efa0:	6f4e                	ld	t5,208(sp)
    efa2:	7320                	ld	s0,96(a4)
    efa4:	6375                	lui	t1,0x1d
    efa6:	2068                	fld	fa0,192(s0)
    efa8:	6964                	ld	s1,208(a0)
    efaa:	6572                	ld	a0,280(sp)
    efac:	726f7463          	bgeu	t5,t1,0xf6d4
    efb0:	0a79                	addi	s4,s4,30
    efb2:	0000                	unimp
    efb4:	0000                	unimp
    efb6:	0000                	unimp
    efb8:	6e65706f          	j	0x6669e
    efbc:	2520                	fld	fs0,72(a0)
    efbe:	61662073          	csrs	0x616,a2
    efc2:	6c69                	lui	s8,0x1a
    efc4:	6465                	lui	s0,0x19
    efc6:	000a                	c.slli	zero,0x2
    efc8:	2e2e                	fld	ft8,200(sp)
    efca:	0000                	unimp
    efcc:	0000                	unimp
    efce:	0000                	unimp
    efd0:	2074756f          	jal	a0,0x569d6
    efd4:	6d20666f          	jal	a2,0x156a6
    efd8:	6d65                	lui	s10,0x19
    efda:	2179726f          	jal	tp,0xa69f0
    efde:	000a                	c.slli	zero,0x2
    efe0:	6e65706f          	j	0x666c6
    efe4:	6620                	ld	s0,72(a2)
    efe6:	6c69                	lui	s8,0x1a
    efe8:	3a65                	addiw	s4,s4,-7
    efea:	2520                	fld	fs0,72(a0)
    efec:	61662073          	csrs	0x616,a2
    eff0:	6c69                	lui	s8,0x1a
    eff2:	6465                	lui	s0,0x19
    eff4:	000a                	c.slli	zero,0x2
    eff6:	0000                	unimp
    eff8:	79706f63          	bltu	zero,s7,0xf796
    effc:	6620                	ld	s0,72(a2)
    effe:	6961                	lui	s2,0x18
    f000:	656c                	ld	a1,200(a0)
    f002:	2c64                	fld	fs1,216(s0)
    f004:	6220                	ld	s0,64(a2)
    f006:	6461                	lui	s0,0x18
    f008:	2520                	fld	fs0,72(a0)
    f00a:	00000a73          	0xa73
    f00e:	0000                	unimp
    f010:	66207063          	bgeu	zero,sp,0xf670
    f014:	6961                	lui	s2,0x18
    f016:	646c                	ld	a1,200(s0)
    f018:	202c                	fld	fa1,64(s0)
    f01a:	64207063          	bgeu	zero,sp,0xf65a
    f01e:	7269                	lui	tp,0xffffa
    f020:	7420                	ld	s0,104(s0)
    f022:	6966206f          	j	0x716b8
    f026:	656c                	ld	a1,200(a0)
    f028:	6920                	ld	s0,80(a0)
    f02a:	6f6e2073          	csrs	0x6f6,t3
    f02e:	2074                	fld	fa3,192(s0)
    f030:	6570                	ld	a2,200(a0)
    f032:	6d72                	ld	s10,280(sp)
    f034:	7469                	lui	s0,0xffffa
    f036:	6574                	ld	a3,200(a0)
    f038:	2164                	fld	fs1,192(a0)
    f03a:	000a                	c.slli	zero,0x2
    f03c:	0000                	unimp
    f03e:	0000                	unimp
    f040:	79706f63          	bltu	zero,s7,0xf7de
    f044:	6620                	ld	s0,72(a2)
    f046:	6c69                	lui	s8,0x1a
    f048:	2065                	0x2065
    f04a:	6420726f          	jal	tp,0x1668c
    f04e:	7269                	lui	tp,0xffffa
	...
    f058:	79706f63          	bltu	zero,s7,0xf7f6
    f05c:	0000                	unimp
    f05e:	0000                	unimp
    f060:	7270                	ld	a2,224(a2)
    f062:	6e69                	lui	t3,0x1a
    f064:	2074                	fld	fa3,192(s0)
    f066:	6966                	ld	s2,88(sp)
    f068:	656c                	ld	a1,200(a0)
    f06a:	0000                	unimp
    f06c:	0000                	unimp
    f06e:	0000                	unimp
    f070:	00746163          	bltu	s0,t2,0xf072
    f074:	0000                	unimp
    f076:	0000                	unimp
    f078:	6572                	ld	a0,280(sp)
    f07a:	6f6d                	lui	t5,0x1b
    f07c:	6576                	ld	a0,344(sp)
    f07e:	6620                	ld	s0,72(a2)
    f080:	6c69                	lui	s8,0x1a
    f082:	7365                	lui	t1,0xffff9
    f084:	6f20                	ld	s0,88(a4)
    f086:	2072                	fld	ft0,280(sp)
    f088:	6964                	ld	s1,208(a0)
    f08a:	6572                	ld	a0,280(sp)
    f08c:	726f7463          	bgeu	t5,t1,0xf7b4
    f090:	6569                	lui	a0,0x1a
    f092:	00000073          	ecall
    f096:	0000                	unimp
    f098:	6d72                	ld	s10,280(sp)
    f09a:	0000                	unimp
    f09c:	0000                	unimp
    f09e:	0000                	unimp
    f0a0:	696c                	ld	a1,208(a0)
    f0a2:	64207473          	csrrci	s0,0x642,0
    f0a6:	7269                	lui	tp,0xffffa
    f0a8:	6365                	lui	t1,0x19
    f0aa:	6f74                	ld	a3,216(a4)
    f0ac:	7972                	ld	s2,312(sp)
    f0ae:	6320                	ld	s0,64(a4)
    f0b0:	65746e6f          	jal	t3,0x55f06
    f0b4:	746e                	ld	s0,248(sp)
    f0b6:	736c0073          	0x736c0073
    f0ba:	0000                	unimp
    f0bc:	0000                	unimp
    f0be:	0000                	unimp
    f0c0:	0000424b          	fnmsub.s	ft4,ft0,ft0,ft0,rmm
    f0c4:	0000                	unimp
    f0c6:	0000                	unimp
    f0c8:	424d                	li	tp,19
    f0ca:	0000                	unimp
    f0cc:	0000                	unimp
    f0ce:	0000                	unimp
    f0d0:	00004247          	fmsub.s	ft4,ft0,ft0,ft0,rmm
    f0d4:	0000                	unimp
    f0d6:	0000                	unimp
    f0d8:	6854                	ld	a3,144(s0)
    f0da:	7265                	lui	tp,0xffff9
    f0dc:	2065                	0x2065
    f0de:	7369                	lui	t1,0xffffa
    f0e0:	6e20                	ld	s0,88(a2)
    f0e2:	7073206f          	j	0x41fe8
    f0e6:	6361                	lui	t1,0x18
    f0e8:	2065                	0x2065
    f0ea:	6f74                	ld	a3,216(a4)
    f0ec:	7220                	ld	s0,96(a2)
    f0ee:	6765                	lui	a4,0x19
    f0f0:	7369                	lui	t1,0xffffa
    f0f2:	6574                	ld	a3,200(a0)
    f0f4:	2072                	fld	ft0,280(sp)
    f0f6:	6874                	ld	a3,208(s0)
    f0f8:	7369                	lui	t1,0xffffa
    f0fa:	6620                	ld	s0,72(a2)
    f0fc:	6c69                	lui	s8,0x1a
    f0fe:	2065                	0x2065
    f100:	74737973          	csrrci	s2,0x747,6
    f104:	6d65                	lui	s10,0x19
    f106:	2820                	fld	fs0,80(s0)
    f108:	7325                	lui	t1,0xfffe9
    f10a:	2e29                	addiw	t3,t3,10
    f10c:	0000                	unimp
    f10e:	0000                	unimp
    f110:	6170                	ld	a2,192(a0)
    f112:	6874                	ld	a3,208(s0)
    f114:	0000                	unimp
    f116:	0000                	unimp
    f118:	6854                	ld	a3,144(s0)
    f11a:	7265                	lui	tp,0xffff9
    f11c:	2065                	0x2065
    f11e:	7369                	lui	t1,0xffffa
    f120:	6e20                	ld	s0,88(a2)
    f122:	7073206f          	j	0x42028
    f126:	6361                	lui	t1,0x18
    f128:	2065                	0x2065
    f12a:	6f74                	ld	a3,216(a4)
    f12c:	6d20                	ld	s0,88(a0)
    f12e:	746e756f          	jal	a0,0xf6874
    f132:	7420                	ld	s0,104(s0)
    f134:	6968                	ld	a0,208(a0)
    f136:	69662073          	csrs	0x696,a2
    f13a:	656c                	ld	a1,200(a0)
    f13c:	7320                	ld	s0,96(a4)
    f13e:	7379                	lui	t1,0xffffe
    f140:	6574                	ld	a3,200(a0)
    f142:	206d                	0x206d
    f144:	2528                	fld	fa0,72(a0)
    f146:	002e2973          	csrrs	s2,frm,t3
    f14a:	0000                	unimp
    f14c:	0000                	unimp
    f14e:	0000                	unimp
    f150:	6544                	ld	s1,136(a0)
    f152:	6976                	ld	s2,344(sp)
    f154:	28206563          	bltu	zero,sp,0xf3de
    f158:	7325                	lui	t1,0xfffe9
    f15a:	2029                	0x2029
    f15c:	20736177          	0x20736177
    f160:	6f6e                	ld	t5,216(sp)
    f162:	2074                	fld	fa3,192(s0)
    f164:	6f66                	ld	t5,88(sp)
    f166:	6e75                	lui	t3,0x1d
    f168:	0064                	addi	s1,sp,12
    f16a:	0000                	unimp
    f16c:	0000                	unimp
    f16e:	0000                	unimp
    f170:	6946                	ld	s2,80(sp)
    f172:	656c                	ld	a1,200(a0)
    f174:	7320                	ld	s0,96(a4)
    f176:	7379                	lui	t1,0xffffe
    f178:	6574                	ld	a3,200(a0)
    f17a:	206d                	0x206d
    f17c:	2528                	fld	fa0,72(a0)
    f17e:	77202973          	csrr	s2,0x772
    f182:	7361                	lui	t1,0xffff8
    f184:	6e20                	ld	s0,88(a2)
    f186:	6620746f          	jal	s0,0x167e8
    f18a:	646e756f          	jal	a0,0xf67d0
    f18e:	002e                	c.slli	zero,0xb
    f190:	6854                	ld	a3,144(s0)
    f192:	2065                	0x2065
    f194:	6966                	ld	s2,88(sp)
    f196:	656c                	ld	a1,200(a0)
    f198:	7320                	ld	s0,96(a4)
    f19a:	7379                	lui	t1,0xffffe
    f19c:	6574                	ld	a3,200(a0)
    f19e:	206d                	0x206d
    f1a0:	2528                	fld	fa0,72(a0)
    f1a2:	6d202973          	csrr	s2,0x6d2
    f1a6:	2073666b          	0x2073666b
    f1aa:	7566                	ld	a0,120(sp)
    f1ac:	636e                	ld	t1,216(sp)
    f1ae:	6974                	ld	a3,208(a0)
    f1b0:	77206e6f          	jal	t3,0x15922
    f1b4:	7361                	lui	t1,0xffff8
    f1b6:	6e20                	ld	s0,88(a2)
    f1b8:	6920746f          	jal	s0,0x1684a
    f1bc:	706d                	c.lui	zero,0xffffb
    f1be:	656c                	ld	a1,200(a0)
    f1c0:	656d                	lui	a0,0x1b
    f1c2:	746e                	ld	s0,248(sp)
    f1c4:	0000                	unimp
    f1c6:	0000                	unimp
    f1c8:	6664                	ld	s1,200(a2)
    f1ca:	74735f73          	csrrwi	t5,0x747,6
    f1ce:	7461                	lui	s0,0xffff8
    f1d0:	7366                	ld	t1,120(sp)
    f1d2:	6620                	ld	s0,72(a2)
    f1d4:	6961                	lui	s2,0x18
    f1d6:	656c                	ld	a1,200(a0)
    f1d8:	2e64                	fld	fs1,216(a2)
    f1da:	000a                	c.slli	zero,0x2
    f1dc:	0000                	unimp
    f1de:	0000                	unimp
    f1e0:	6964                	ld	s1,208(a0)
    f1e2:	66206b73          	csrrsi	s6,0x662,0
    f1e6:	6572                	ld	a0,280(sp)
    f1e8:	3a65                	addiw	s4,s4,-7
    f1ea:	2520                	fld	fs0,72(a0)
    f1ec:	2e64                	fld	fs1,216(a2)
    f1ee:	6425                	lui	s0,0x9
    f1f0:	2520                	fld	fs0,72(a0)
    f1f2:	205b2073          	csrs	htvec,s6
    f1f6:	6425                	lui	s0,0x9
    f1f8:	6220                	ld	s0,64(a2)
    f1fa:	6f6c                	ld	a1,216(a4)
    f1fc:	202c6b63          	bltu	s8,sp,0xf412
    f200:	6425                	lui	s0,0x9
    f202:	6220                	ld	s0,64(a2)
    f204:	7479                	lui	s0,0xffffe
    f206:	7365                	lui	t1,0xffff9
    f208:	7020                	ld	s0,96(s0)
    f20a:	7265                	lui	tp,0xffff9
    f20c:	6220                	ld	s0,64(a2)
    f20e:	6f6c                	ld	a1,216(a4)
    f210:	5d206b63          	bltu	zero,s2,0xf7e6
    f214:	000a                	c.slli	zero,0x2
    f216:	0000                	unimp
    f218:	6664                	ld	s1,200(a2)
    f21a:	69665f73          	csrrwi	t5,0x696,12
    f21e:	656c                	ld	a1,200(a0)
    f220:	74737973          	csrrci	s2,0x747,6
    f224:	6d65                	lui	s10,0x19
    f226:	6c5f 6f6f 756b      	0x756b6f6f6c5f
    f22c:	0070                	addi	a2,sp,12
    f22e:	0000                	unimp
    f230:	20746567          	0x20746567
    f234:	6964                	ld	s1,208(a0)
    f236:	66206b73          	csrrsi	s6,0x662,0
    f23a:	6572                	ld	a0,280(sp)
    f23c:	0065                	c.nop	25
    f23e:	0000                	unimp
    f240:	6664                	ld	s1,200(a2)
    f242:	0000                	unimp
    f244:	0000                	unimp
    f246:	0000                	unimp
    f248:	616d                	addi	sp,sp,240
    f24a:	6120656b          	0x6120656b
    f24e:	6620                	ld	s0,72(a2)
    f250:	6c69                	lui	s8,0x1a
    f252:	2065                	0x2065
    f254:	74737973          	csrrci	s2,0x747,6
    f258:	6d65                	lui	s10,0x19
    f25a:	0000                	unimp
    f25c:	0000                	unimp
    f25e:	0000                	unimp
    f260:	6b6d                	lui	s6,0x1b
    f262:	7366                	ld	t1,120(sp)
    f264:	0000                	unimp
    f266:	0000                	unimp
    f268:	6966                	ld	s2,88(sp)
    f26a:	656c                	ld	a1,200(a0)
    f26c:	2120                	fld	fs0,64(a0)
    f26e:	203d                	0x203d
    f270:	5452                	lw	s0,52(sp)
    f272:	4e5f 4c55 004c      	0x4c4c554e5f
    f278:	6564                	ld	s1,200(a0)
    f27a:	5f76                	lw	t5,124(sp)
    f27c:	6469                	lui	s0,0x1a
    f27e:	2120                	fld	fs0,64(a0)
    f280:	203d                	0x203d
    f282:	5452                	lw	s0,52(sp)
    f284:	4e5f 4c55 004c      	0x4c4c554e5f
    f28a:	0000                	unimp
    f28c:	0000                	unimp
    f28e:	0000                	unimp
    f290:	6f72                	ld	t5,280(sp)
    f292:	645f746f          	jal	s0,0x1070d6
    f296:	7269                	lui	tp,0xffffa
    f298:	6e65                	lui	t3,0x19
    f29a:	2074                	fld	fa3,192(s0)
    f29c:	3d21                	addiw	s10,s10,-24
    f29e:	5220                	lw	s0,96(a2)
    f2a0:	5f54                	lw	a3,60(a4)
    f2a2:	554e                	lw	a0,240(sp)
    f2a4:	4c4c                	lw	a1,28(s0)
    f2a6:	0000                	unimp
    f2a8:	6664                	ld	s1,200(a2)
    f2aa:	65645f73          	csrrwi	t5,0x656,8
    f2ae:	6976                	ld	s2,344(sp)
    f2b0:	665f6563          	bltu	t5,t0,0xf91a
    f2b4:	6f695f73          	csrrwi	t5,0x6f6,18
    f2b8:	006c7463          	bgeu	s8,t1,0xf2c0
    f2bc:	0000                	unimp
    f2be:	0000                	unimp
    f2c0:	6664                	ld	s1,200(a2)
    f2c2:	65645f73          	csrrwi	t5,0x656,8
    f2c6:	6976                	ld	s2,344(sp)
    f2c8:	665f6563          	bltu	t5,t0,0xf932
    f2cc:	65725f73          	csrrwi	t5,0x657,4
    f2d0:	6461                	lui	s0,0x18
    f2d2:	0000                	unimp
    f2d4:	0000                	unimp
    f2d6:	0000                	unimp
    f2d8:	6664                	ld	s1,200(a2)
    f2da:	65645f73          	csrrwi	t5,0x656,8
    f2de:	6976                	ld	s2,344(sp)
    f2e0:	665f6563          	bltu	t5,t0,0xf94a
    f2e4:	72775f73          	csrrwi	t5,0x727,14
    f2e8:	7469                	lui	s0,0xffffa
    f2ea:	0065                	c.nop	25
    f2ec:	0000                	unimp
    f2ee:	0000                	unimp
    f2f0:	6664                	ld	s1,200(a2)
    f2f2:	65645f73          	csrrwi	t5,0x656,8
    f2f6:	6976                	ld	s2,344(sp)
    f2f8:	665f6563          	bltu	t5,t0,0xf962
    f2fc:	6c635f73          	csrrwi	t5,0x6c6,6
    f300:	0065736f          	jal	t1,0x66306
    f304:	0000                	unimp
    f306:	0000                	unimp
    f308:	6664                	ld	s1,200(a2)
    f30a:	65645f73          	csrrwi	t5,0x656,8
    f30e:	6976                	ld	s2,344(sp)
    f310:	665f6563          	bltu	t5,t0,0xf97a
    f314:	706f5f73          	csrrwi	t5,0x706,30
    f318:	6e65                	lui	t3,0x19
    f31a:	0000                	unimp
    f31c:	0000                	unimp
    f31e:	0000                	unimp
    f320:	6664                	ld	s1,200(a2)
    f322:	65645f73          	csrrwi	t5,0x656,8
    f326:	6976                	ld	s2,344(sp)
    f328:	665f6563          	bltu	t5,t0,0xf992
    f32c:	65675f73          	csrrwi	t5,0x656,14
    f330:	6474                	ld	a3,200(s0)
    f332:	6e65                	lui	t3,0x19
    f334:	7374                	ld	a3,224(a4)
    f336:	0000                	unimp
    f338:	98d0                	0x98d0
    f33a:	0000                	unimp
    f33c:	0000                	unimp
    f33e:	0000                	unimp
    f340:	9778                	0x9778
    f342:	0000                	unimp
    f344:	0000                	unimp
    f346:	0000                	unimp
    f348:	94a4                	0x94a4
    f34a:	0000                	unimp
    f34c:	0000                	unimp
    f34e:	0000                	unimp
    f350:	952c                	0x952c
    f352:	0000                	unimp
    f354:	0000                	unimp
    f356:	0000                	unimp
    f358:	95cc                	0x95cc
	...
    f36e:	0000                	unimp
    f370:	966c                	0x966c
    f372:	0000                	unimp
    f374:	0000                	unimp
    f376:	0000                	unimp
    f378:	949c                	0x949c
    f37a:	0000                	unimp
    f37c:	0000                	unimp
    f37e:	0000                	unimp
    f380:	ed38                	sd	a4,88(a0)
	...
    f38e:	0000                	unimp
    f390:	f338                	sd	a4,96(a4)
    f392:	0000                	unimp
    f394:	0000                	unimp
    f396:	0000                	unimp
    f398:	9494                	0x9494
	...
    f3be:	0000                	unimp
    f3c0:	982c                	0x982c
	...
    f3ce:	0000                	unimp
    f3d0:	6964                	ld	s1,208(a0)
    f3d2:	6572                	ld	a0,280(sp)
    f3d4:	746e                	ld	s0,248(sp)
    f3d6:	2120                	fld	fs0,64(a0)
    f3d8:	203d                	0x203d
    f3da:	554e                	lw	a0,240(sp)
    f3dc:	4c4c                	lw	a1,28(s0)
    f3de:	0000                	unimp
    f3e0:	6964                	ld	s1,208(a0)
    f3e2:	6572                	ld	a0,280(sp)
    f3e4:	746e                	ld	s0,248(sp)
    f3e6:	3e2d                	addiw	t3,t3,-21
    f3e8:	7974                	ld	a3,240(a0)
    f3ea:	6570                	ld	a2,200(a0)
    f3ec:	3d20                	fld	fs0,120(a0)
    f3ee:	203d                	0x203d
    f3f0:	4f52                	lw	t5,20(sp)
    f3f2:	464d                	li	a2,19
    f3f4:	49445f53          	0x49445f53
    f3f8:	4552                	lw	a0,20(sp)
    f3fa:	544e                	lw	s0,240(sp)
    f3fc:	445f 5249 0000      	0x5249445f
    f402:	0000                	unimp
    f404:	0000                	unimp
    f406:	0000                	unimp
    f408:	6f72                	ld	t5,280(sp)
    f40a:	006d                	c.nop	27
    f40c:	0000                	unimp
    f40e:	0000                	unimp
    f410:	6664                	ld	s1,200(a2)
    f412:	6f725f73          	csrrwi	t5,0x6f7,4
    f416:	666d                	lui	a2,0x1b
    f418:	65725f73          	csrrwi	t5,0x657,4
    f41c:	6461                	lui	s0,0x18
    f41e:	0000                	unimp
    f420:	6664                	ld	s1,200(a2)
    f422:	6f725f73          	csrrwi	t5,0x6f7,4
    f426:	666d                	lui	a2,0x1b
    f428:	65675f73          	csrrwi	t5,0x656,14
    f42c:	6474                	ld	a3,200(s0)
    f42e:	6e65                	lui	t3,0x19
    f430:	7374                	ld	a3,224(a4)
    f432:	0000                	unimp
    f434:	0000                	unimp
    f436:	0000                	unimp
    f438:	9e60                	0x9e60
    f43a:	0000                	unimp
    f43c:	0000                	unimp
    f43e:	0000                	unimp
    f440:	9ab8                	0x9ab8
    f442:	0000                	unimp
    f444:	0000                	unimp
    f446:	0000                	unimp
    f448:	9a6c                	0x9a6c
    f44a:	0000                	unimp
    f44c:	0000                	unimp
    f44e:	0000                	unimp
    f450:	9ac4                	0x9ac4
	...
    f466:	0000                	unimp
    f468:	9a9c                	0x9a9c
    f46a:	0000                	unimp
    f46c:	0000                	unimp
    f46e:	0000                	unimp
    f470:	9b7c                	0x9b7c
	...
    f47e:	0000                	unimp
    f480:	f408                	sd	a0,40(s0)
	...
    f48e:	0000                	unimp
    f490:	f438                	sd	a4,104(s0)
    f492:	0000                	unimp
    f494:	0000                	unimp
    f496:	0000                	unimp
    f498:	9a4c                	0x9a4c
    f49a:	0000                	unimp
    f49c:	0000                	unimp
    f49e:	0000                	unimp
    f4a0:	9a64                	0x9a64
	...
    f4be:	0000                	unimp
    f4c0:	9f0c                	0x9f0c
	...
    f4ce:	0000                	unimp
    f4d0:	5452                	lw	s0,52(sp)
    f4d2:	542d                	li	s0,-21
    f4d4:	7268                	ld	a0,224(a2)
    f4d6:	6165                	addi	sp,sp,112
    f4d8:	2064                	fld	fs1,192(s0)
    f4da:	6c656873          	csrrsi	a6,0x6c6,10
    f4de:	206c                	fld	fa1,192(s0)
    f4e0:	6d6d6f63          	bltu	s10,s6,0xfbbe
    f4e4:	6e61                	lui	t3,0x18
    f4e6:	7364                	ld	s1,224(a4)
    f4e8:	0a3a                	slli	s4,s4,0xe
    f4ea:	0000                	unimp
    f4ec:	0000                	unimp
    f4ee:	0000                	unimp
    f4f0:	5f5f 6d63 5f64      	0x5f646d635f5f
    f4f6:	0000                	unimp
    f4f8:	2d25                	addiw	s10,s10,9
    f4fa:	3631                	addiw	a2,a2,-20
    f4fc:	202d2073          	csrs	hedeleg,s10
    f500:	7325                	lui	t1,0xfffe9
    f502:	000a                	c.slli	zero,0x2
    f504:	0000                	unimp
    f506:	0000                	unimp
    f508:	6f54                	ld	a3,152(a4)
    f50a:	616d206f          	j	0xe1b20
    f50e:	796e                	ld	s2,248(sp)
    f510:	6120                	ld	s0,64(a0)
    f512:	6772                	ld	a4,280(sp)
    f514:	20212073          	csrs	hedeleg,sp
    f518:	6f206557          	0x6f206557
    f51c:	6c6e                	ld	s8,216(sp)
    f51e:	2079                	0x2079
    f520:	7355                	lui	t1,0xffff5
    f522:	3a65                	addiw	s4,s4,-7
    f524:	000a                	c.slli	zero,0x2
    f526:	0000                	unimp
    f528:	7325                	lui	t1,0xfffe9
    f52a:	0020                	addi	s0,sp,8
    f52c:	0000                	unimp
    f52e:	0000                	unimp
    f530:	7325                	lui	t1,0xfffe9
    f532:	203a                	fld	ft0,392(sp)
    f534:	6d6d6f63          	bltu	s10,s6,0xfc12
    f538:	6e61                	lui	t3,0x18
    f53a:	2064                	fld	fs1,192(s0)
    f53c:	6f6e                	ld	t5,216(sp)
    f53e:	2074                	fld	fa3,192(s0)
    f540:	6f66                	ld	t5,88(sp)
    f542:	6e75                	lui	t3,0x1d
    f544:	2e64                	fld	fs1,216(a2)
    f546:	000a                	c.slli	zero,0x2
    f548:	776f6853          	0x776f6853
    f54c:	7420                	ld	s0,104(s0)
    f54e:	6568                	ld	a0,200(a0)
    f550:	6d20                	ld	s0,88(a0)
    f552:	6d65                	lui	s10,0x19
    f554:	2079726f          	jal	tp,0xa6f5a
    f558:	7375                	lui	t1,0xffffd
    f55a:	6761                	lui	a4,0x18
    f55c:	2065                	0x2065
    f55e:	6e69                	lui	t3,0x1a
    f560:	7420                	ld	s0,104(s0)
    f562:	6568                	ld	a0,200(a0)
    f564:	7320                	ld	s0,96(a4)
    f566:	7379                	lui	t1,0xffffe
    f568:	6574                	ld	a3,200(a0)
    f56a:	2e6d                	addiw	t3,t3,27
    f56c:	0000                	unimp
    f56e:	0000                	unimp
    f570:	5f5f 6d63 5f64      	0x5f646d635f5f
    f576:	7266                	ld	tp,120(sp)
    f578:	6565                	lui	a0,0x19
    f57a:	0000                	unimp
    f57c:	0000                	unimp
    f57e:	0000                	unimp
    f580:	694c                	ld	a1,144(a0)
    f582:	74207473          	csrrci	s0,0x742,0
    f586:	7268                	ld	a0,224(a2)
    f588:	6165                	addi	sp,sp,112
    f58a:	7364                	ld	s1,224(a4)
    f58c:	6920                	ld	s0,80(a0)
    f58e:	206e                	fld	ft0,216(sp)
    f590:	6874                	ld	a3,208(s0)
    f592:	2065                	0x2065
    f594:	74737973          	csrrci	s2,0x747,6
    f598:	6d65                	lui	s10,0x19
    f59a:	002e                	c.slli	zero,0xb
    f59c:	0000                	unimp
    f59e:	0000                	unimp
    f5a0:	5f5f 6d63 5f64      	0x5f646d635f5f
    f5a6:	7370                	ld	a2,224(a4)
	...
    f5b0:	5452                	lw	s0,52(sp)
    f5b2:	542d                	li	s0,-21
    f5b4:	7268                	ld	a0,224(a2)
    f5b6:	6165                	addi	sp,sp,112
    f5b8:	2064                	fld	fs1,192(s0)
    f5ba:	6c656873          	csrrsi	a6,0x6c6,10
    f5be:	206c                	fld	fa1,192(s0)
    f5c0:	6568                	ld	a0,200(a0)
    f5c2:	706c                	ld	a1,224(s0)
    f5c4:	002e                	c.slli	zero,0xb
    f5c6:	0000                	unimp
    f5c8:	5f5f 6d63 5f64      	0x5f646d635f5f
    f5ce:	6568                	ld	a0,200(a0)
    f5d0:	706c                	ld	a1,224(s0)
    f5d2:	0000                	unimp
    f5d4:	0000                	unimp
    f5d6:	0000                	unimp
    f5d8:	6c656873          	csrrsi	a6,0x6c6,10
    f5dc:	206c                	fld	fa1,192(s0)
    f5de:	3d21                	addiw	s10,s10,-24
    f5e0:	5220                	lw	s0,96(a2)
    f5e2:	5f54                	lw	a3,60(a4)
    f5e4:	554e                	lw	a0,240(sp)
    f5e6:	4c4c                	lw	a1,28(s0)
	...
    f5f0:	736d                	lui	t1,0xffffb
    f5f2:	2068                	fld	fa0,192(s0)
    f5f4:	0000                	unimp
    f5f6:	0000                	unimp
    f5f8:	6966                	ld	s2,88(sp)
    f5fa:	736e                	ld	t1,248(sp)
    f5fc:	2068                	fld	fa0,192(s0)
    f5fe:	0000                	unimp
    f600:	003e                	c.slli	zero,0xf
    f602:	0000                	unimp
    f604:	0000                	unimp
    f606:	0000                	unimp
    f608:	4b325b1b          	0x4b325b1b
    f60c:	000d                	c.nop	3
    f60e:	0000                	unimp
    f610:	7325                	lui	t1,0xfffe9
    f612:	7325                	lui	t1,0xfffe9
    f614:	0000                	unimp
    f616:	0000                	unimp
    f618:	6f6e                	ld	t5,216(sp)
    f61a:	6d20                	ld	s0,88(a0)
    f61c:	6d65                	lui	s10,0x19
    f61e:	2079726f          	jal	tp,0xa7024
    f622:	6f66                	ld	t5,88(sp)
    f624:	2072                	fld	ft0,280(sp)
    f626:	6c656873          	csrrsi	a6,0x6c6,10
    f62a:	0a6c                	addi	a1,sp,284
    f62c:	0000                	unimp
    f62e:	0000                	unimp
    f630:	7374                	ld	a3,224(a4)
    f632:	6568                	ld	a0,200(a0)
    f634:	6c6c                	ld	a1,216(s0)
    f636:	0000                	unimp
    f638:	78726873          	csrrsi	a6,0x787,4
    f63c:	0000                	unimp
    f63e:	0000                	unimp
    f640:	6966                	ld	s2,88(sp)
    f642:	736e                	ld	t1,248(sp)
    f644:	3a68                	fld	fa0,240(a2)
    f646:	6320                	ld	s0,64(a4)
    f648:	6e61                	lui	t3,0x18
    f64a:	6e20                	ld	s0,88(a2)
    f64c:	6620746f          	jal	s0,0x16cae
    f650:	6e69                	lui	t3,0x1a
    f652:	2064                	fld	fs1,192(s0)
    f654:	6564                	ld	s1,200(a0)
    f656:	6976                	ld	s2,344(sp)
    f658:	203a6563          	bltu	s4,gp,0xf862
    f65c:	7325                	lui	t1,0xfffe9
    f65e:	000a                	c.slli	zero,0x2
    f660:	0008                	0x8
    f662:	0000                	unimp
    f664:	0000                	unimp
    f666:	0000                	unimp
    f668:	2508                	fld	fa0,8(a0)
    f66a:	08202073          	csrr	zero,0x82
    f66e:	0000                	unimp
    f670:	2008                	fld	fa0,0(s0)
    f672:	0008                	0x8
    f674:	0000                	unimp
    f676:	0000                	unimp
    f678:	6966                	ld	s2,88(sp)
    f67a:	736e                	ld	t1,248(sp)
    f67c:	5f68                	lw	a0,124(a4)
    f67e:	5f746573          	csrrsi	a0,0x5f7,8
    f682:	7270                	ld	a2,224(a2)
    f684:	74706d6f          	jal	s10,0x165ca
    f688:	6d5f 646f 0065      	0x65646f6d5f
    f68e:	0000                	unimp
    f690:	6966                	ld	s2,88(sp)
    f692:	736e                	ld	t1,248(sp)
    f694:	5f68                	lw	a0,124(a4)
    f696:	63746567          	0x63746567
    f69a:	6168                	ld	a0,192(a0)
    f69c:	0072                	c.slli	zero,0x1c
    f69e:	0000                	unimp
    f6a0:	6966                	ld	s2,88(sp)
    f6a2:	736e                	ld	t1,248(sp)
    f6a4:	5f68                	lw	a0,124(a4)
    f6a6:	7872                	ld	a6,312(sp)
    f6a8:	695f 646e 0000      	0x646e695f
    f6ae:	0000                	unimp
    f6b0:	6966                	ld	s2,88(sp)
    f6b2:	736e                	ld	t1,248(sp)
    f6b4:	5f68                	lw	a0,124(a4)
    f6b6:	5f746573          	csrrsi	a0,0x5f7,8
    f6ba:	6564                	ld	s1,200(a0)
    f6bc:	6976                	ld	s2,344(sp)
    f6be:	00006563          	bltu	zero,zero,0xf6c8
    f6c2:	0000                	unimp
    f6c4:	0000                	unimp
    f6c6:	0000                	unimp
    f6c8:	6e6e6163          	bltu	t3,t1,0xfdaa
    f6cc:	7220746f          	jal	s0,0x16dee
    f6d0:	6d65                	lui	s10,0x19
    f6d2:	2065766f          	jal	a2,0x668d8
    f6d6:	27732527          	fsw	fs7,618(t1) # 0xfffffffffffe926a
    f6da:	000a                	c.slli	zero,0x2
    f6dc:	0000                	unimp
    f6de:	0000                	unimp
    f6e0:	6572                	ld	a0,280(sp)
    f6e2:	6f6d                	lui	t5,0x1b
    f6e4:	6576                	ld	a0,344(sp)
    f6e6:	2064                	fld	fs1,192(s0)
    f6e8:	27732527          	fsw	fs7,618(t1)
    f6ec:	000a                	c.slli	zero,0x2
    f6ee:	0000                	unimp
    f6f0:	6572                	ld	a0,280(sp)
    f6f2:	6f6d                	lui	t5,0x1b
    f6f4:	6576                	ld	a0,344(sp)
    f6f6:	2064                	fld	fs1,192(s0)
    f6f8:	6964                	ld	s1,208(a0)
    f6fa:	6572                	ld	a0,280(sp)
    f6fc:	726f7463          	bgeu	t5,t1,0xfe24
    f700:	2079                	0x2079
    f702:	27732527          	fsw	fs7,618(t1)
    f706:	000a                	c.slli	zero,0x2
    f708:	7355                	lui	t1,0xffff5
    f70a:	6761                	lui	a4,0x18
    f70c:	3a65                	addiw	s4,s4,-7
    f70e:	7220                	ld	s0,96(a2)
    f710:	206d                	0x206d
    f712:	6974706f          	j	0x575a8
    f716:	73286e6f          	jal	t3,0x95e48
    f71a:	2029                	0x2029
    f71c:	4946                	lw	s2,80(sp)
    f71e:	454c                	lw	a1,12(a0)
    f720:	2e2e                	fld	ft8,200(sp)
    f722:	0a2e                	slli	s4,s4,0xb
    f724:	0000                	unimp
    f726:	0000                	unimp
    f728:	6552                	ld	a0,272(sp)
    f72a:	6f6d                	lui	t5,0x1b
    f72c:	6576                	ld	a0,344(sp)
    f72e:	2820                	fld	fs0,80(s0)
    f730:	6e75                	lui	t3,0x1d
    f732:	696c                	ld	a1,208(a0)
    f734:	6b6e                	ld	s6,216(sp)
    f736:	2029                	0x2029
    f738:	6874                	ld	a3,208(s0)
    f73a:	2065                	0x2065
    f73c:	4946                	lw	s2,80(sp)
    f73e:	454c                	lw	a1,12(a0)
    f740:	7328                	ld	a0,96(a4)
    f742:	2e29                	addiw	t3,t3,10
    f744:	000a                	c.slli	zero,0x2
    f746:	0000                	unimp
    f748:	7245                	lui	tp,0xffff1
    f74a:	6f72                	ld	t5,280(sp)
    f74c:	3a72                	fld	fs4,312(sp)
    f74e:	4220                	lw	s0,64(a2)
    f750:	6461                	lui	s0,0x18
    f752:	6f20                	ld	s0,88(a4)
    f754:	7470                	ld	a2,232(s0)
    f756:	6f69                	lui	t5,0x1a
    f758:	3a6e                	fld	fs4,248(sp)
    f75a:	2520                	fld	fs0,72(a0)
    f75c:	00000a63          	beqz	zero,0xf770
    f760:	6e6e6163          	bltu	t3,t1,0xfe42
    f764:	7220746f          	jal	s0,0x16e86
    f768:	6d65                	lui	s10,0x19
    f76a:	2065766f          	jal	a2,0x66970
    f76e:	27732527          	fsw	fs7,618(t1) # 0xffffffffffff526a
    f772:	203a                	fld	ft0,392(sp)
    f774:	7349                	lui	t1,0xffff2
    f776:	6120                	ld	s0,64(a0)
    f778:	6420                	ld	s0,72(s0)
    f77a:	7269                	lui	tp,0xffffa
    f77c:	6365                	lui	t1,0x19
    f77e:	6f74                	ld	a3,216(a4)
    f780:	7972                	ld	s2,312(sp)
    f782:	000a                	c.slli	zero,0x2
    f784:	0000                	unimp
    f786:	0000                	unimp
    f788:	6e6e6163          	bltu	t3,t1,0xfe6a
    f78c:	7220746f          	jal	s0,0x16eae
    f790:	6d65                	lui	s10,0x19
    f792:	2065766f          	jal	a2,0x66998
    f796:	27732527          	fsw	fs7,618(t1) # 0x1926a
    f79a:	203a                	fld	ft0,392(sp)
    f79c:	6f4e                	ld	t5,208(sp)
    f79e:	7320                	ld	s0,96(a4)
    f7a0:	6375                	lui	t1,0x1d
    f7a2:	2068                	fld	fa0,192(s0)
    f7a4:	6966                	ld	s2,88(sp)
    f7a6:	656c                	ld	a1,200(a0)
    f7a8:	6f20                	ld	s0,88(a4)
    f7aa:	2072                	fld	ft0,280(sp)
    f7ac:	6964                	ld	s1,208(a0)
    f7ae:	6572                	ld	a0,280(sp)
    f7b0:	726f7463          	bgeu	t5,t1,0xfed8
    f7b4:	0a79                	addi	s4,s4,30
    f7b6:	0000                	unimp
    f7b8:	6c65                	lui	s8,0x19
    f7ba:	006d                	c.nop	27
    f7bc:	0000                	unimp
    f7be:	0000                	unimp
    f7c0:	742d                	lui	s0,0xfffeb
    f7c2:	0000                	unimp
    f7c4:	0000                	unimp
    f7c6:	0000                	unimp
    f7c8:	7355                	lui	t1,0xffff5
    f7ca:	6761                	lui	a4,0x18
    f7cc:	3a65                	addiw	s4,s4,-7
    f7ce:	6d20                	ld	s0,88(a0)
    f7d0:	2073666b          	0x2073666b
    f7d4:	20742d5b          	0x20742d5b
    f7d8:	7974                	ld	a3,240(a0)
    f7da:	6570                	ld	a2,200(a0)
    f7dc:	205d                	0x205d
    f7de:	6564                	ld	s1,200(a0)
    f7e0:	6976                	ld	s2,344(sp)
    f7e2:	000a6563          	bltu	s4,zero,0xf7ec
    f7e6:	0000                	unimp
    f7e8:	6b6d                	lui	s6,0x1b
    f7ea:	7366                	ld	t1,120(sp)
    f7ec:	6620                	ld	s0,72(a2)
    f7ee:	6961                	lui	s2,0x18
    f7f0:	656c                	ld	a1,200(a0)
    f7f2:	2c64                	fld	fs1,216(s0)
    f7f4:	7220                	ld	s0,96(a2)
    f7f6:	7365                	lui	t1,0xffff9
    f7f8:	6c75                	lui	s8,0x1d
    f7fa:	3d74                	fld	fa3,248(a0)
    f7fc:	6425                	lui	s0,0x9
    f7fe:	000a                	c.slli	zero,0x2
    f800:	7355                	lui	t1,0xffff5
    f802:	6761                	lui	a4,0x18
    f804:	3a65                	addiw	s4,s4,-7
    f806:	7520                	ld	s0,104(a0)
    f808:	6d6e                	ld	s10,216(sp)
    f80a:	746e756f          	jal	a0,0xf6f50
    f80e:	3c20                	fld	fs0,120(s0)
    f810:	6f6d                	lui	t5,0x1b
    f812:	6e75                	lui	t3,0x1d
    f814:	7074                	ld	a3,224(s0)
    f816:	746e696f          	jal	s2,0xf5f5c
    f81a:	2e3e                	fld	ft8,456(sp)
    f81c:	000a                	c.slli	zero,0x2
    f81e:	0000                	unimp
    f820:	6e75                	lui	t3,0x1d
    f822:	6f6d                	lui	t5,0x1b
    f824:	6e75                	lui	t3,0x1d
    f826:	2074                	fld	fa3,192(s0)
    f828:	7325                	lui	t1,0xfffe9
    f82a:	2e20                	fld	fs0,88(a2)
    f82c:	2e2e                	fld	ft8,200(sp)
    f82e:	0020                	addi	s0,sp,8
    f830:	6166                	ld	sp,88(sp)
    f832:	6c69                	lui	s8,0x1a
    f834:	6465                	lui	s0,0x19
    f836:	0a21                	addi	s4,s4,8
	...
    f840:	63637573          	csrrci	a0,0x636,6
    f844:	6565                	lui	a0,0x19
    f846:	2164                	fld	fs1,192(a0)
    f848:	000a                	c.slli	zero,0x2
    f84a:	0000                	unimp
    f84c:	0000                	unimp
    f84e:	0000                	unimp
    f850:	7355                	lui	t1,0xffff5
    f852:	6761                	lui	a4,0x18
    f854:	3a65                	addiw	s4,s4,-7
    f856:	7420                	ld	s0,104(s0)
    f858:	6961                	lui	s2,0x18
    f85a:	206c                	fld	fa1,192(s0)
    f85c:	206e2d5b          	0x206e2d5b
    f860:	756e                	ld	a0,248(sp)
    f862:	626d                	lui	tp,0x1b
    f864:	7265                	lui	tp,0xffff9
    f866:	3c205d73          	csrrwi	s10,0x3c2,0
    f86a:	6966                	ld	s2,88(sp)
    f86c:	656c                	ld	a1,200(a0)
    f86e:	616e                	ld	sp,216(sp)
    f870:	656d                	lui	a0,0x1b
    f872:	0a3e                	slli	s4,s4,0xf
    f874:	0000                	unimp
    f876:	0000                	unimp
    f878:	6e2d                	lui	t3,0xb
    f87a:	0000                	unimp
    f87c:	0000                	unimp
    f87e:	0000                	unimp
    f880:	6946                	ld	s2,80(sp)
    f882:	656c                	ld	a1,200(a0)
    f884:	6420                	ld	s0,72(s0)
    f886:	6e73656f          	jal	a0,0x4676c
    f88a:	65207427          	0x65207427
    f88e:	6978                	ld	a4,208(a0)
    f890:	000a7473          	csrrci	s0,ustatus,20
    f894:	0000                	unimp
    f896:	0000                	unimp
    f898:	540a                	lw	s0,160(sp)
    f89a:	6c61746f          	jal	s0,0x26f60
    f89e:	4e20                	lw	s0,88(a2)
    f8a0:	6d75                	lui	s10,0x1d
    f8a2:	6562                	ld	a0,24(sp)
    f8a4:	2072                	fld	ft0,280(sp)
    f8a6:	6c20666f          	jal	a2,0x15f68
    f8aa:	6e69                	lui	t3,0x1a
    f8ac:	7365                	lui	t1,0xffff9
    f8ae:	253a                	fld	fa0,392(sp)
    f8b0:	0a64                	addi	s1,sp,284
    f8b2:	0000                	unimp
    f8b4:	0000                	unimp
    f8b6:	0000                	unimp
    f8b8:	450a                	lw	a0,128(sp)
    f8ba:	7272                	ld	tp,312(sp)
    f8bc:	523a726f          	jal	tp,0xb75de
    f8c0:	7165                	addi	sp,sp,-400
    f8c2:	6975                	lui	s2,0x1d
    f8c4:	6572                	ld	a0,280(sp)
    f8c6:	2064                	fld	fs1,192(s0)
    f8c8:	696c                	ld	a1,208(a0)
    f8ca:	656e                	ld	a0,216(sp)
    f8cc:	72612073          	csrs	0x726,sp
    f8d0:	2065                	0x2065
    f8d2:	6f6d                	lui	t5,0x1b
    f8d4:	6572                	ld	a0,280(sp)
    f8d6:	7420                	ld	s0,104(s0)
    f8d8:	6168                	ld	a0,192(a0)
    f8da:	206e                	fld	ft0,216(sp)
    f8dc:	6f74                	ld	a3,216(a4)
    f8de:	6174                	ld	a3,192(a0)
    f8e0:	206c                	fld	fa1,192(s0)
    f8e2:	756e                	ld	a0,248(sp)
    f8e4:	626d                	lui	tp,0x1b
    f8e6:	7265                	lui	tp,0xffff9
    f8e8:	6f20                	ld	s0,88(a4)
    f8ea:	2066                	fld	ft0,88(sp)
    f8ec:	696c                	ld	a1,208(a0)
    f8ee:	656e                	ld	a0,216(sp)
    f8f0:	00000a73          	0xa73
    f8f4:	0000                	unimp
    f8f6:	0000                	unimp
    f8f8:	6552                	ld	a0,272(sp)
    f8fa:	7571                	lui	a0,0xffffc
    f8fc:	7269                	lui	tp,0xffffa
    f8fe:	6465                	lui	s0,0x19
    f900:	4e20                	lw	s0,88(a2)
    f902:	6d75                	lui	s10,0x1d
    f904:	6562                	ld	a0,24(sp)
    f906:	2072                	fld	ft0,280(sp)
    f908:	6c20666f          	jal	a2,0x15fca
    f90c:	6e69                	lui	t3,0x1a
    f90e:	7365                	lui	t1,0xffff9
    f910:	253a                	fld	fa0,392(sp)
    f912:	0a64                	addi	s1,sp,284
    f914:	0000                	unimp
    f916:	0000                	unimp
    f918:	7355                	lui	t1,0xffff5
    f91a:	6761                	lui	a4,0x18
    f91c:	3a65                	addiw	s4,s4,-7
    f91e:	6320                	ld	s0,64(a4)
    f920:	2070                	fld	fa2,192(s0)
    f922:	52554f53          	0x52554f53
    f926:	44204543          	0x44204543
    f92a:	5345                	li	t1,-15
    f92c:	0a54                	addi	a3,sp,276
    f92e:	0000                	unimp
    f930:	79706f43          	fmadd.s	ft10,ft0,fs7,fa5,unknown
    f934:	5320                	lw	s0,96(a4)
    f936:	4352554f          	fnmadd.d	fa0,ft4,fs5,fs0,unknown
    f93a:	2045                	0x2045
    f93c:	6f74                	ld	a3,216(a4)
    f93e:	4420                	lw	s0,72(s0)
    f940:	5345                	li	t1,-15
    f942:	2e54                	fld	fa3,152(a2)
    f944:	000a                	c.slli	zero,0x2
    f946:	0000                	unimp
    f948:	7355                	lui	t1,0xffff5
    f94a:	6761                	lui	a4,0x18
    f94c:	3a65                	addiw	s4,s4,-7
    f94e:	6d20                	ld	s0,88(a0)
    f950:	2076                	fld	ft0,344(sp)
    f952:	52554f53          	0x52554f53
    f956:	44204543          	0x44204543
    f95a:	5345                	li	t1,-15
    f95c:	0a54                	addi	a3,sp,276
    f95e:	0000                	unimp
    f960:	6552                	ld	a0,272(sp)
    f962:	616e                	ld	sp,216(sp)
    f964:	656d                	lui	a0,0x1b
    f966:	5320                	lw	s0,96(a4)
    f968:	4352554f          	fnmadd.d	fa0,ft4,fs5,fs0,unknown
    f96c:	2045                	0x2045
    f96e:	6f74                	ld	a3,216(a4)
    f970:	4420                	lw	s0,72(s0)
    f972:	5345                	li	t1,-15
    f974:	2c54                	fld	fa3,152(s0)
    f976:	6f20                	ld	s0,88(a4)
    f978:	2072                	fld	ft0,280(sp)
    f97a:	6f6d                	lui	t5,0x1b
    f97c:	6576                	ld	a0,344(sp)
    f97e:	5320                	lw	s0,96(a4)
    f980:	4352554f          	fnmadd.d	fa0,ft4,fs5,fs0,unknown
    f984:	2845                	addiw	a6,a6,17
    f986:	74202973          	csrr	s2,0x742
    f98a:	4944206f          	j	0x51e1e
    f98e:	4552                	lw	a0,20(sp)
    f990:	524f5443          	fmadd.d	fs0,ft10,ft4,fa0,unknown
    f994:	2e59                	addiw	t3,t3,22
    f996:	000a                	c.slli	zero,0x2
    f998:	7325                	lui	t1,0xfffe9
    f99a:	3d20                	fld	fs0,120(a0)
    f99c:	203e                	fld	ft0,456(sp)
    f99e:	7325                	lui	t1,0xfffe9
    f9a0:	000a                	c.slli	zero,0x2
    f9a2:	0000                	unimp
    f9a4:	0000                	unimp
    f9a6:	0000                	unimp
    f9a8:	7355                	lui	t1,0xffff5
    f9aa:	6761                	lui	a4,0x18
    f9ac:	3a65                	addiw	s4,s4,-7
    f9ae:	6320                	ld	s0,64(a4)
    f9b0:	7461                	lui	s0,0xffff8
    f9b2:	5b20                	lw	s0,112(a4)
    f9b4:	4946                	lw	s2,80(sp)
    f9b6:	454c                	lw	a1,12(a0)
    f9b8:	2e5d                	addiw	t3,t3,23
    f9ba:	2e2e                	fld	ft8,200(sp)
    f9bc:	000a                	c.slli	zero,0x2
    f9be:	0000                	unimp
    f9c0:	636e6f43          	fmadd.d	ft10,ft8,fs6,fa2,unknown
    f9c4:	7461                	lui	s0,0xffff8
    f9c6:	6e65                	lui	t3,0x19
    f9c8:	7461                	lui	s0,0xffff8
    f9ca:	2065                	0x2065
    f9cc:	4946                	lw	s2,80(sp)
    f9ce:	454c                	lw	a1,12(a0)
    f9d0:	7328                	ld	a0,96(a4)
    f9d2:	0a29                	addi	s4,s4,10
    f9d4:	0000                	unimp
    f9d6:	0000                	unimp
    f9d8:	6f4e                	ld	t5,208(sp)
    f9da:	7320                	ld	s0,96(a4)
    f9dc:	6375                	lui	t1,0x1d
    f9de:	2068                	fld	fa0,192(s0)
    f9e0:	6964                	ld	s1,208(a0)
    f9e2:	6572                	ld	a0,280(sp)
    f9e4:	726f7463          	bgeu	t5,t1,0x1010c
    f9e8:	3a79                	addiw	s4,s4,-2
    f9ea:	2520                	fld	fs0,72(a0)
    f9ec:	00000a73          	0xa73
    f9f0:	7355                	lui	t1,0xffff5
    f9f2:	6761                	lui	a4,0x18
    f9f4:	3a65                	addiw	s4,s4,-7
    f9f6:	6d20                	ld	s0,88(a0)
    f9f8:	7269646b          	0x7269646b
    f9fc:	5b20                	lw	s0,112(a4)
    f9fe:	4954504f          	fnmadd.s	ft0,fs0,fs5,fs1,unknown
    fa02:	205d4e4f          	fnmadd.s	ft8,fs10,ft5,ft4,rmm
    fa06:	4944                	lw	s1,20(a0)
    fa08:	4552                	lw	a0,20(sp)
    fa0a:	524f5443          	fmadd.d	fs0,ft10,ft4,fa0,unknown
    fa0e:	0a59                	addi	s4,s4,22
	...
    fa18:	61657243          	fmadd.s	ft4,fa0,fs6,fa2
    fa1c:	6574                	ld	a3,200(a0)
    fa1e:	7420                	ld	s0,104(s0)
    fa20:	6568                	ld	a0,200(a0)
    fa22:	4420                	lw	s0,72(s0)
    fa24:	5249                	li	tp,-14
    fa26:	4345                	li	t1,17
    fa28:	4f54                	lw	a3,28(a4)
    fa2a:	5952                	lw	s2,52(sp)
    fa2c:	202c                	fld	fa1,64(s0)
    fa2e:	6669                	lui	a2,0x1a
    fa30:	7420                	ld	s0,104(s0)
    fa32:	6568                	ld	a0,200(a0)
    fa34:	2079                	0x2079
    fa36:	6f64                	ld	s1,216(a4)
    fa38:	6e20                	ld	s0,88(a2)
    fa3a:	6120746f          	jal	s0,0x1704c
    fa3e:	726c                	ld	a1,224(a2)
    fa40:	6165                	addi	sp,sp,112
    fa42:	7964                	ld	s1,240(a0)
    fa44:	6520                	ld	s0,72(a0)
    fa46:	6978                	ld	a4,208(a0)
    fa48:	0a2e7473          	csrrci	s0,0xa2,28
    fa4c:	0000                	unimp
    fa4e:	0000                	unimp
    fa50:	6966                	ld	s2,88(sp)
    fa52:	656c                	ld	a1,200(a0)
    fa54:	74737973          	csrrci	s2,0x747,6
    fa58:	6d65                	lui	s10,0x19
    fa5a:	2020                	fld	fs0,64(s0)
    fa5c:	6564                	ld	s1,200(a0)
    fa5e:	6976                	ld	s2,344(sp)
    fa60:	20206563          	bltu	zero,sp,0xfc6a
    fa64:	6f6d                	lui	t5,0x1b
    fa66:	6e75                	lui	t3,0x1d
    fa68:	7074                	ld	a3,224(s0)
    fa6a:	746e696f          	jal	s2,0xf61b0
    fa6e:	000a                	c.slli	zero,0x2
    fa70:	2d2d                	addiw	s10,s10,11
    fa72:	2d2d                	addiw	s10,s10,11
    fa74:	2d2d                	addiw	s10,s10,11
    fa76:	2d2d                	addiw	s10,s10,11
    fa78:	2d2d                	addiw	s10,s10,11
    fa7a:	2020                	fld	fs0,64(s0)
    fa7c:	2d2d                	addiw	s10,s10,11
    fa7e:	2d2d                	addiw	s10,s10,11
    fa80:	2d2d                	addiw	s10,s10,11
    fa82:	2020                	fld	fs0,64(s0)
    fa84:	2d2d                	addiw	s10,s10,11
    fa86:	2d2d                	addiw	s10,s10,11
    fa88:	2d2d                	addiw	s10,s10,11
    fa8a:	2d2d                	addiw	s10,s10,11
    fa8c:	2d2d                	addiw	s10,s10,11
    fa8e:	000a                	c.slli	zero,0x2
    fa90:	2d25                	addiw	s10,s10,9
    fa92:	3031                	0x3031
    fa94:	25202073          	csrr	zero,0x252
    fa98:	362d                	addiw	a2,a2,-21
    fa9a:	25202073          	csrr	zero,0x252
    fa9e:	732d                	lui	t1,0xfffeb
    faa0:	000a                	c.slli	zero,0x2
    faa2:	0000                	unimp
    faa4:	0000                	unimp
    faa6:	0000                	unimp
    faa8:	6f6d                	lui	t5,0x1b
    faaa:	6e75                	lui	t3,0x1d
    faac:	2074                	fld	fa3,192(s0)
    faae:	6564                	ld	s1,200(a0)
    fab0:	6976                	ld	s2,344(sp)
    fab2:	25206563          	bltu	zero,s2,0xfcfc
    fab6:	73252873          	csrrs	a6,0x732,a0
    faba:	2029                	0x2029
    fabc:	6f746e6f          	jal	t3,0x569b2
    fac0:	2520                	fld	fs0,72(a0)
    fac2:	2e2e2073          	csrs	0x2e2,t3
    fac6:	202e                	fld	ft0,200(sp)
	...
    fad0:	7355                	lui	t1,0xffff5
    fad2:	6761                	lui	a4,0x18
    fad4:	3a65                	addiw	s4,s4,-7
    fad6:	6d20                	ld	s0,88(a0)
    fad8:	746e756f          	jal	a0,0xf721e
    fadc:	3c20                	fld	fs0,120(s0)
    fade:	6564                	ld	s1,200(a0)
    fae0:	6976                	ld	s2,344(sp)
    fae2:	203e6563          	bltu	t3,gp,0xfcec
    fae6:	6d3c                	ld	a5,88(a0)
    fae8:	746e756f          	jal	a0,0xf722e
    faec:	6f70                	ld	a2,216(a4)
    faee:	6e69                	lui	t3,0x1a
    faf0:	3e74                	fld	fa3,248(a2)
    faf2:	3c20                	fld	fs0,120(s0)
    faf4:	7366                	ld	t1,120(sp)
    faf6:	7974                	ld	a3,240(a0)
    faf8:	6570                	ld	a2,200(a0)
    fafa:	2e3e                	fld	ft8,456(sp)
    fafc:	000a                	c.slli	zero,0x2
    fafe:	0000                	unimp
    fb00:	2d2d                	addiw	s10,s10,11
    fb02:	6568                	ld	a0,200(a0)
    fb04:	706c                	ld	a1,224(s0)
    fb06:	0000                	unimp
    fb08:	682d                	lui	a6,0xb
    fb0a:	0000                	unimp
    fb0c:	0000                	unimp
    fb0e:	0000                	unimp
    fb10:	6664                	ld	s1,200(a2)
    fb12:	5b20                	lw	s0,112(a4)
    fb14:	6170                	ld	a2,192(a0)
    fb16:	6874                	ld	a3,208(s0)
    fb18:	0a5d                	addi	s4,s4,23
    fb1a:	0000                	unimp
    fb1c:	0000                	unimp
    fb1e:	0000                	unimp
    fb20:	6e65706f          	j	0x67206
    fb24:	6620                	ld	s0,72(a2)
    fb26:	6c69                	lui	s8,0x1a
    fb28:	3a65                	addiw	s4,s4,-7
    fb2a:	7325                	lui	t1,0xfffe9
    fb2c:	6620                	ld	s0,72(a2)
    fb2e:	6961                	lui	s2,0x18
    fb30:	656c                	ld	a1,200(a0)
    fb32:	2164                	fld	fs1,192(a0)
    fb34:	000a                	c.slli	zero,0x2
    fb36:	0000                	unimp
    fb38:	7355                	lui	t1,0xffff5
    fb3a:	6761                	lui	a4,0x18
    fb3c:	3a65                	addiw	s4,s4,-7
    fb3e:	6520                	ld	s0,72(a0)
    fb40:	206f6863          	bltu	t5,t1,0xfd50
    fb44:	7322                	ld	t1,40(sp)
    fb46:	7274                	ld	a3,224(a2)
    fb48:	6e69                	lui	t3,0x1a
    fb4a:	5b202267          	0x5b202267
    fb4e:	6966                	ld	s2,88(sp)
    fb50:	656c                	ld	a1,200(a0)
    fb52:	616e                	ld	sp,216(sp)
    fb54:	656d                	lui	a0,0x1b
    fb56:	0a5d                	addi	s4,s4,23
	...
    fb60:	732e                	ld	t1,232(sp)
    fb62:	0068                	addi	a0,sp,12
    fb64:	0000                	unimp
    fb66:	0000                	unimp
    fb68:	532e                	lw	t1,232(sp)
    fb6a:	0048                	addi	a0,sp,4
    fb6c:	0000                	unimp
    fb6e:	0000                	unimp
    fb70:	6e69622f          	0x6e69622f
    fb74:	2a2e252f          	0x2a2e252f
    fb78:	00000073          	ecall
    fb7c:	0000                	unimp
    fb7e:	0000                	unimp
    fb80:	7270                	ld	a2,224(a2)
    fb82:	6e69                	lui	t3,0x1a
    fb84:	2074                	fld	fa3,192(s0)
    fb86:	6874                	ld	a3,208(s0)
    fb88:	2065                	0x2065
    fb8a:	616c                	ld	a1,192(a0)
    fb8c:	4e207473          	csrrci	s0,0x4e2,0
    fb90:	6c2d                	lui	s8,0xb
    fb92:	6e69                	lui	t3,0x1a
    fb94:	7365                	lui	t1,0xffff9
    fb96:	6420                	ld	s0,72(s0)
    fb98:	7461                	lui	s0,0xffff8
    fb9a:	2061                	0x2061
    fb9c:	7420666f          	jal	a2,0x162de
    fba0:	6568                	ld	a0,200(a0)
    fba2:	6720                	ld	s0,72(a4)
    fba4:	7669                	lui	a2,0xffffa
    fba6:	6e65                	lui	t3,0x19
    fba8:	6620                	ld	s0,72(a2)
    fbaa:	6c69                	lui	s8,0x1a
    fbac:	0065                	c.nop	25
    fbae:	0000                	unimp
    fbb0:	5f5f 6d63 5f64      	0x5f646d635f5f
    fbb6:	6174                	ld	a3,192(a0)
    fbb8:	6c69                	lui	s8,0x1a
    fbba:	0000                	unimp
    fbbc:	0000                	unimp
    fbbe:	0000                	unimp
    fbc0:	6365                	lui	t1,0x19
    fbc2:	6f68                	ld	a0,216(a4)
    fbc4:	7320                	ld	s0,96(a4)
    fbc6:	7274                	ld	a3,224(a2)
    fbc8:	6e69                	lui	t3,0x1a
    fbca:	6f742067          	0x6f742067
    fbce:	6620                	ld	s0,72(a2)
    fbd0:	6c69                	lui	s8,0x1a
    fbd2:	0065                	c.nop	25
    fbd4:	0000                	unimp
    fbd6:	0000                	unimp
    fbd8:	5f5f 6d63 5f64      	0x5f646d635f5f
    fbde:	6365                	lui	t1,0x19
    fbe0:	6f68                	ld	a0,216(a4)
    fbe2:	0000                	unimp
    fbe4:	0000                	unimp
    fbe6:	0000                	unimp
    fbe8:	6964                	ld	s1,208(a0)
    fbea:	66206b73          	csrrsi	s6,0x662,0
    fbee:	6572                	ld	a0,280(sp)
    fbf0:	0065                	c.nop	25
    fbf2:	0000                	unimp
    fbf4:	0000                	unimp
    fbf6:	0000                	unimp
    fbf8:	5f5f 6d63 5f64      	0x5f646d635f5f
    fbfe:	6664                	ld	s1,200(a2)
	...
    fc08:	6e55                	lui	t3,0x15
    fc0a:	6f6d                	lui	t5,0x1b
    fc0c:	6e75                	lui	t3,0x1d
    fc0e:	2074                	fld	fa3,192(s0)
    fc10:	6564                	ld	s1,200(a0)
    fc12:	6976                	ld	s2,344(sp)
    fc14:	66206563          	bltu	zero,sp,0x1027e
    fc18:	6f72                	ld	t5,280(sp)
    fc1a:	206d                	0x206d
    fc1c:	6966                	ld	s2,88(sp)
    fc1e:	656c                	ld	a1,200(a0)
    fc20:	7320                	ld	s0,96(a4)
    fc22:	7379                	lui	t1,0xffffe
    fc24:	6574                	ld	a3,200(a0)
    fc26:	006d                	c.nop	27
    fc28:	5f5f 6d63 5f64      	0x5f646d635f5f
    fc2e:	6d75                	lui	s10,0x1d
    fc30:	746e756f          	jal	a0,0xf7376
    fc34:	0000                	unimp
    fc36:	0000                	unimp
    fc38:	6f6d                	lui	t5,0x1b
    fc3a:	6e75                	lui	t3,0x1d
    fc3c:	2074                	fld	fa3,192(s0)
    fc3e:	643c                	ld	a5,72(s0)
    fc40:	7665                	lui	a2,0xffff9
    fc42:	6369                	lui	t1,0x1a
    fc44:	3e65                	addiw	t3,t3,-7
    fc46:	3c20                	fld	fs0,120(s0)
    fc48:	6f6d                	lui	t5,0x1b
    fc4a:	6e75                	lui	t3,0x1d
    fc4c:	7074                	ld	a3,224(s0)
    fc4e:	746e696f          	jal	s2,0xf6394
    fc52:	203e                	fld	ft0,456(sp)
    fc54:	663c                	ld	a5,72(a2)
    fc56:	70797473          	csrrci	s0,0x707,18
    fc5a:	3e65                	addiw	t3,t3,-7
    fc5c:	0000                	unimp
    fc5e:	0000                	unimp
    fc60:	5f5f 6d63 5f64      	0x5f646d635f5f
    fc66:	6f6d                	lui	t5,0x1b
    fc68:	6e75                	lui	t3,0x1d
    fc6a:	0074                	addi	a3,sp,12
    fc6c:	0000                	unimp
    fc6e:	0000                	unimp
    fc70:	6f66                	ld	t5,88(sp)
    fc72:	6d72                	ld	s10,280(sp)
    fc74:	7461                	lui	s0,0xffff8
    fc76:	6420                	ld	s0,72(s0)
    fc78:	7369                	lui	t1,0xffffa
    fc7a:	6977206b          	0x6977206b
    fc7e:	6874                	ld	a3,208(s0)
    fc80:	6620                	ld	s0,72(a2)
    fc82:	6c69                	lui	s8,0x1a
    fc84:	2065                	0x2065
    fc86:	74737973          	csrrci	s2,0x747,6
    fc8a:	6d65                	lui	s10,0x19
    fc8c:	0000                	unimp
    fc8e:	0000                	unimp
    fc90:	5f5f 6d63 5f64      	0x5f646d635f5f
    fc96:	6b6d                	lui	s6,0x1b
    fc98:	7366                	ld	t1,120(sp)
    fc9a:	0000                	unimp
    fc9c:	0000                	unimp
    fc9e:	0000                	unimp
    fca0:	61657243          	fmadd.s	ft4,fa0,fs6,fa2
    fca4:	6574                	ld	a3,200(a0)
    fca6:	7420                	ld	s0,104(s0)
    fca8:	6568                	ld	a0,200(a0)
    fcaa:	4420                	lw	s0,72(s0)
    fcac:	5249                	li	tp,-14
    fcae:	4345                	li	t1,17
    fcb0:	4f54                	lw	a3,28(a4)
    fcb2:	5952                	lw	s2,52(sp)
    fcb4:	002e                	c.slli	zero,0xb
    fcb6:	0000                	unimp
    fcb8:	5f5f 6d63 5f64      	0x5f646d635f5f
    fcbe:	6b6d                	lui	s6,0x1b
    fcc0:	6964                	ld	s1,208(a0)
    fcc2:	0072                	c.slli	zero,0x1c
    fcc4:	0000                	unimp
    fcc6:	0000                	unimp
    fcc8:	7250                	ld	a2,160(a2)
    fcca:	6e69                	lui	t3,0x1a
    fccc:	2074                	fld	fa3,192(s0)
    fcce:	6874                	ld	a3,208(s0)
    fcd0:	2065                	0x2065
    fcd2:	616e                	ld	sp,216(sp)
    fcd4:	656d                	lui	a0,0x1b
    fcd6:	6f20                	ld	s0,88(a4)
    fcd8:	2066                	fld	ft0,88(sp)
    fcda:	6874                	ld	a3,208(s0)
    fcdc:	2065                	0x2065
    fcde:	72727563          	bgeu	tp,t2,0x10408
    fce2:	6e65                	lui	t3,0x19
    fce4:	2074                	fld	fa3,192(s0)
    fce6:	6b726f77          	0x6b726f77
    fcea:	6e69                	lui	t3,0x1a
    fcec:	69642067          	0x69642067
    fcf0:	6572                	ld	a0,280(sp)
    fcf2:	726f7463          	bgeu	t5,t1,0x1041a
    fcf6:	2e79                	addiw	t3,t3,30
	...
    fd00:	5f5f 6d63 5f64      	0x5f646d635f5f
    fd06:	7770                	ld	a2,232(a4)
    fd08:	0064                	addi	s1,sp,12
    fd0a:	0000                	unimp
    fd0c:	0000                	unimp
    fd0e:	0000                	unimp
    fd10:	6e616843          	fmadd.q	fa6,ft2,ft6,fa3,unknown
    fd14:	74206567          	0x74206567
    fd18:	6568                	ld	a0,200(a0)
    fd1a:	7320                	ld	s0,96(a4)
    fd1c:	6568                	ld	a0,200(a0)
    fd1e:	6c6c                	ld	a1,216(s0)
    fd20:	7720                	ld	s0,104(a4)
    fd22:	696b726f          	jal	tp,0xc73b8
    fd26:	676e                	ld	a4,216(sp)
    fd28:	6420                	ld	s0,72(s0)
    fd2a:	7269                	lui	tp,0xffffa
    fd2c:	6365                	lui	t1,0x19
    fd2e:	6f74                	ld	a3,216(a4)
    fd30:	7972                	ld	s2,312(sp)
    fd32:	002e                	c.slli	zero,0xb
    fd34:	0000                	unimp
    fd36:	0000                	unimp
    fd38:	5f5f 6d63 5f64      	0x5f646d635f5f
    fd3e:	00006463          	bltu	zero,zero,0xfd46
    fd42:	0000                	unimp
    fd44:	0000                	unimp
    fd46:	0000                	unimp
    fd48:	6552                	ld	a0,272(sp)
    fd4a:	6f6d                	lui	t5,0x1b
    fd4c:	6576                	ld	a0,344(sp)
    fd4e:	7528                	ld	a0,104(a0)
    fd50:	6c6e                	ld	s8,216(sp)
    fd52:	6e69                	lui	t3,0x1a
    fd54:	7420296b          	0x7420296b
    fd58:	6568                	ld	a0,200(a0)
    fd5a:	4620                	lw	s0,72(a2)
    fd5c:	4c49                	li	s8,18
    fd5e:	2845                	addiw	a6,a6,17
    fd60:	002e2973          	csrrs	s2,frm,t3
    fd64:	0000                	unimp
    fd66:	0000                	unimp
    fd68:	5f5f 6d63 5f64      	0x5f646d635f5f
    fd6e:	6d72                	ld	s10,280(sp)
	...
    fd78:	636e6f43          	fmadd.d	ft10,ft8,fs6,fa2,unknown
    fd7c:	7461                	lui	s0,0xffff8
    fd7e:	6e65                	lui	t3,0x19
    fd80:	7461                	lui	s0,0xffff8
    fd82:	2065                	0x2065
    fd84:	4946                	lw	s2,80(sp)
    fd86:	454c                	lw	a1,12(a0)
    fd88:	7328                	ld	a0,96(a4)
    fd8a:	0029                	c.nop	10
    fd8c:	0000                	unimp
    fd8e:	0000                	unimp
    fd90:	5f5f 6d63 5f64      	0x5f646d635f5f
    fd96:	00746163          	bltu	s0,t2,0xfd98
    fd9a:	0000                	unimp
    fd9c:	0000                	unimp
    fd9e:	0000                	unimp
    fda0:	6552                	ld	a0,272(sp)
    fda2:	616e                	ld	sp,216(sp)
    fda4:	656d                	lui	a0,0x1b
    fda6:	5320                	lw	s0,96(a4)
    fda8:	4352554f          	fnmadd.d	fa0,ft4,fs5,fs0,unknown
    fdac:	2045                	0x2045
    fdae:	6f74                	ld	a3,216(a4)
    fdb0:	4420                	lw	s0,72(s0)
    fdb2:	5345                	li	t1,-15
    fdb4:	2e54                	fld	fa3,152(a2)
    fdb6:	0000                	unimp
    fdb8:	5f5f 6d63 5f64      	0x5f646d635f5f
    fdbe:	766d                	lui	a2,0xffffb
	...
    fdc8:	79706f43          	fmadd.s	ft10,ft0,fs7,fa5,unknown
    fdcc:	5320                	lw	s0,96(a4)
    fdce:	4352554f          	fnmadd.d	fa0,ft4,fs5,fs0,unknown
    fdd2:	2045                	0x2045
    fdd4:	6f74                	ld	a3,216(a4)
    fdd6:	4420                	lw	s0,72(s0)
    fdd8:	5345                	li	t1,-15
    fdda:	2e54                	fld	fa3,152(a2)
    fddc:	0000                	unimp
    fdde:	0000                	unimp
    fde0:	5f5f 6d63 5f64      	0x5f646d635f5f
    fde6:	00007063          	bgeu	zero,zero,0xfde6
    fdea:	0000                	unimp
    fdec:	0000                	unimp
    fdee:	0000                	unimp
    fdf0:	694c                	ld	a1,144(a0)
    fdf2:	69207473          	csrrci	s0,0x692,0
    fdf6:	666e                	ld	a2,216(sp)
    fdf8:	616d726f          	jal	tp,0xe740e
    fdfc:	6974                	ld	a3,208(a0)
    fdfe:	61206e6f          	jal	t3,0x16410
    fe02:	6f62                	ld	t5,24(sp)
    fe04:	7475                	lui	s0,0xffffd
    fe06:	7420                	ld	s0,104(s0)
    fe08:	6568                	ld	a0,200(a0)
    fe0a:	4620                	lw	s0,72(a2)
    fe0c:	4c49                	li	s8,18
    fe0e:	7345                	lui	t1,0xffff1
    fe10:	002e                	c.slli	zero,0xb
    fe12:	0000                	unimp
    fe14:	0000                	unimp
    fe16:	0000                	unimp
    fe18:	5f5f 6d63 5f64      	0x5f646d635f5f
    fe1e:	736c                	ld	a1,224(a4)
	...
    fe28:	6548                	ld	a0,136(a0)
    fe2a:	6c6c                	ld	a1,216(s0)
    fe2c:	5452206f          	j	0x32b70
    fe30:	542d                	li	s0,-21
    fe32:	7268                	ld	a0,224(a2)
    fe34:	6165                	addi	sp,sp,112
    fe36:	2164                	fld	fs1,192(a0)
    fe38:	000a                	c.slli	zero,0x2
    fe3a:	0000                	unimp
    fe3c:	0000                	unimp
    fe3e:	0000                	unimp
    fe40:	4a325b1b          	0x4a325b1b
    fe44:	00485b1b          	srliw	s6,a6,0x4
    fe48:	2d2d                	addiw	s10,s10,11
    fe4a:	7546                	ld	a0,112(sp)
    fe4c:	636e                	ld	t1,216(sp)
    fe4e:	6974                	ld	a3,208(a0)
    fe50:	4c206e6f          	jal	t3,0x16312
    fe54:	7369                	lui	t1,0xffffa
    fe56:	3a74                	fld	fa3,240(a2)
    fe58:	000a                	c.slli	zero,0x2
    fe5a:	0000                	unimp
    fe5c:	0000                	unimp
    fe5e:	0000                	unimp
    fe60:	5f5f 0000 0000      	0x5f5f
    fe66:	0000                	unimp
    fe68:	2d25                	addiw	s10,s10,9
    fe6a:	3631                	addiw	a2,a2,-20
    fe6c:	2d2d2073          	csrs	0x2d2,s10
    fe70:	2520                	fld	fs0,72(a0)
    fe72:	00000a73          	0xa73
    fe76:	0000                	unimp
    fe78:	002d                	c.nop	11
    fe7a:	0000                	unimp
    fe7c:	0000                	unimp
    fe7e:	0000                	unimp
    fe80:	6874                	ld	a3,208(s0)
    fe82:	6572                	ld	a0,280(sp)
    fe84:	6461                	lui	s0,0x18
    fe86:	0000                	unimp
    fe88:	2d25                	addiw	s10,s10,9
    fe8a:	2e2a                	fld	ft8,136(sp)
    fe8c:	72702073          	csrr	zero,0x727
    fe90:	2069                	0x2069
    fe92:	7320                	ld	s0,96(a4)
    fe94:	6174                	ld	a3,192(a0)
    fe96:	7574                	ld	a3,232(a0)
    fe98:	20202073          	csrr	zero,hedeleg
    fe9c:	2020                	fld	fs0,64(s0)
    fe9e:	7320                	ld	s0,96(a4)
    fea0:	2070                	fld	fa2,192(s0)
    fea2:	2020                	fld	fs0,64(s0)
    fea4:	2020                	fld	fs0,64(s0)
    fea6:	63617473          	csrrci	s0,0x636,2
    feaa:	6973206b          	0x6973206b
    feae:	657a                	ld	a0,408(sp)
    feb0:	6d20                	ld	s0,88(a0)
    feb2:	7861                	lui	a6,0xffff8
    feb4:	7520                	ld	s0,104(a0)
    feb6:	20646573          	csrrsi	a0,0x206,8
    feba:	656c                	ld	a1,200(a0)
    febc:	7466                	ld	s0,120(sp)
    febe:	7420                	ld	s0,104(s0)
    fec0:	6369                	lui	t1,0x1a
    fec2:	6520206b          	0x6520206b
    fec6:	7272                	ld	tp,312(sp)
    fec8:	000a726f          	jal	tp,0xb6ec8
    fecc:	0000                	unimp
    fece:	0000                	unimp
    fed0:	2d20                	fld	fs0,88(a0)
    fed2:	2d2d                	addiw	s10,s10,11
    fed4:	2020                	fld	fs0,64(s0)
    fed6:	2d2d                	addiw	s10,s10,11
    fed8:	2d2d                	addiw	s10,s10,11
    feda:	2d2d                	addiw	s10,s10,11
    fedc:	202d                	0x202d
    fede:	2d2d                	addiw	s10,s10,11
    fee0:	2d2d                	addiw	s10,s10,11
    fee2:	2d2d                	addiw	s10,s10,11
    fee4:	2d2d                	addiw	s10,s10,11
    fee6:	2d2d                	addiw	s10,s10,11
    fee8:	2d20                	fld	fs0,88(a0)
    feea:	2d2d                	addiw	s10,s10,11
    feec:	2d2d                	addiw	s10,s10,11
    feee:	2d2d                	addiw	s10,s10,11
    fef0:	2d2d                	addiw	s10,s10,11
    fef2:	202d                	0x202d
    fef4:	2d20                	fld	fs0,88(a0)
    fef6:	2d2d                	addiw	s10,s10,11
    fef8:	2d2d                	addiw	s10,s10,11
    fefa:	202d                	0x202d
    fefc:	2d20                	fld	fs0,88(a0)
    fefe:	2d2d                	addiw	s10,s10,11
    ff00:	2d2d                	addiw	s10,s10,11
    ff02:	2d2d                	addiw	s10,s10,11
    ff04:	2d2d                	addiw	s10,s10,11
    ff06:	202d                	0x202d
    ff08:	2d2d                	addiw	s10,s10,11
    ff0a:	0a2d                	addi	s4,s4,11
    ff0c:	0000                	unimp
    ff0e:	0000                	unimp
    ff10:	2d25                	addiw	s10,s10,9
    ff12:	2e2a                	fld	ft8,136(sp)
    ff14:	732a                	ld	t1,168(sp)
    ff16:	2520                	fld	fs0,72(a0)
    ff18:	00206433          	or	s0,zero,sp
    ff1c:	0000                	unimp
    ff1e:	0000                	unimp
    ff20:	7220                	ld	s0,96(a2)
    ff22:	6165                	addi	sp,sp,112
    ff24:	7964                	ld	s1,240(a0)
    ff26:	2020                	fld	fs0,64(s0)
	...
    ff30:	7320                	ld	s0,96(a4)
    ff32:	7375                	lui	t1,0xffffd
    ff34:	6570                	ld	a2,200(a0)
    ff36:	646e                	ld	s0,216(sp)
	...
    ff40:	6920                	ld	s0,80(a0)
    ff42:	696e                	ld	s2,216(sp)
    ff44:	2074                	fld	fa3,192(s0)
    ff46:	2020                	fld	fs0,64(s0)
	...
    ff50:	6320                	ld	s0,64(a4)
    ff52:	6f6c                	ld	a1,216(a4)
    ff54:	20206573          	csrrsi	a0,hedeleg,0
	...
    ff60:	7220                	ld	s0,96(a2)
    ff62:	6e75                	lui	t3,0x1d
    ff64:	696e                	ld	s2,216(sp)
    ff66:	676e                	ld	a4,216(sp)
	...
    ff70:	3020                	fld	fs0,96(s0)
    ff72:	2578                	fld	fa4,200(a0)
    ff74:	3830                	fld	fa2,112(s0)
    ff76:	2078                	fld	fa4,192(s0)
    ff78:	7830                	ld	a2,112(s0)
    ff7a:	3025                	0x3025
    ff7c:	7838                	ld	a4,112(s0)
    ff7e:	2020                	fld	fs0,64(s0)
    ff80:	2020                	fld	fs0,64(s0)
    ff82:	3025                	0x3025
    ff84:	6432                	ld	s0,264(sp)
    ff86:	2525                	addiw	a0,a0,9
    ff88:	2020                	fld	fs0,64(s0)
    ff8a:	3020                	fld	fs0,96(s0)
    ff8c:	2578                	fld	fa4,200(a0)
    ff8e:	3830                	fld	fa2,112(s0)
    ff90:	2078                	fld	fa4,192(s0)
    ff92:	3025                	0x3025
    ff94:	000a6433          	or	s0,s4,zero
    ff98:	6e55                	lui	t3,0x15
    ff9a:	776f6e6b          	0x776f6e6b
    ff9e:	006e                	c.slli	zero,0x1b
    ffa0:	2d25                	addiw	s10,s10,9
    ffa2:	2e2a                	fld	ft8,136(sp)
    ffa4:	20202073          	csrr	zero,hedeleg
    ffa8:	2020                	fld	fs0,64(s0)
    ffaa:	2020                	fld	fs0,64(s0)
    ffac:	2020                	fld	fs0,64(s0)
    ffae:	7974                	ld	a3,240(a0)
    ffb0:	6570                	ld	a2,200(a0)
    ffb2:	2020                	fld	fs0,64(s0)
    ffb4:	2020                	fld	fs0,64(s0)
    ffb6:	2020                	fld	fs0,64(s0)
    ffb8:	2020                	fld	fs0,64(s0)
    ffba:	7220                	ld	s0,96(a2)
    ffbc:	6665                	lui	a2,0x19
    ffbe:	6320                	ld	s0,64(a4)
    ffc0:	746e756f          	jal	a0,0xf7706
    ffc4:	000a                	c.slli	zero,0x2
    ffc6:	0000                	unimp
    ffc8:	2d20                	fld	fs0,88(a0)
    ffca:	2d2d                	addiw	s10,s10,11
    ffcc:	2d2d                	addiw	s10,s10,11
    ffce:	2d2d                	addiw	s10,s10,11
    ffd0:	2d2d                	addiw	s10,s10,11
    ffd2:	2d2d                	addiw	s10,s10,11
    ffd4:	2d2d                	addiw	s10,s10,11
    ffd6:	2d2d                	addiw	s10,s10,11
    ffd8:	2d2d                	addiw	s10,s10,11
    ffda:	2d2d                	addiw	s10,s10,11
    ffdc:	202d                	0x202d
    ffde:	2d2d                	addiw	s10,s10,11
    ffe0:	2d2d                	addiw	s10,s10,11
    ffe2:	2d2d                	addiw	s10,s10,11
    ffe4:	2d2d                	addiw	s10,s10,11
    ffe6:	2d2d                	addiw	s10,s10,11
    ffe8:	000a                	c.slli	zero,0x2
    ffea:	0000                	unimp
    ffec:	0000                	unimp
    ffee:	0000                	unimp
    fff0:	2d25                	addiw	s10,s10,9
    fff2:	2e2a                	fld	ft8,136(sp)
    fff4:	732a                	ld	t1,168(sp)
    fff6:	2520                	fld	fs0,72(a0)
    fff8:	322d                	addiw	tp,tp,-21
    fffa:	7330                	ld	a2,96(a4)
    fffc:	2520                	fld	fs0,72(a0)
    fffe:	382d                	addiw	a6,a6,-21
   10000:	0a64                	addi	s1,sp,284
   10002:	0000                	unimp
   10004:	0000                	unimp
   10006:	0000                	unimp
   10008:	756d                	lui	a0,0xffffb
   1000a:	6574                	ld	a3,200(a0)
   1000c:	0078                	addi	a4,sp,12
   1000e:	0000                	unimp
   10010:	2d25                	addiw	s10,s10,9
   10012:	2e2a                	fld	ft8,136(sp)
   10014:	20202073          	csrr	zero,hedeleg
   10018:	656e776f          	jal	a4,0xf766e
   1001c:	2072                	fld	ft0,280(sp)
   1001e:	6820                	ld	s0,80(s0)
   10020:	20646c6f          	jal	s8,0x56226
   10024:	70737573          	csrrci	a0,0x707,6
   10028:	6e65                	lui	t3,0x19
   1002a:	2064                	fld	fs1,192(s0)
   1002c:	6874                	ld	a3,208(s0)
   1002e:	6572                	ld	a0,280(sp)
   10030:	6461                	lui	s0,0x18
   10032:	000a                	c.slli	zero,0x2
   10034:	0000                	unimp
   10036:	0000                	unimp
   10038:	2d20                	fld	fs0,88(a0)
   1003a:	2d2d                	addiw	s10,s10,11
   1003c:	2d2d                	addiw	s10,s10,11
   1003e:	2d2d                	addiw	s10,s10,11
   10040:	202d                	0x202d
   10042:	2d2d                	addiw	s10,s10,11
   10044:	2d2d                	addiw	s10,s10,11
   10046:	2d20                	fld	fs0,88(a0)
   10048:	2d2d                	addiw	s10,s10,11
   1004a:	2d2d                	addiw	s10,s10,11
   1004c:	2d2d                	addiw	s10,s10,11
   1004e:	2d2d                	addiw	s10,s10,11
   10050:	2d2d                	addiw	s10,s10,11
   10052:	2d2d                	addiw	s10,s10,11
   10054:	0a2d                	addi	s4,s4,11
   10056:	0000                	unimp
   10058:	2d25                	addiw	s10,s10,9
   1005a:	2e2a                	fld	ft8,136(sp)
   1005c:	732a                	ld	t1,168(sp)
   1005e:	2520                	fld	fs0,72(a0)
   10060:	382d                	addiw	a6,a6,-21
   10062:	2a2e                	fld	fs4,200(sp)
   10064:	30252073          	csrs	medeleg,a0
   10068:	6434                	ld	a3,72(s0)
   1006a:	2520                	fld	fs0,72(a0)
   1006c:	0a64                	addi	s1,sp,284
   1006e:	0000                	unimp
   10070:	2d25                	addiw	s10,s10,9
   10072:	2e2a                	fld	ft8,136(sp)
   10074:	70202073          	csrr	zero,0x702
   10078:	7265                	lui	tp,0xffff9
   1007a:	6f69                	lui	t5,0x1a
   1007c:	6964                	ld	s1,208(a0)
   1007e:	20202063          	0x20202063
   10082:	6974                	ld	a3,208(a0)
   10084:	656d                	lui	a0,0x1b
   10086:	2074756f          	jal	a0,0x57a8c
   1008a:	2020                	fld	fs0,64(s0)
   1008c:	2020                	fld	fs0,64(s0)
   1008e:	2020                	fld	fs0,64(s0)
   10090:	6c66                	ld	s8,88(sp)
   10092:	6761                	lui	a4,0x18
   10094:	000a                	c.slli	zero,0x2
   10096:	0000                	unimp
   10098:	2d20                	fld	fs0,88(a0)
   1009a:	2d2d                	addiw	s10,s10,11
   1009c:	2d2d                	addiw	s10,s10,11
   1009e:	2d2d                	addiw	s10,s10,11
   100a0:	2d2d                	addiw	s10,s10,11
   100a2:	202d                	0x202d
   100a4:	2d2d                	addiw	s10,s10,11
   100a6:	2d2d                	addiw	s10,s10,11
   100a8:	2d2d                	addiw	s10,s10,11
   100aa:	2d2d                	addiw	s10,s10,11
   100ac:	2d2d                	addiw	s10,s10,11
   100ae:	2d20                	fld	fs0,88(a0)
   100b0:	2d2d                	addiw	s10,s10,11
   100b2:	2d2d                	addiw	s10,s10,11
   100b4:	2d2d                	addiw	s10,s10,11
   100b6:	2d2d                	addiw	s10,s10,11
   100b8:	2d2d                	addiw	s10,s10,11
   100ba:	000a                	c.slli	zero,0x2
   100bc:	0000                	unimp
   100be:	0000                	unimp
   100c0:	2d25                	addiw	s10,s10,9
   100c2:	2e2a                	fld	ft8,136(sp)
   100c4:	732a                	ld	t1,168(sp)
   100c6:	3020                	fld	fs0,96(s0)
   100c8:	2578                	fld	fa4,200(a0)
   100ca:	3830                	fld	fa2,112(s0)
   100cc:	2078                	fld	fa4,192(s0)
   100ce:	7830                	ld	a2,112(s0)
   100d0:	3025                	0x3025
   100d2:	7838                	ld	a4,112(s0)
   100d4:	0020                	addi	s0,sp,8
   100d6:	0000                	unimp
   100d8:	6361                	lui	t1,0x18
   100da:	6974                	ld	a3,208(a0)
   100dc:	6176                	ld	sp,344(sp)
   100de:	6574                	ld	a3,200(a0)
   100e0:	0a64                	addi	s1,sp,284
   100e2:	0000                	unimp
   100e4:	0000                	unimp
   100e6:	0000                	unimp
   100e8:	6564                	ld	s1,200(a0)
   100ea:	6361                	lui	t1,0x18
   100ec:	6974                	ld	a3,208(a0)
   100ee:	6176                	ld	sp,344(sp)
   100f0:	6574                	ld	a3,200(a0)
   100f2:	0a64                	addi	s1,sp,284
   100f4:	0000                	unimp
   100f6:	0000                	unimp
   100f8:	72727563          	bgeu	tp,t2,0x10822
   100fc:	6e65                	lui	t3,0x19
   100fe:	2074                	fld	fa3,192(s0)
   10100:	6974                	ld	a3,208(a0)
   10102:	303a6b63          	bltu	s4,gp,0x10418
   10106:	2578                	fld	fa4,200(a0)
   10108:	3830                	fld	fa2,112(s0)
   1010a:	0a78                	addi	a4,sp,284
   1010c:	0000                	unimp
   1010e:	0000                	unimp
   10110:	7665                	lui	a2,0xffff9
   10112:	6e65                	lui	t3,0x19
   10114:	0074                	addi	a3,sp,12
   10116:	0000                	unimp
   10118:	2d25                	addiw	s10,s10,9
   1011a:	2e2a                	fld	ft8,136(sp)
   1011c:	20202073          	csrr	zero,hedeleg
   10120:	2020                	fld	fs0,64(s0)
   10122:	7320                	ld	s0,96(a4)
   10124:	7465                	lui	s0,0xffff9
   10126:	2020                	fld	fs0,64(s0)
   10128:	2020                	fld	fs0,64(s0)
   1012a:	70737573          	csrrci	a0,0x707,6
   1012e:	6e65                	lui	t3,0x19
   10130:	2064                	fld	fs1,192(s0)
   10132:	6874                	ld	a3,208(s0)
   10134:	6572                	ld	a0,280(sp)
   10136:	6461                	lui	s0,0x18
   10138:	000a                	c.slli	zero,0x2
   1013a:	0000                	unimp
   1013c:	0000                	unimp
   1013e:	0000                	unimp
   10140:	2020                	fld	fs0,64(s0)
   10142:	2d2d                	addiw	s10,s10,11
   10144:	2d2d                	addiw	s10,s10,11
   10146:	2d2d                	addiw	s10,s10,11
   10148:	2d2d                	addiw	s10,s10,11
   1014a:	2d2d                	addiw	s10,s10,11
   1014c:	2d20                	fld	fs0,88(a0)
   1014e:	2d2d                	addiw	s10,s10,11
   10150:	2d2d                	addiw	s10,s10,11
   10152:	2d2d                	addiw	s10,s10,11
   10154:	2d2d                	addiw	s10,s10,11
   10156:	2d2d                	addiw	s10,s10,11
   10158:	2d2d                	addiw	s10,s10,11
   1015a:	0a2d                	addi	s4,s4,11
   1015c:	0000                	unimp
   1015e:	0000                	unimp
   10160:	2d25                	addiw	s10,s10,9
   10162:	2e2a                	fld	ft8,136(sp)
   10164:	732a                	ld	t1,168(sp)
   10166:	2020                	fld	fs0,64(s0)
   10168:	7830                	ld	a2,112(s0)
   1016a:	3025                	0x3025
   1016c:	7838                	ld	a4,112(s0)
   1016e:	2520                	fld	fs0,72(a0)
   10170:	3330                	fld	fa2,96(a4)
   10172:	3a64                	fld	fs1,240(a2)
   10174:	0000                	unimp
   10176:	0000                	unimp
   10178:	2d25                	addiw	s10,s10,9
   1017a:	2e2a                	fld	ft8,136(sp)
   1017c:	732a                	ld	t1,168(sp)
   1017e:	2020                	fld	fs0,64(s0)
   10180:	7830                	ld	a2,112(s0)
   10182:	3025                	0x3025
   10184:	7838                	ld	a4,112(s0)
   10186:	3020                	fld	fs0,96(s0)
   10188:	000a                	c.slli	zero,0x2
   1018a:	0000                	unimp
   1018c:	0000                	unimp
   1018e:	0000                	unimp
   10190:	736d                	lui	t1,0xffffb
   10192:	65757167          	0x65757167
   10196:	6575                	lui	a0,0x1d
	...
   101a0:	2d25                	addiw	s10,s10,9
   101a2:	2e2a                	fld	ft8,136(sp)
   101a4:	6e652073          	csrs	0x6e6,a0
   101a8:	7274                	ld	a3,224(a2)
   101aa:	2079                	0x2079
   101ac:	70737573          	csrrci	a0,0x707,6
   101b0:	6e65                	lui	t3,0x19
   101b2:	2064                	fld	fs1,192(s0)
   101b4:	6874                	ld	a3,208(s0)
   101b6:	6572                	ld	a0,280(sp)
   101b8:	6461                	lui	s0,0x18
   101ba:	000a                	c.slli	zero,0x2
   101bc:	0000                	unimp
   101be:	0000                	unimp
   101c0:	2d20                	fld	fs0,88(a0)
   101c2:	2d2d                	addiw	s10,s10,11
   101c4:	202d                	0x202d
   101c6:	2d20                	fld	fs0,88(a0)
   101c8:	2d2d                	addiw	s10,s10,11
   101ca:	2d2d                	addiw	s10,s10,11
   101cc:	2d2d                	addiw	s10,s10,11
   101ce:	2d2d                	addiw	s10,s10,11
   101d0:	2d2d                	addiw	s10,s10,11
   101d2:	2d2d                	addiw	s10,s10,11
   101d4:	0a2d                	addi	s4,s4,11
   101d6:	0000                	unimp
   101d8:	2d25                	addiw	s10,s10,9
   101da:	2e2a                	fld	ft8,136(sp)
   101dc:	732a                	ld	t1,168(sp)
   101de:	2520                	fld	fs0,72(a0)
   101e0:	3430                	fld	fa2,104(s0)
   101e2:	2064                	fld	fs1,192(s0)
   101e4:	2520                	fld	fs0,72(a0)
   101e6:	3a64                	fld	fs1,240(a2)
	...
   101f0:	2d25                	addiw	s10,s10,9
   101f2:	2e2a                	fld	ft8,136(sp)
   101f4:	732a                	ld	t1,168(sp)
   101f6:	2520                	fld	fs0,72(a0)
   101f8:	3430                	fld	fa2,104(s0)
   101fa:	2064                	fld	fs1,192(s0)
   101fc:	2520                	fld	fs0,72(a0)
   101fe:	0a64                	addi	s1,sp,284
	...
   10208:	616d6573          	csrrsi	a0,0x616,26
   1020c:	6870                	ld	a2,208(s0)
   1020e:	0065726f          	jal	tp,0x67214
   10212:	0000                	unimp
   10214:	0000                	unimp
   10216:	0000                	unimp
   10218:	2d25                	addiw	s10,s10,9
   1021a:	2e2a                	fld	ft8,136(sp)
   1021c:	20762073          	csrs	0x207,a2
   10220:	2020                	fld	fs0,64(s0)
   10222:	70737573          	csrrci	a0,0x707,6
   10226:	6e65                	lui	t3,0x19
   10228:	2064                	fld	fs1,192(s0)
   1022a:	6874                	ld	a3,208(s0)
   1022c:	6572                	ld	a0,280(sp)
   1022e:	6461                	lui	s0,0x18
   10230:	000a                	c.slli	zero,0x2
   10232:	0000                	unimp
   10234:	0000                	unimp
   10236:	0000                	unimp
   10238:	2d20                	fld	fs0,88(a0)
   1023a:	2d2d                	addiw	s10,s10,11
   1023c:	2d20                	fld	fs0,88(a0)
   1023e:	2d2d                	addiw	s10,s10,11
   10240:	2d2d                	addiw	s10,s10,11
   10242:	2d2d                	addiw	s10,s10,11
   10244:	2d2d                	addiw	s10,s10,11
   10246:	2d2d                	addiw	s10,s10,11
   10248:	2d2d                	addiw	s10,s10,11
   1024a:	0a2d                	addi	s4,s4,11
   1024c:	0000                	unimp
   1024e:	0000                	unimp
   10250:	2d25                	addiw	s10,s10,9
   10252:	2e2a                	fld	ft8,136(sp)
   10254:	732a                	ld	t1,168(sp)
   10256:	2520                	fld	fs0,72(a0)
   10258:	3330                	fld	fa2,96(a4)
   1025a:	2064                	fld	fs1,192(s0)
   1025c:	6425                	lui	s0,0x9
   1025e:	003a                	c.slli	zero,0xe
   10260:	2d25                	addiw	s10,s10,9
   10262:	2e2a                	fld	ft8,136(sp)
   10264:	732a                	ld	t1,168(sp)
   10266:	2520                	fld	fs0,72(a0)
   10268:	3330                	fld	fa2,96(a4)
   1026a:	2064                	fld	fs1,192(s0)
   1026c:	6425                	lui	s0,0x9
   1026e:	000a                	c.slli	zero,0x2
   10270:	616d                	addi	sp,sp,240
   10272:	6c69                	lui	s8,0x1a
   10274:	6f62                	ld	t5,24(sp)
   10276:	0078                	addi	a4,sp,12
   10278:	2d25                	addiw	s10,s10,9
   1027a:	2e2a                	fld	ft8,136(sp)
   1027c:	6e652073          	csrs	0x6e6,a0
   10280:	7274                	ld	a3,224(a2)
   10282:	2079                	0x2079
   10284:	657a6973          	csrrsi	s2,0x657,20
   10288:	7320                	ld	s0,96(a4)
   1028a:	7375                	lui	t1,0xffffd
   1028c:	6570                	ld	a2,200(a0)
   1028e:	646e                	ld	s0,216(sp)
   10290:	7420                	ld	s0,104(s0)
   10292:	7268                	ld	a0,224(a2)
   10294:	6165                	addi	sp,sp,112
   10296:	0a64                	addi	s1,sp,284
	...
   102a0:	2d20                	fld	fs0,88(a0)
   102a2:	2d2d                	addiw	s10,s10,11
   102a4:	202d                	0x202d
   102a6:	2d20                	fld	fs0,88(a0)
   102a8:	2d2d                	addiw	s10,s10,11
   102aa:	202d                	0x202d
   102ac:	2d2d                	addiw	s10,s10,11
   102ae:	2d2d                	addiw	s10,s10,11
   102b0:	2d2d                	addiw	s10,s10,11
   102b2:	2d2d                	addiw	s10,s10,11
   102b4:	2d2d                	addiw	s10,s10,11
   102b6:	2d2d                	addiw	s10,s10,11
   102b8:	2d2d                	addiw	s10,s10,11
   102ba:	000a                	c.slli	zero,0x2
   102bc:	0000                	unimp
   102be:	0000                	unimp
   102c0:	2d25                	addiw	s10,s10,9
   102c2:	2e2a                	fld	ft8,136(sp)
   102c4:	732a                	ld	t1,168(sp)
   102c6:	2520                	fld	fs0,72(a0)
   102c8:	3430                	fld	fa2,104(s0)
   102ca:	2064                	fld	fs1,192(s0)
   102cc:	2520                	fld	fs0,72(a0)
   102ce:	3430                	fld	fa2,104(s0)
   102d0:	2064                	fld	fs1,192(s0)
   102d2:	6425                	lui	s0,0x9
   102d4:	003a                	c.slli	zero,0xe
   102d6:	0000                	unimp
   102d8:	2d25                	addiw	s10,s10,9
   102da:	2e2a                	fld	ft8,136(sp)
   102dc:	732a                	ld	t1,168(sp)
   102de:	2520                	fld	fs0,72(a0)
   102e0:	3430                	fld	fa2,104(s0)
   102e2:	2064                	fld	fs1,192(s0)
   102e4:	2520                	fld	fs0,72(a0)
   102e6:	3430                	fld	fa2,104(s0)
   102e8:	2064                	fld	fs1,192(s0)
   102ea:	6425                	lui	s0,0x9
   102ec:	000a                	c.slli	zero,0x2
   102ee:	0000                	unimp
   102f0:	656d                	lui	a0,0x1b
   102f2:	706d                	c.lui	zero,0xffffb
   102f4:	006c6f6f          	jal	t5,0xd62fa
   102f8:	2d25                	addiw	s10,s10,9
   102fa:	2e2a                	fld	ft8,136(sp)
   102fc:	6c622073          	csrs	0x6c6,tp
   10300:	206b636f          	jal	t1,0xc6506
   10304:	6f74                	ld	a3,216(a4)
   10306:	6174                	ld	a3,192(a0)
   10308:	206c                	fld	fa1,192(s0)
   1030a:	7266                	ld	tp,120(sp)
   1030c:	6565                	lui	a0,0x19
   1030e:	7320                	ld	s0,96(a4)
   10310:	7375                	lui	t1,0xffffd
   10312:	6570                	ld	a2,200(a0)
   10314:	646e                	ld	s0,216(sp)
   10316:	7420                	ld	s0,104(s0)
   10318:	7268                	ld	a0,224(a2)
   1031a:	6165                	addi	sp,sp,112
   1031c:	0a64                	addi	s1,sp,284
   1031e:	0000                	unimp
   10320:	2d20                	fld	fs0,88(a0)
   10322:	2d2d                	addiw	s10,s10,11
   10324:	202d                	0x202d
   10326:	2d20                	fld	fs0,88(a0)
   10328:	2d2d                	addiw	s10,s10,11
   1032a:	202d                	0x202d
   1032c:	2d20                	fld	fs0,88(a0)
   1032e:	2d2d                	addiw	s10,s10,11
   10330:	202d                	0x202d
   10332:	2d2d                	addiw	s10,s10,11
   10334:	2d2d                	addiw	s10,s10,11
   10336:	2d2d                	addiw	s10,s10,11
   10338:	2d2d                	addiw	s10,s10,11
   1033a:	2d2d                	addiw	s10,s10,11
   1033c:	2d2d                	addiw	s10,s10,11
   1033e:	2d2d                	addiw	s10,s10,11
   10340:	000a                	c.slli	zero,0x2
   10342:	0000                	unimp
   10344:	0000                	unimp
   10346:	0000                	unimp
   10348:	2d25                	addiw	s10,s10,9
   1034a:	2e2a                	fld	ft8,136(sp)
   1034c:	732a                	ld	t1,168(sp)
   1034e:	2520                	fld	fs0,72(a0)
   10350:	3430                	fld	fa2,104(s0)
   10352:	2064                	fld	fs1,192(s0)
   10354:	2520                	fld	fs0,72(a0)
   10356:	3430                	fld	fa2,104(s0)
   10358:	2064                	fld	fs1,192(s0)
   1035a:	2520                	fld	fs0,72(a0)
   1035c:	3430                	fld	fa2,104(s0)
   1035e:	2064                	fld	fs1,192(s0)
   10360:	6425                	lui	s0,0x9
   10362:	003a                	c.slli	zero,0xe
   10364:	0000                	unimp
   10366:	0000                	unimp
   10368:	2d25                	addiw	s10,s10,9
   1036a:	2e2a                	fld	ft8,136(sp)
   1036c:	732a                	ld	t1,168(sp)
   1036e:	2520                	fld	fs0,72(a0)
   10370:	3430                	fld	fa2,104(s0)
   10372:	2064                	fld	fs1,192(s0)
   10374:	2520                	fld	fs0,72(a0)
   10376:	3430                	fld	fa2,104(s0)
   10378:	2064                	fld	fs1,192(s0)
   1037a:	2520                	fld	fs0,72(a0)
   1037c:	3430                	fld	fa2,104(s0)
   1037e:	2064                	fld	fs1,192(s0)
   10380:	6425                	lui	s0,0x9
   10382:	000a                	c.slli	zero,0x2
   10384:	0000                	unimp
   10386:	0000                	unimp
   10388:	72616843          	fmadd.d	fa6,ft2,ft6,fa4,unknown
   1038c:	6361                	lui	t1,0x18
   1038e:	6574                	ld	a3,200(a0)
   10390:	2072                	fld	ft0,280(sp)
   10392:	6544                	ld	s1,136(a0)
   10394:	6976                	ld	s2,344(sp)
   10396:	00006563          	bltu	zero,zero,0x103a0
   1039a:	0000                	unimp
   1039c:	0000                	unimp
   1039e:	0000                	unimp
   103a0:	6c42                	ld	s8,16(sp)
   103a2:	206b636f          	jal	t1,0xc65a8
   103a6:	6544                	ld	s1,136(a0)
   103a8:	6976                	ld	s2,344(sp)
   103aa:	00006563          	bltu	zero,zero,0x103b4
   103ae:	0000                	unimp
   103b0:	654e                	ld	a0,208(sp)
   103b2:	7774                	ld	a3,232(a4)
   103b4:	206b726f          	jal	tp,0xc75ba
   103b8:	6e49                	lui	t3,0x12
   103ba:	6574                	ld	a3,200(a0)
   103bc:	6672                	ld	a2,280(sp)
   103be:	6361                	lui	t1,0x18
   103c0:	0065                	c.nop	25
   103c2:	0000                	unimp
   103c4:	0000                	unimp
   103c6:	0000                	unimp
   103c8:	544d                	li	s0,-13
   103ca:	2044                	fld	fs1,128(s0)
   103cc:	6544                	ld	s1,136(a0)
   103ce:	6976                	ld	s2,344(sp)
   103d0:	00006563          	bltu	zero,zero,0x103da
   103d4:	0000                	unimp
   103d6:	0000                	unimp
   103d8:	204e4143          	fmadd.s	ft2,ft8,ft4,ft4,rmm
   103dc:	6544                	ld	s1,136(a0)
   103de:	6976                	ld	s2,344(sp)
   103e0:	00006563          	bltu	zero,zero,0x103ea
   103e4:	0000                	unimp
   103e6:	0000                	unimp
   103e8:	5452                	lw	s0,52(sp)
   103ea:	00000043          	fmadd.s	ft0,ft0,ft0,ft0,rne
   103ee:	0000                	unimp
   103f0:	6e756f53          	0x6e756f53
   103f4:	2064                	fld	fs1,192(s0)
   103f6:	6544                	ld	s1,136(a0)
   103f8:	6976                	ld	s2,344(sp)
   103fa:	00006563          	bltu	zero,zero,0x10404
   103fe:	0000                	unimp
   10400:	70617247          	fmsub.s	ft4,ft2,ft6,fa4
   10404:	6968                	ld	a0,208(a0)
   10406:	65442063          	0x65442063
   1040a:	6976                	ld	s2,344(sp)
   1040c:	00006563          	bltu	zero,zero,0x10416
   10410:	3249                	addiw	tp,tp,-14
   10412:	75422043          	0x75422043
   10416:	53550073          	0x53550073
   1041a:	2042                	fld	ft0,16(sp)
   1041c:	76616c53          	0x76616c53
   10420:	2065                	0x2065
   10422:	6544                	ld	s1,136(a0)
   10424:	6976                	ld	s2,344(sp)
   10426:	00006563          	bltu	zero,zero,0x10430
   1042a:	0000                	unimp
   1042c:	0000                	unimp
   1042e:	0000                	unimp
   10430:	5355                	li	t1,-11
   10432:	2042                	fld	ft0,16(sp)
   10434:	6f48                	ld	a0,152(a4)
   10436:	42207473          	csrrci	s0,0x422,0
   1043a:	7375                	lui	t1,0xffffd
   1043c:	0000                	unimp
   1043e:	0000                	unimp
   10440:	20495053          	0x20495053
   10444:	7542                	ld	a0,48(sp)
   10446:	50530073          	0x50530073
   1044a:	2049                	0x2049
   1044c:	6544                	ld	s1,136(a0)
   1044e:	6976                	ld	s2,344(sp)
   10450:	00006563          	bltu	zero,zero,0x1045a
   10454:	0000                	unimp
   10456:	0000                	unimp
   10458:	4f494453          	0x4f494453
   1045c:	4220                	lw	s0,64(a2)
   1045e:	7375                	lui	t1,0xffffd
	...
   10468:	4d50                	lw	a2,28(a0)
   1046a:	5020                	lw	s0,96(s0)
   1046c:	64756573          	csrrsi	a0,0x647,10
   10470:	6544206f          	j	0x52ac4
   10474:	6976                	ld	s2,344(sp)
   10476:	00006563          	bltu	zero,zero,0x10480
   1047a:	0000                	unimp
   1047c:	0000                	unimp
   1047e:	0000                	unimp
   10480:	6950                	ld	a2,144(a0)
   10482:	6570                	ld	a2,200(a0)
   10484:	0000                	unimp
   10486:	0000                	unimp
   10488:	6f50                	ld	a2,152(a4)
   1048a:	7472                	ld	s0,312(sp)
   1048c:	6c61                	lui	s8,0x18
   1048e:	4420                	lw	s0,72(s0)
   10490:	7665                	lui	a2,0xffff9
   10492:	6369                	lui	t1,0x1a
   10494:	0065                	c.nop	25
   10496:	0000                	unimp
   10498:	6954                	ld	a3,144(a0)
   1049a:	656d                	lui	a0,0x1b
   1049c:	2072                	fld	ft0,280(sp)
   1049e:	6544                	ld	s1,136(a0)
   104a0:	6976                	ld	s2,344(sp)
   104a2:	00006563          	bltu	zero,zero,0x104ac
   104a6:	0000                	unimp
   104a8:	694d                	lui	s2,0x13
   104aa:	6c656373          	csrrsi	t1,0x6c6,10
   104ae:	616c                	ld	a1,192(a0)
   104b0:	656e                	ld	a0,216(sp)
   104b2:	2073756f          	jal	a0,0x47eb8
   104b6:	6544                	ld	s1,136(a0)
   104b8:	6976                	ld	s2,344(sp)
   104ba:	00006563          	bltu	zero,zero,0x104c4
   104be:	0000                	unimp
   104c0:	736e6553          	0x736e6553
   104c4:	4420726f          	jal	tp,0x17906
   104c8:	7665                	lui	a2,0xffff9
   104ca:	6369                	lui	t1,0x1a
   104cc:	0065                	c.nop	25
   104ce:	0000                	unimp
   104d0:	6f54                	ld	a3,152(a4)
   104d2:	6375                	lui	t1,0x1d
   104d4:	2068                	fld	fa0,192(s0)
   104d6:	6544                	ld	s1,136(a0)
   104d8:	6976                	ld	s2,344(sp)
   104da:	00006563          	bltu	zero,zero,0x104e4
   104de:	0000                	unimp
   104e0:	6850                	ld	a2,144(s0)
   104e2:	2079                	0x2079
   104e4:	6544                	ld	s1,136(a0)
   104e6:	6976                	ld	s2,344(sp)
   104e8:	00006563          	bltu	zero,zero,0x104f2
   104ec:	0000                	unimp
   104ee:	0000                	unimp
   104f0:	0388                	addi	a0,sp,448
   104f2:	0001                	nop
   104f4:	0000                	unimp
   104f6:	0000                	unimp
   104f8:	03a0                	addi	s0,sp,456
   104fa:	0001                	nop
   104fc:	0000                	unimp
   104fe:	0000                	unimp
   10500:	03b0                	addi	a2,sp,456
   10502:	0001                	nop
   10504:	0000                	unimp
   10506:	0000                	unimp
   10508:	03c8                	addi	a0,sp,452
   1050a:	0001                	nop
   1050c:	0000                	unimp
   1050e:	0000                	unimp
   10510:	03d8                	addi	a4,sp,452
   10512:	0001                	nop
   10514:	0000                	unimp
   10516:	0000                	unimp
   10518:	03e8                	addi	a0,sp,460
   1051a:	0001                	nop
   1051c:	0000                	unimp
   1051e:	0000                	unimp
   10520:	03f0                	addi	a2,sp,460
   10522:	0001                	nop
   10524:	0000                	unimp
   10526:	0000                	unimp
   10528:	0400                	addi	s0,sp,512
   1052a:	0001                	nop
   1052c:	0000                	unimp
   1052e:	0000                	unimp
   10530:	0410                	addi	a2,sp,512
   10532:	0001                	nop
   10534:	0000                	unimp
   10536:	0000                	unimp
   10538:	0418                	addi	a4,sp,512
   1053a:	0001                	nop
   1053c:	0000                	unimp
   1053e:	0000                	unimp
   10540:	0430                	addi	a2,sp,520
   10542:	0001                	nop
   10544:	0000                	unimp
   10546:	0000                	unimp
   10548:	0440                	addi	s0,sp,516
   1054a:	0001                	nop
   1054c:	0000                	unimp
   1054e:	0000                	unimp
   10550:	0448                	addi	a0,sp,516
   10552:	0001                	nop
   10554:	0000                	unimp
   10556:	0000                	unimp
   10558:	0458                	addi	a4,sp,516
   1055a:	0001                	nop
   1055c:	0000                	unimp
   1055e:	0000                	unimp
   10560:	0468                	addi	a0,sp,524
   10562:	0001                	nop
   10564:	0000                	unimp
   10566:	0000                	unimp
   10568:	0480                	addi	s0,sp,576
   1056a:	0001                	nop
   1056c:	0000                	unimp
   1056e:	0000                	unimp
   10570:	0488                	addi	a0,sp,576
   10572:	0001                	nop
   10574:	0000                	unimp
   10576:	0000                	unimp
   10578:	0498                	addi	a4,sp,576
   1057a:	0001                	nop
   1057c:	0000                	unimp
   1057e:	0000                	unimp
   10580:	04a8                	addi	a0,sp,584
   10582:	0001                	nop
   10584:	0000                	unimp
   10586:	0000                	unimp
   10588:	04c0                	addi	s0,sp,580
   1058a:	0001                	nop
   1058c:	0000                	unimp
   1058e:	0000                	unimp
   10590:	04d0                	addi	a2,sp,580
   10592:	0001                	nop
   10594:	0000                	unimp
   10596:	0000                	unimp
   10598:	04e0                	addi	s0,sp,588
   1059a:	0001                	nop
   1059c:	0000                	unimp
   1059e:	0000                	unimp
   105a0:	ff98                	sd	a4,56(a5)
   105a2:	0000                	unimp
   105a4:	0000                	unimp
   105a6:	0000                	unimp
   105a8:	696c                	ld	a1,208(a0)
   105aa:	61207473          	csrrci	s0,0x612,0
   105ae:	6c6c                	ld	a1,216(s0)
   105b0:	7320                	ld	s0,96(a4)
   105b2:	6d79                	lui	s10,0x1e
   105b4:	6f62                	ld	t5,24(sp)
   105b6:	206c                	fld	fa1,192(s0)
   105b8:	6e69                	lui	t3,0x1a
   105ba:	7320                	ld	s0,96(a4)
   105bc:	7379                	lui	t1,0xffffe
   105be:	6574                	ld	a3,200(a0)
   105c0:	006d                	c.nop	27
   105c2:	0000                	unimp
   105c4:	0000                	unimp
   105c6:	0000                	unimp
   105c8:	696c                	ld	a1,208(a0)
   105ca:	00007473          	csrrci	s0,ustatus,0
   105ce:	0000                	unimp
   105d0:	696c                	ld	a1,208(a0)
   105d2:	64207473          	csrrci	s0,0x642,0
   105d6:	7665                	lui	a2,0xffff9
   105d8:	6369                	lui	t1,0x1a
   105da:	2065                	0x2065
   105dc:	6e69                	lui	t3,0x1a
   105de:	7320                	ld	s0,96(a4)
   105e0:	7379                	lui	t1,0xffffe
   105e2:	6574                	ld	a3,200(a0)
   105e4:	006d                	c.nop	27
   105e6:	0000                	unimp
   105e8:	5f5f 6d63 5f64      	0x5f646d635f5f
   105ee:	696c                	ld	a1,208(a0)
   105f0:	645f7473          	csrrci	s0,0x645,30
   105f4:	7665                	lui	a2,0xffff9
   105f6:	6369                	lui	t1,0x1a
   105f8:	0065                	c.nop	25
   105fa:	0000                	unimp
   105fc:	0000                	unimp
   105fe:	0000                	unimp
   10600:	696c                	ld	a1,208(a0)
   10602:	64207473          	csrrci	s0,0x642,0
   10606:	7665                	lui	a2,0xffff9
   10608:	6369                	lui	t1,0x1a
   1060a:	2065                	0x2065
   1060c:	6e69                	lui	t3,0x1a
   1060e:	7320                	ld	s0,96(a4)
   10610:	7379                	lui	t1,0xffffe
   10612:	6574                	ld	a3,200(a0)
   10614:	006d                	c.nop	27
   10616:	0000                	unimp
   10618:	696c                	ld	a1,208(a0)
   1061a:	645f7473          	csrrci	s0,0x645,30
   1061e:	7665                	lui	a2,0xffff9
   10620:	6369                	lui	t1,0x1a
   10622:	0065                	c.nop	25
   10624:	0000                	unimp
   10626:	0000                	unimp
   10628:	696c                	ld	a1,208(a0)
   1062a:	74207473          	csrrci	s0,0x742,0
   1062e:	6d69                	lui	s10,0x1a
   10630:	7265                	lui	tp,0xffff9
   10632:	6920                	ld	s0,80(a0)
   10634:	206e                	fld	ft0,216(sp)
   10636:	74737973          	csrrci	s2,0x747,6
   1063a:	6d65                	lui	s10,0x19
   1063c:	0000                	unimp
   1063e:	0000                	unimp
   10640:	5f5f 6d63 5f64      	0x5f646d635f5f
   10646:	696c                	ld	a1,208(a0)
   10648:	745f7473          	csrrci	s0,0x745,30
   1064c:	6d69                	lui	s10,0x1a
   1064e:	7265                	lui	tp,0xffff9
	...
   10658:	696c                	ld	a1,208(a0)
   1065a:	74207473          	csrrci	s0,0x742,0
   1065e:	6d69                	lui	s10,0x1a
   10660:	7265                	lui	tp,0xffff9
   10662:	6920                	ld	s0,80(a0)
   10664:	206e                	fld	ft0,216(sp)
   10666:	74737973          	csrrci	s2,0x747,6
   1066a:	6d65                	lui	s10,0x19
   1066c:	0000                	unimp
   1066e:	0000                	unimp
   10670:	696c                	ld	a1,208(a0)
   10672:	745f7473          	csrrci	s0,0x745,30
   10676:	6d69                	lui	s10,0x1a
   10678:	7265                	lui	tp,0xffff9
   1067a:	0000                	unimp
   1067c:	0000                	unimp
   1067e:	0000                	unimp
   10680:	696c                	ld	a1,208(a0)
   10682:	6d207473          	csrrci	s0,0x6d2,0
   10686:	6d65                	lui	s10,0x19
   10688:	2079726f          	jal	tp,0xa808e
   1068c:	6f70                	ld	a2,216(a4)
   1068e:	69206c6f          	jal	s8,0x16d20
   10692:	206e                	fld	ft0,216(sp)
   10694:	74737973          	csrrci	s2,0x747,6
   10698:	6d65                	lui	s10,0x19
   1069a:	0000                	unimp
   1069c:	0000                	unimp
   1069e:	0000                	unimp
   106a0:	5f5f 6d63 5f64      	0x5f646d635f5f
   106a6:	696c                	ld	a1,208(a0)
   106a8:	6d5f7473          	csrrci	s0,0x6d5,30
   106ac:	6d65                	lui	s10,0x19
   106ae:	6f70                	ld	a2,216(a4)
   106b0:	00006c6f          	jal	s8,0x166b0
   106b4:	0000                	unimp
   106b6:	0000                	unimp
   106b8:	696c                	ld	a1,208(a0)
   106ba:	6d207473          	csrrci	s0,0x6d2,0
   106be:	6d65                	lui	s10,0x19
   106c0:	2079726f          	jal	tp,0xa80c6
   106c4:	6f70                	ld	a2,216(a4)
   106c6:	69206c6f          	jal	s8,0x16d58
   106ca:	206e                	fld	ft0,216(sp)
   106cc:	74737973          	csrrci	s2,0x747,6
   106d0:	6d65                	lui	s10,0x19
   106d2:	0000                	unimp
   106d4:	0000                	unimp
   106d6:	0000                	unimp
   106d8:	696c                	ld	a1,208(a0)
   106da:	6d5f7473          	csrrci	s0,0x6d5,30
   106de:	6d65                	lui	s10,0x19
   106e0:	6f70                	ld	a2,216(a4)
   106e2:	00006c6f          	jal	s8,0x166e2
   106e6:	0000                	unimp
   106e8:	696c                	ld	a1,208(a0)
   106ea:	6d207473          	csrrci	s0,0x6d2,0
   106ee:	7365                	lui	t1,0xffff9
   106f0:	65676173          	csrrsi	sp,0x656,14
   106f4:	7120                	ld	s0,96(a0)
   106f6:	6575                	lui	a0,0x1d
   106f8:	6575                	lui	a0,0x1d
   106fa:	6920                	ld	s0,80(a0)
   106fc:	206e                	fld	ft0,216(sp)
   106fe:	74737973          	csrrci	s2,0x747,6
   10702:	6d65                	lui	s10,0x19
   10704:	0000                	unimp
   10706:	0000                	unimp
   10708:	5f5f 6d63 5f64      	0x5f646d635f5f
   1070e:	696c                	ld	a1,208(a0)
   10710:	6d5f7473          	csrrci	s0,0x6d5,30
   10714:	75716773          	csrrsi	a4,0x757,2
   10718:	7565                	lui	a0,0xffff9
   1071a:	0065                	c.nop	25
   1071c:	0000                	unimp
   1071e:	0000                	unimp
   10720:	696c                	ld	a1,208(a0)
   10722:	6d207473          	csrrci	s0,0x6d2,0
   10726:	7365                	lui	t1,0xffff9
   10728:	65676173          	csrrsi	sp,0x656,14
   1072c:	7120                	ld	s0,96(a0)
   1072e:	6575                	lui	a0,0x1d
   10730:	6575                	lui	a0,0x1d
   10732:	6920                	ld	s0,80(a0)
   10734:	206e                	fld	ft0,216(sp)
   10736:	74737973          	csrrci	s2,0x747,6
   1073a:	6d65                	lui	s10,0x19
   1073c:	0000                	unimp
   1073e:	0000                	unimp
   10740:	696c                	ld	a1,208(a0)
   10742:	6d5f7473          	csrrci	s0,0x6d5,30
   10746:	75716773          	csrrsi	a4,0x757,2
   1074a:	7565                	lui	a0,0xffff9
   1074c:	0065                	c.nop	25
   1074e:	0000                	unimp
   10750:	696c                	ld	a1,208(a0)
   10752:	6d207473          	csrrci	s0,0x6d2,0
   10756:	6961                	lui	s2,0x18
   10758:	206c                	fld	fa1,192(s0)
   1075a:	6f62                	ld	t5,24(sp)
   1075c:	2078                	fld	fa4,192(s0)
   1075e:	6e69                	lui	t3,0x1a
   10760:	7320                	ld	s0,96(a4)
   10762:	7379                	lui	t1,0xffffe
   10764:	6574                	ld	a3,200(a0)
   10766:	006d                	c.nop	27
   10768:	5f5f 6d63 5f64      	0x5f646d635f5f
   1076e:	696c                	ld	a1,208(a0)
   10770:	6d5f7473          	csrrci	s0,0x6d5,30
   10774:	6961                	lui	s2,0x18
   10776:	626c                	ld	a1,192(a2)
   10778:	0000786f          	jal	a6,0x17778
   1077c:	0000                	unimp
   1077e:	0000                	unimp
   10780:	696c                	ld	a1,208(a0)
   10782:	6d207473          	csrrci	s0,0x6d2,0
   10786:	6961                	lui	s2,0x18
   10788:	206c                	fld	fa1,192(s0)
   1078a:	6f62                	ld	t5,24(sp)
   1078c:	2078                	fld	fa4,192(s0)
   1078e:	6e69                	lui	t3,0x1a
   10790:	7320                	ld	s0,96(a4)
   10792:	7379                	lui	t1,0xffffe
   10794:	6574                	ld	a3,200(a0)
   10796:	006d                	c.nop	27
   10798:	696c                	ld	a1,208(a0)
   1079a:	6d5f7473          	csrrci	s0,0x6d5,30
   1079e:	6961                	lui	s2,0x18
   107a0:	626c                	ld	a1,192(a2)
   107a2:	0000786f          	jal	a6,0x177a2
   107a6:	0000                	unimp
   107a8:	696c                	ld	a1,208(a0)
   107aa:	6d207473          	csrrci	s0,0x6d2,0
   107ae:	7475                	lui	s0,0xffffd
   107b0:	7865                	lui	a6,0xffff9
   107b2:	6920                	ld	s0,80(a0)
   107b4:	206e                	fld	ft0,216(sp)
   107b6:	74737973          	csrrci	s2,0x747,6
   107ba:	6d65                	lui	s10,0x19
   107bc:	0000                	unimp
   107be:	0000                	unimp
   107c0:	5f5f 6d63 5f64      	0x5f646d635f5f
   107c6:	696c                	ld	a1,208(a0)
   107c8:	6d5f7473          	csrrci	s0,0x6d5,30
   107cc:	7475                	lui	s0,0xffffd
   107ce:	7865                	lui	a6,0xffff9
	...
   107d8:	696c                	ld	a1,208(a0)
   107da:	6d207473          	csrrci	s0,0x6d2,0
   107de:	7475                	lui	s0,0xffffd
   107e0:	7865                	lui	a6,0xffff9
   107e2:	6920                	ld	s0,80(a0)
   107e4:	206e                	fld	ft0,216(sp)
   107e6:	74737973          	csrrci	s2,0x747,6
   107ea:	6d65                	lui	s10,0x19
   107ec:	0000                	unimp
   107ee:	0000                	unimp
   107f0:	696c                	ld	a1,208(a0)
   107f2:	6d5f7473          	csrrci	s0,0x6d5,30
   107f6:	7475                	lui	s0,0xffffd
   107f8:	7865                	lui	a6,0xffff9
   107fa:	0000                	unimp
   107fc:	0000                	unimp
   107fe:	0000                	unimp
   10800:	696c                	ld	a1,208(a0)
   10802:	65207473          	csrrci	s0,0x652,0
   10806:	6576                	ld	a0,344(sp)
   10808:	746e                	ld	s0,248(sp)
   1080a:	6920                	ld	s0,80(a0)
   1080c:	206e                	fld	ft0,216(sp)
   1080e:	74737973          	csrrci	s2,0x747,6
   10812:	6d65                	lui	s10,0x19
   10814:	0000                	unimp
   10816:	0000                	unimp
   10818:	5f5f 6d63 5f64      	0x5f646d635f5f
   1081e:	696c                	ld	a1,208(a0)
   10820:	655f7473          	csrrci	s0,0x655,30
   10824:	6576                	ld	a0,344(sp)
   10826:	746e                	ld	s0,248(sp)
	...
   10830:	696c                	ld	a1,208(a0)
   10832:	65207473          	csrrci	s0,0x652,0
   10836:	6576                	ld	a0,344(sp)
   10838:	746e                	ld	s0,248(sp)
   1083a:	6920                	ld	s0,80(a0)
   1083c:	206e                	fld	ft0,216(sp)
   1083e:	74737973          	csrrci	s2,0x747,6
   10842:	6d65                	lui	s10,0x19
   10844:	0000                	unimp
   10846:	0000                	unimp
   10848:	696c                	ld	a1,208(a0)
   1084a:	655f7473          	csrrci	s0,0x655,30
   1084e:	6576                	ld	a0,344(sp)
   10850:	746e                	ld	s0,248(sp)
   10852:	0000                	unimp
   10854:	0000                	unimp
   10856:	0000                	unimp
   10858:	696c                	ld	a1,208(a0)
   1085a:	73207473          	csrrci	s0,0x732,0
   1085e:	6d65                	lui	s10,0x19
   10860:	7061                	c.lui	zero,0xffff8
   10862:	6f68                	ld	a0,216(a4)
   10864:	6572                	ld	a0,280(sp)
   10866:	6920                	ld	s0,80(a0)
   10868:	206e                	fld	ft0,216(sp)
   1086a:	74737973          	csrrci	s2,0x747,6
   1086e:	6d65                	lui	s10,0x19
	...
   10878:	5f5f 6d63 5f64      	0x5f646d635f5f
   1087e:	696c                	ld	a1,208(a0)
   10880:	735f7473          	csrrci	s0,0x735,30
   10884:	6d65                	lui	s10,0x19
   10886:	0000                	unimp
   10888:	696c                	ld	a1,208(a0)
   1088a:	73207473          	csrrci	s0,0x732,0
   1088e:	6d65                	lui	s10,0x19
   10890:	7061                	c.lui	zero,0xffff8
   10892:	6f68                	ld	a0,216(a4)
   10894:	6572                	ld	a0,280(sp)
   10896:	6920                	ld	s0,80(a0)
   10898:	206e                	fld	ft0,216(sp)
   1089a:	74737973          	csrrci	s2,0x747,6
   1089e:	6d65                	lui	s10,0x19
	...
   108a8:	696c                	ld	a1,208(a0)
   108aa:	735f7473          	csrrci	s0,0x735,30
   108ae:	6d65                	lui	s10,0x19
	...
   108b8:	696c                	ld	a1,208(a0)
   108ba:	74207473          	csrrci	s0,0x742,0
   108be:	7268                	ld	a0,224(a2)
   108c0:	6165                	addi	sp,sp,112
   108c2:	0064                	addi	s1,sp,12
   108c4:	0000                	unimp
   108c6:	0000                	unimp
   108c8:	5f5f 6d63 5f64      	0x5f646d635f5f
   108ce:	696c                	ld	a1,208(a0)
   108d0:	745f7473          	csrrci	s0,0x745,30
   108d4:	7268                	ld	a0,224(a2)
   108d6:	6165                	addi	sp,sp,112
   108d8:	0064                	addi	s1,sp,12
   108da:	0000                	unimp
   108dc:	0000                	unimp
   108de:	0000                	unimp
   108e0:	696c                	ld	a1,208(a0)
   108e2:	74207473          	csrrci	s0,0x742,0
   108e6:	7268                	ld	a0,224(a2)
   108e8:	6165                	addi	sp,sp,112
   108ea:	0064                	addi	s1,sp,12
   108ec:	0000                	unimp
   108ee:	0000                	unimp
   108f0:	696c                	ld	a1,208(a0)
   108f2:	745f7473          	csrrci	s0,0x745,30
   108f6:	7268                	ld	a0,224(a2)
   108f8:	6165                	addi	sp,sp,112
   108fa:	0064                	addi	s1,sp,12
   108fc:	0000                	unimp
   108fe:	0000                	unimp
   10900:	776f6873          	csrrsi	a6,0x776,30
   10904:	5220                	lw	s0,96(a2)
   10906:	2d54                	fld	fa3,152(a0)
   10908:	6854                	ld	a3,144(s0)
   1090a:	6572                	ld	a0,280(sp)
   1090c:	6461                	lui	s0,0x18
   1090e:	7620                	ld	s0,104(a2)
   10910:	7265                	lui	tp,0xffff9
   10912:	6e6f6973          	csrrsi	s2,0x6e6,30
   10916:	6920                	ld	s0,80(a0)
   10918:	666e                	ld	a2,216(sp)
   1091a:	616d726f          	jal	tp,0xe7f30
   1091e:	6974                	ld	a3,208(a0)
   10920:	00006e6f          	jal	t3,0x16920
   10924:	0000                	unimp
   10926:	0000                	unimp
   10928:	5f5f 6d63 5f64      	0x5f646d635f5f
   1092e:	6576                	ld	a0,344(sp)
   10930:	7372                	ld	t1,312(sp)
   10932:	6f69                	lui	t5,0x1a
   10934:	006e                	c.slli	zero,0x1b
   10936:	0000                	unimp
   10938:	776f6873          	csrrsi	a6,0x776,30
   1093c:	5220                	lw	s0,96(a2)
   1093e:	2d54                	fld	fa3,152(a0)
   10940:	6854                	ld	a3,144(s0)
   10942:	6572                	ld	a0,280(sp)
   10944:	6461                	lui	s0,0x18
   10946:	7620                	ld	s0,104(a2)
   10948:	7265                	lui	tp,0xffff9
   1094a:	6e6f6973          	csrrsi	s2,0x6e6,30
   1094e:	6920                	ld	s0,80(a0)
   10950:	666e                	ld	a2,216(sp)
   10952:	616d726f          	jal	tp,0xe7f68
   10956:	6974                	ld	a3,208(a0)
   10958:	00006e6f          	jal	t3,0x16958
   1095c:	0000                	unimp
   1095e:	0000                	unimp
   10960:	6576                	ld	a0,344(sp)
   10962:	7372                	ld	t1,312(sp)
   10964:	6f69                	lui	t5,0x1a
   10966:	006e                	c.slli	zero,0x1b
   10968:	61656c63          	bltu	a0,s6,0x10f80
   1096c:	2072                	fld	ft0,280(sp)
   1096e:	6874                	ld	a3,208(s0)
   10970:	2065                	0x2065
   10972:	6574                	ld	a3,200(a0)
   10974:	6d72                	ld	s10,280(sp)
   10976:	6e69                	lui	t3,0x1a
   10978:	6c61                	lui	s8,0x18
   1097a:	7320                	ld	s0,96(a4)
   1097c:	65657263          	bgeu	a0,s6,0x10fc0
   10980:	006e                	c.slli	zero,0x1b
   10982:	0000                	unimp
   10984:	0000                	unimp
   10986:	0000                	unimp
   10988:	5f5f 6d63 5f64      	0x5f646d635f5f
   1098e:	61656c63          	bltu	a0,s6,0x10fa6
   10992:	0072                	c.slli	zero,0x1c
   10994:	0000                	unimp
   10996:	0000                	unimp
   10998:	61656c63          	bltu	a0,s6,0x10fb0
   1099c:	2072                	fld	ft0,280(sp)
   1099e:	6874                	ld	a3,208(s0)
   109a0:	2065                	0x2065
   109a2:	6574                	ld	a3,200(a0)
   109a4:	6d72                	ld	s10,280(sp)
   109a6:	6e69                	lui	t3,0x1a
   109a8:	6c61                	lui	s8,0x18
   109aa:	7320                	ld	s0,96(a4)
   109ac:	65657263          	bgeu	a0,s6,0x10ff0
   109b0:	006e                	c.slli	zero,0x1b
   109b2:	0000                	unimp
   109b4:	0000                	unimp
   109b6:	0000                	unimp
   109b8:	61656c63          	bltu	a0,s6,0x10fd0
   109bc:	0072                	c.slli	zero,0x1c
   109be:	0000                	unimp
   109c0:	20796173          	csrrsi	sp,0x207,18
   109c4:	6568                	ld	a0,200(a0)
   109c6:	6c6c                	ld	a1,216(s0)
   109c8:	6f77206f          	j	0x838be
   109cc:	6c72                	ld	s8,280(sp)
   109ce:	0064                	addi	s1,sp,12
   109d0:	6568                	ld	a0,200(a0)
   109d2:	6c6c                	ld	a1,216(s0)
   109d4:	0000006f          	j	0x109d4
   109d8:	d0e0                	sw	s0,100(s1)
   109da:	0000                	unimp
   109dc:	0000                	unimp
   109de:	0000                	unimp
   109e0:	d0d0                	sw	a2,36(s1)
   109e2:	0000                	unimp
   109e4:	0000                	unimp
   109e6:	0000                	unimp
   109e8:	0494                	addi	a3,sp,576
   109ea:	0000                	unimp
   109ec:	0000                	unimp
   109ee:	0000                	unimp
   109f0:	d598                	sw	a4,40(a1)
   109f2:	0000                	unimp
   109f4:	0000                	unimp
   109f6:	0000                	unimp
   109f8:	d578                	sw	a4,108(a0)
   109fa:	0000                	unimp
   109fc:	0000                	unimp
   109fe:	0000                	unimp
   10a00:	06e8                	addi	a0,sp,844
   10a02:	0000                	unimp
   10a04:	0000                	unimp
   10a06:	0000                	unimp
   10a08:	d5c0                	sw	s0,44(a1)
   10a0a:	0000                	unimp
   10a0c:	0000                	unimp
   10a0e:	0000                	unimp
   10a10:	d5a8                	sw	a0,104(a1)
   10a12:	0000                	unimp
   10a14:	0000                	unimp
   10a16:	0000                	unimp
   10a18:	09b0                	addi	a2,sp,216
   10a1a:	0000                	unimp
   10a1c:	0000                	unimp
   10a1e:	0000                	unimp
   10a20:	d5f0                	sw	a2,108(a1)
   10a22:	0000                	unimp
   10a24:	0000                	unimp
   10a26:	0000                	unimp
   10a28:	d5d0                	sw	a2,44(a1)
   10a2a:	0000                	unimp
   10a2c:	0000                	unimp
   10a2e:	0000                	unimp
   10a30:	069c                	addi	a5,sp,832
   10a32:	0000                	unimp
   10a34:	0000                	unimp
   10a36:	0000                	unimp
   10a38:	ec00                	sd	s0,24(s0)
   10a3a:	0000                	unimp
   10a3c:	0000                	unimp
   10a3e:	0000                	unimp
   10a40:	ebd8                	sd	a4,144(a5)
   10a42:	0000                	unimp
   10a44:	0000                	unimp
   10a46:	0000                	unimp
   10a48:	6e9c                	ld	a5,24(a3)
   10a4a:	0000                	unimp
   10a4c:	0000                	unimp
   10a4e:	0000                	unimp
   10a50:	ec28                	sd	a0,88(s0)
   10a52:	0000                	unimp
   10a54:	0000                	unimp
   10a56:	0000                	unimp
   10a58:	ec08                	sd	a0,24(s0)
   10a5a:	0000                	unimp
   10a5c:	0000                	unimp
   10a5e:	0000                	unimp
   10a60:	6e34                	ld	a3,88(a2)
   10a62:	0000                	unimp
   10a64:	0000                	unimp
   10a66:	0000                	unimp
   10a68:	ec50                	sd	a2,152(s0)
   10a6a:	0000                	unimp
   10a6c:	0000                	unimp
   10a6e:	0000                	unimp
   10a70:	ec30                	sd	a2,88(s0)
   10a72:	0000                	unimp
   10a74:	0000                	unimp
   10a76:	0000                	unimp
   10a78:	6dbc                	ld	a5,88(a1)
   10a7a:	0000                	unimp
   10a7c:	0000                	unimp
   10a7e:	0000                	unimp
   10a80:	ec78                	sd	a4,216(s0)
   10a82:	0000                	unimp
   10a84:	0000                	unimp
   10a86:	0000                	unimp
   10a88:	ec60                	sd	s0,216(s0)
   10a8a:	0000                	unimp
   10a8c:	0000                	unimp
   10a8e:	0000                	unimp
   10a90:	6d44                	ld	s1,152(a0)
   10a92:	0000                	unimp
   10a94:	0000                	unimp
   10a96:	0000                	unimp
   10a98:	ee08                	sd	a0,24(a2)
   10a9a:	0000                	unimp
   10a9c:	0000                	unimp
   10a9e:	0000                	unimp
   10aa0:	edf0                	sd	a2,216(a1)
   10aa2:	0000                	unimp
   10aa4:	0000                	unimp
   10aa6:	0000                	unimp
   10aa8:	6f3c                	ld	a5,88(a4)
   10aaa:	0000                	unimp
   10aac:	0000                	unimp
   10aae:	0000                	unimp
   10ab0:	ee40                	sd	s0,152(a2)
   10ab2:	0000                	unimp
   10ab4:	0000                	unimp
   10ab6:	0000                	unimp
   10ab8:	ee18                	sd	a4,24(a2)
   10aba:	0000                	unimp
   10abc:	0000                	unimp
   10abe:	0000                	unimp
   10ac0:	7e7c                	ld	a5,248(a2)
   10ac2:	0000                	unimp
   10ac4:	0000                	unimp
   10ac6:	0000                	unimp
   10ac8:	ee60                	sd	s0,216(a2)
   10aca:	0000                	unimp
   10acc:	0000                	unimp
   10ace:	0000                	unimp
   10ad0:	ee48                	sd	a0,152(a2)
   10ad2:	0000                	unimp
   10ad4:	0000                	unimp
   10ad6:	0000                	unimp
   10ad8:	7838                	ld	a4,112(s0)
   10ada:	0000                	unimp
   10adc:	0000                	unimp
   10ade:	0000                	unimp
   10ae0:	f058                	sd	a4,160(s0)
   10ae2:	0000                	unimp
   10ae4:	0000                	unimp
   10ae6:	0000                	unimp
   10ae8:	f040                	sd	s0,160(s0)
   10aea:	0000                	unimp
   10aec:	0000                	unimp
   10aee:	0000                	unimp
   10af0:	89ec                	0x89ec
   10af2:	0000                	unimp
   10af4:	0000                	unimp
   10af6:	0000                	unimp
   10af8:	f070                	sd	a2,224(s0)
   10afa:	0000                	unimp
   10afc:	0000                	unimp
   10afe:	0000                	unimp
   10b00:	f060                	sd	s0,224(s0)
   10b02:	0000                	unimp
   10b04:	0000                	unimp
   10b06:	0000                	unimp
   10b08:	8194                	0x8194
   10b0a:	0000                	unimp
   10b0c:	0000                	unimp
   10b0e:	0000                	unimp
   10b10:	f098                	sd	a4,32(s1)
   10b12:	0000                	unimp
   10b14:	0000                	unimp
   10b16:	0000                	unimp
   10b18:	f078                	sd	a4,224(s0)
   10b1a:	0000                	unimp
   10b1c:	0000                	unimp
   10b1e:	0000                	unimp
   10b20:	8350                	0x8350
   10b22:	0000                	unimp
   10b24:	0000                	unimp
   10b26:	0000                	unimp
   10b28:	f0b8                	sd	a4,96(s1)
   10b2a:	0000                	unimp
   10b2c:	0000                	unimp
   10b2e:	0000                	unimp
   10b30:	f0a0                	sd	s0,96(s1)
   10b32:	0000                	unimp
   10b34:	0000                	unimp
   10b36:	0000                	unimp
   10b38:	8680                	0x8680
   10b3a:	0000                	unimp
   10b3c:	0000                	unimp
   10b3e:	0000                	unimp
   10b40:	f240                	sd	s0,160(a2)
   10b42:	0000                	unimp
   10b44:	0000                	unimp
   10b46:	0000                	unimp
   10b48:	f230                	sd	a2,96(a2)
   10b4a:	0000                	unimp
   10b4c:	0000                	unimp
   10b4e:	0000                	unimp
   10b50:	9388                	0x9388
   10b52:	0000                	unimp
   10b54:	0000                	unimp
   10b56:	0000                	unimp
   10b58:	f260                	sd	s0,224(a2)
   10b5a:	0000                	unimp
   10b5c:	0000                	unimp
   10b5e:	0000                	unimp
   10b60:	f248                	sd	a0,160(a2)
   10b62:	0000                	unimp
   10b64:	0000                	unimp
   10b66:	0000                	unimp
   10b68:	9344                	0x9344
   10b6a:	0000                	unimp
   10b6c:	0000                	unimp
   10b6e:	0000                	unimp
   10b70:	f570                	sd	a2,232(a0)
   10b72:	0000                	unimp
   10b74:	0000                	unimp
   10b76:	0000                	unimp
   10b78:	f548                	sd	a0,168(a0)
   10b7a:	0000                	unimp
   10b7c:	0000                	unimp
   10b7e:	0000                	unimp
   10b80:	a048                	fsd	fa0,128(s0)
   10b82:	0000                	unimp
   10b84:	0000                	unimp
   10b86:	0000                	unimp
   10b88:	f5a0                	sd	s0,104(a1)
   10b8a:	0000                	unimp
   10b8c:	0000                	unimp
   10b8e:	0000                	unimp
   10b90:	f580                	sd	s0,40(a1)
   10b92:	0000                	unimp
   10b94:	0000                	unimp
   10b96:	0000                	unimp
   10b98:	a02c                	fsd	fa1,64(s0)
   10b9a:	0000                	unimp
   10b9c:	0000                	unimp
   10b9e:	0000                	unimp
   10ba0:	f5c8                	sd	a0,168(a1)
   10ba2:	0000                	unimp
   10ba4:	0000                	unimp
   10ba6:	0000                	unimp
   10ba8:	f5b0                	sd	a2,104(a1)
   10baa:	0000                	unimp
   10bac:	0000                	unimp
   10bae:	0000                	unimp
   10bb0:	9f7c                	0x9f7c
   10bb2:	0000                	unimp
   10bb4:	0000                	unimp
   10bb6:	0000                	unimp
   10bb8:	fbb0                	sd	a2,112(a5)
   10bba:	0000                	unimp
   10bbc:	0000                	unimp
   10bbe:	0000                	unimp
   10bc0:	fb80                	sd	s0,48(a5)
   10bc2:	0000                	unimp
   10bc4:	0000                	unimp
   10bc6:	0000                	unimp
   10bc8:	b648                	fsd	fa0,168(a2)
   10bca:	0000                	unimp
   10bcc:	0000                	unimp
   10bce:	0000                	unimp
   10bd0:	fbd8                	sd	a4,176(a5)
   10bd2:	0000                	unimp
   10bd4:	0000                	unimp
   10bd6:	0000                	unimp
   10bd8:	fbc0                	sd	s0,176(a5)
   10bda:	0000                	unimp
   10bdc:	0000                	unimp
   10bde:	0000                	unimp
   10be0:	bc3c                	fsd	fa5,120(s0)
   10be2:	0000                	unimp
   10be4:	0000                	unimp
   10be6:	0000                	unimp
   10be8:	fbf8                	sd	a4,240(a5)
   10bea:	0000                	unimp
   10bec:	0000                	unimp
   10bee:	0000                	unimp
   10bf0:	fbe8                	sd	a0,240(a5)
   10bf2:	0000                	unimp
   10bf4:	0000                	unimp
   10bf6:	0000                	unimp
   10bf8:	bbc4                	fsd	fs1,176(a5)
   10bfa:	0000                	unimp
   10bfc:	0000                	unimp
   10bfe:	0000                	unimp
   10c00:	fc28                	sd	a0,120(s0)
   10c02:	0000                	unimp
   10c04:	0000                	unimp
   10c06:	0000                	unimp
   10c08:	fc08                	sd	a0,56(s0)
   10c0a:	0000                	unimp
   10c0c:	0000                	unimp
   10c0e:	0000                	unimp
   10c10:	b5d4                	fsd	fa3,168(a1)
   10c12:	0000                	unimp
   10c14:	0000                	unimp
   10c16:	0000                	unimp
   10c18:	fc60                	sd	s0,248(s0)
   10c1a:	0000                	unimp
   10c1c:	0000                	unimp
   10c1e:	0000                	unimp
   10c20:	fc38                	sd	a4,120(s0)
   10c22:	0000                	unimp
   10c24:	0000                	unimp
   10c26:	0000                	unimp
   10c28:	bab8                	fsd	fa4,112(a3)
   10c2a:	0000                	unimp
   10c2c:	0000                	unimp
   10c2e:	0000                	unimp
   10c30:	fc90                	sd	a2,56(s1)
   10c32:	0000                	unimp
   10c34:	0000                	unimp
   10c36:	0000                	unimp
   10c38:	fc70                	sd	a2,248(s0)
   10c3a:	0000                	unimp
   10c3c:	0000                	unimp
   10c3e:	0000                	unimp
   10c40:	b54c                	fsd	fa1,168(a0)
   10c42:	0000                	unimp
   10c44:	0000                	unimp
   10c46:	0000                	unimp
   10c48:	fcb8                	sd	a4,120(s1)
   10c4a:	0000                	unimp
   10c4c:	0000                	unimp
   10c4e:	0000                	unimp
   10c50:	fca0                	sd	s0,120(s1)
   10c52:	0000                	unimp
   10c54:	0000                	unimp
   10c56:	0000                	unimp
   10c58:	ba6c                	fsd	fa1,240(a2)
   10c5a:	0000                	unimp
   10c5c:	0000                	unimp
   10c5e:	0000                	unimp
   10c60:	fd00                	sd	s0,56(a0)
   10c62:	0000                	unimp
   10c64:	0000                	unimp
   10c66:	0000                	unimp
   10c68:	fcc8                	sd	a0,184(s1)
   10c6a:	0000                	unimp
   10c6c:	0000                	unimp
   10c6e:	0000                	unimp
   10c70:	b0f4                	fsd	fa3,224(s1)
   10c72:	0000                	unimp
   10c74:	0000                	unimp
   10c76:	0000                	unimp
   10c78:	fd38                	sd	a4,120(a0)
   10c7a:	0000                	unimp
   10c7c:	0000                	unimp
   10c7e:	0000                	unimp
   10c80:	fd10                	sd	a2,56(a0)
   10c82:	0000                	unimp
   10c84:	0000                	unimp
   10c86:	0000                	unimp
   10c88:	ba08                	fsd	fa0,48(a2)
   10c8a:	0000                	unimp
   10c8c:	0000                	unimp
   10c8e:	0000                	unimp
   10c90:	fd68                	sd	a0,248(a0)
   10c92:	0000                	unimp
   10c94:	0000                	unimp
   10c96:	0000                	unimp
   10c98:	fd48                	sd	a0,184(a0)
   10c9a:	0000                	unimp
   10c9c:	0000                	unimp
   10c9e:	0000                	unimp
   10ca0:	b364                	fsd	fs1,224(a4)
   10ca2:	0000                	unimp
   10ca4:	0000                	unimp
   10ca6:	0000                	unimp
   10ca8:	fd90                	sd	a2,56(a1)
   10caa:	0000                	unimp
   10cac:	0000                	unimp
   10cae:	0000                	unimp
   10cb0:	fd78                	sd	a4,248(a0)
   10cb2:	0000                	unimp
   10cb4:	0000                	unimp
   10cb6:	0000                	unimp
   10cb8:	b988                	fsd	fa0,48(a1)
   10cba:	0000                	unimp
   10cbc:	0000                	unimp
   10cbe:	0000                	unimp
   10cc0:	fdb8                	sd	a4,120(a1)
   10cc2:	0000                	unimp
   10cc4:	0000                	unimp
   10cc6:	0000                	unimp
   10cc8:	fda0                	sd	s0,120(a1)
   10cca:	0000                	unimp
   10ccc:	0000                	unimp
   10cce:	0000                	unimp
   10cd0:	b84c                	fsd	fa1,176(s0)
   10cd2:	0000                	unimp
   10cd4:	0000                	unimp
   10cd6:	0000                	unimp
   10cd8:	fde0                	sd	s0,248(a1)
   10cda:	0000                	unimp
   10cdc:	0000                	unimp
   10cde:	0000                	unimp
   10ce0:	fdc8                	sd	a0,184(a1)
   10ce2:	0000                	unimp
   10ce4:	0000                	unimp
   10ce6:	0000                	unimp
   10ce8:	b800                	fsd	fs0,48(s0)
   10cea:	0000                	unimp
   10cec:	0000                	unimp
   10cee:	0000                	unimp
   10cf0:	fe18                	sd	a4,56(a2)
   10cf2:	0000                	unimp
   10cf4:	0000                	unimp
   10cf6:	0000                	unimp
   10cf8:	fdf0                	sd	a2,248(a1)
   10cfa:	0000                	unimp
   10cfc:	0000                	unimp
   10cfe:	0000                	unimp
   10d00:	b0c0                	fsd	fs0,160(s1)
   10d02:	0000                	unimp
   10d04:	0000                	unimp
   10d06:	0000                	unimp
   10d08:	05c8                	addi	a0,sp,708
   10d0a:	0001                	nop
   10d0c:	0000                	unimp
   10d0e:	0000                	unimp
   10d10:	05a8                	addi	a0,sp,712
   10d12:	0001                	nop
   10d14:	0000                	unimp
   10d16:	0000                	unimp
   10d18:	c014                	sw	a3,0(s0)
   10d1a:	0000                	unimp
   10d1c:	0000                	unimp
   10d1e:	0000                	unimp
   10d20:	05e8                	addi	a0,sp,716
   10d22:	0001                	nop
   10d24:	0000                	unimp
   10d26:	0000                	unimp
   10d28:	05d0                	addi	a2,sp,708
   10d2a:	0001                	nop
   10d2c:	0000                	unimp
   10d2e:	0000                	unimp
   10d30:	c428                	sw	a0,72(s0)
   10d32:	0000                	unimp
   10d34:	0000                	unimp
   10d36:	0000                	unimp
   10d38:	0618                	addi	a4,sp,768
   10d3a:	0001                	nop
   10d3c:	0000                	unimp
   10d3e:	0000                	unimp
   10d40:	0600                	addi	s0,sp,768
   10d42:	0001                	nop
   10d44:	0000                	unimp
   10d46:	0000                	unimp
   10d48:	c428                	sw	a0,72(s0)
   10d4a:	0000                	unimp
   10d4c:	0000                	unimp
   10d4e:	0000                	unimp
   10d50:	0640                	addi	s0,sp,772
   10d52:	0001                	nop
   10d54:	0000                	unimp
   10d56:	0000                	unimp
   10d58:	0628                	addi	a0,sp,776
   10d5a:	0001                	nop
   10d5c:	0000                	unimp
   10d5e:	0000                	unimp
   10d60:	c6b4                	sw	a3,72(a3)
   10d62:	0000                	unimp
   10d64:	0000                	unimp
   10d66:	0000                	unimp
   10d68:	0670                	addi	a2,sp,780
   10d6a:	0001                	nop
   10d6c:	0000                	unimp
   10d6e:	0000                	unimp
   10d70:	0658                	addi	a4,sp,772
   10d72:	0001                	nop
   10d74:	0000                	unimp
   10d76:	0000                	unimp
   10d78:	c6b4                	sw	a3,72(a3)
   10d7a:	0000                	unimp
   10d7c:	0000                	unimp
   10d7e:	0000                	unimp
   10d80:	06a0                	addi	s0,sp,840
   10d82:	0001                	nop
   10d84:	0000                	unimp
   10d86:	0000                	unimp
   10d88:	0680                	addi	s0,sp,832
   10d8a:	0001                	nop
   10d8c:	0000                	unimp
   10d8e:	0000                	unimp
   10d90:	ce54                	sw	a3,28(a2)
   10d92:	0000                	unimp
   10d94:	0000                	unimp
   10d96:	0000                	unimp
   10d98:	06d8                	addi	a4,sp,836
   10d9a:	0001                	nop
   10d9c:	0000                	unimp
   10d9e:	0000                	unimp
   10da0:	06b8                	addi	a4,sp,840
   10da2:	0001                	nop
   10da4:	0000                	unimp
   10da6:	0000                	unimp
   10da8:	ce54                	sw	a3,28(a2)
   10daa:	0000                	unimp
   10dac:	0000                	unimp
   10dae:	0000                	unimp
   10db0:	0708                	addi	a0,sp,896
   10db2:	0001                	nop
   10db4:	0000                	unimp
   10db6:	0000                	unimp
   10db8:	06e8                	addi	a0,sp,844
   10dba:	0001                	nop
   10dbc:	0000                	unimp
   10dbe:	0000                	unimp
   10dc0:	c99c                	sw	a5,16(a1)
   10dc2:	0000                	unimp
   10dc4:	0000                	unimp
   10dc6:	0000                	unimp
   10dc8:	0740                	addi	s0,sp,900
   10dca:	0001                	nop
   10dcc:	0000                	unimp
   10dce:	0000                	unimp
   10dd0:	0720                	addi	s0,sp,904
   10dd2:	0001                	nop
   10dd4:	0000                	unimp
   10dd6:	0000                	unimp
   10dd8:	c99c                	sw	a5,16(a1)
   10dda:	0000                	unimp
   10ddc:	0000                	unimp
   10dde:	0000                	unimp
   10de0:	0768                	addi	a0,sp,908
   10de2:	0001                	nop
   10de4:	0000                	unimp
   10de6:	0000                	unimp
   10de8:	0750                	addi	a2,sp,900
   10dea:	0001                	nop
   10dec:	0000                	unimp
   10dee:	0000                	unimp
   10df0:	ccbc                	sw	a5,88(s1)
   10df2:	0000                	unimp
   10df4:	0000                	unimp
   10df6:	0000                	unimp
   10df8:	0798                	addi	a4,sp,960
   10dfa:	0001                	nop
   10dfc:	0000                	unimp
   10dfe:	0000                	unimp
   10e00:	0780                	addi	s0,sp,960
   10e02:	0001                	nop
   10e04:	0000                	unimp
   10e06:	0000                	unimp
   10e08:	ccbc                	sw	a5,88(s1)
   10e0a:	0000                	unimp
   10e0c:	0000                	unimp
   10e0e:	0000                	unimp
   10e10:	07c0                	addi	s0,sp,964
   10e12:	0001                	nop
   10e14:	0000                	unimp
   10e16:	0000                	unimp
   10e18:	07a8                	addi	a0,sp,968
   10e1a:	0001                	nop
   10e1c:	0000                	unimp
   10e1e:	0000                	unimp
   10e20:	c584                	sw	s1,8(a1)
   10e22:	0000                	unimp
   10e24:	0000                	unimp
   10e26:	0000                	unimp
   10e28:	07f0                	addi	a2,sp,972
   10e2a:	0001                	nop
   10e2c:	0000                	unimp
   10e2e:	0000                	unimp
   10e30:	07d8                	addi	a4,sp,964
   10e32:	0001                	nop
   10e34:	0000                	unimp
   10e36:	0000                	unimp
   10e38:	c584                	sw	s1,8(a1)
   10e3a:	0000                	unimp
   10e3c:	0000                	unimp
   10e3e:	0000                	unimp
   10e40:	0818                	addi	a4,sp,16
   10e42:	0001                	nop
   10e44:	0000                	unimp
   10e46:	0000                	unimp
   10e48:	0800                	addi	s0,sp,16
   10e4a:	0001                	nop
   10e4c:	0000                	unimp
   10e4e:	0000                	unimp
   10e50:	c818                	sw	a4,16(s0)
   10e52:	0000                	unimp
   10e54:	0000                	unimp
   10e56:	0000                	unimp
   10e58:	0848                	addi	a0,sp,20
   10e5a:	0001                	nop
   10e5c:	0000                	unimp
   10e5e:	0000                	unimp
   10e60:	0830                	addi	a2,sp,24
   10e62:	0001                	nop
   10e64:	0000                	unimp
   10e66:	0000                	unimp
   10e68:	c818                	sw	a4,16(s0)
   10e6a:	0000                	unimp
   10e6c:	0000                	unimp
   10e6e:	0000                	unimp
   10e70:	0878                	addi	a4,sp,28
   10e72:	0001                	nop
   10e74:	0000                	unimp
   10e76:	0000                	unimp
   10e78:	0858                	addi	a4,sp,20
   10e7a:	0001                	nop
   10e7c:	0000                	unimp
   10e7e:	0000                	unimp
   10e80:	cb2c                	sw	a1,80(a4)
   10e82:	0000                	unimp
   10e84:	0000                	unimp
   10e86:	0000                	unimp
   10e88:	08a8                	addi	a0,sp,88
   10e8a:	0001                	nop
   10e8c:	0000                	unimp
   10e8e:	0000                	unimp
   10e90:	0888                	addi	a0,sp,80
   10e92:	0001                	nop
   10e94:	0000                	unimp
   10e96:	0000                	unimp
   10e98:	cb2c                	sw	a1,80(a4)
   10e9a:	0000                	unimp
   10e9c:	0000                	unimp
   10e9e:	0000                	unimp
   10ea0:	08c8                	addi	a0,sp,84
   10ea2:	0001                	nop
   10ea4:	0000                	unimp
   10ea6:	0000                	unimp
   10ea8:	08b8                	addi	a4,sp,88
   10eaa:	0001                	nop
   10eac:	0000                	unimp
   10eae:	0000                	unimp
   10eb0:	c1dc                	sw	a5,4(a1)
   10eb2:	0000                	unimp
   10eb4:	0000                	unimp
   10eb6:	0000                	unimp
   10eb8:	08f0                	addi	a2,sp,92
   10eba:	0001                	nop
   10ebc:	0000                	unimp
   10ebe:	0000                	unimp
   10ec0:	08e0                	addi	s0,sp,92
   10ec2:	0001                	nop
   10ec4:	0000                	unimp
   10ec6:	0000                	unimp
   10ec8:	c1dc                	sw	a5,4(a1)
   10eca:	0000                	unimp
   10ecc:	0000                	unimp
   10ece:	0000                	unimp
   10ed0:	0928                	addi	a0,sp,152
   10ed2:	0001                	nop
   10ed4:	0000                	unimp
   10ed6:	0000                	unimp
   10ed8:	0900                	addi	s0,sp,144
   10eda:	0001                	nop
   10edc:	0000                	unimp
   10ede:	0000                	unimp
   10ee0:	bff8                	fsd	fa4,248(a5)
   10ee2:	0000                	unimp
   10ee4:	0000                	unimp
   10ee6:	0000                	unimp
   10ee8:	0960                	addi	s0,sp,156
   10eea:	0001                	nop
   10eec:	0000                	unimp
   10eee:	0000                	unimp
   10ef0:	0938                	addi	a4,sp,152
   10ef2:	0001                	nop
   10ef4:	0000                	unimp
   10ef6:	0000                	unimp
   10ef8:	bff8                	fsd	fa4,248(a5)
   10efa:	0000                	unimp
   10efc:	0000                	unimp
   10efe:	0000                	unimp
   10f00:	0988                	addi	a0,sp,208
   10f02:	0001                	nop
   10f04:	0000                	unimp
   10f06:	0000                	unimp
   10f08:	0968                	addi	a0,sp,156
   10f0a:	0001                	nop
   10f0c:	0000                	unimp
   10f0e:	0000                	unimp
   10f10:	bf60                	fsd	fs0,248(a4)
   10f12:	0000                	unimp
   10f14:	0000                	unimp
   10f16:	0000                	unimp
   10f18:	09b8                	addi	a4,sp,216
   10f1a:	0001                	nop
   10f1c:	0000                	unimp
   10f1e:	0000                	unimp
   10f20:	0998                	addi	a4,sp,208
   10f22:	0001                	nop
   10f24:	0000                	unimp
   10f26:	0000                	unimp
   10f28:	bf60                	fsd	fs0,248(a4)
   10f2a:	0000                	unimp
   10f2c:	0000                	unimp
   10f2e:	0000                	unimp
   10f30:	09d0                	addi	a2,sp,212
   10f32:	0001                	nop
   10f34:	0000                	unimp
   10f36:	0000                	unimp
   10f38:	09c0                	addi	s0,sp,212
   10f3a:	0001                	nop
   10f3c:	0000                	unimp
   10f3e:	0000                	unimp
   10f40:	bf3c                	fsd	fa5,120(a4)
   10f42:	0000                	unimp
   10f44:	0000                	unimp
   10f46:	0000                	unimp
   10f48:	30ec                	fld	fa1,224(s1)
   10f4a:	0000                	unimp
   10f4c:	0000                	unimp
   10f4e:	0000                	unimp
   10f50:	30fc                	fld	fa5,224(s1)
   10f52:	0000                	unimp
   10f54:	0000                	unimp
   10f56:	0000                	unimp
   10f58:	3104                	fld	fs1,32(a0)
   10f5a:	0000                	unimp
   10f5c:	0000                	unimp
   10f5e:	0000                	unimp
   10f60:	70dc                	ld	a5,160(s1)
   10f62:	0000                	unimp
   10f64:	0000                	unimp
   10f66:	0000                	unimp
   10f68:	9cd0                	0x9cd0
   10f6a:	0000                	unimp
   10f6c:	0000                	unimp
   10f6e:	0000                	unimp
   10f70:	a904                	fsd	fs1,16(a0)
   10f72:	0000                	unimp
   10f74:	0000                	unimp
   10f76:	0000                	unimp
   10f78:	30f4                	fld	fa3,224(s1)
   10f7a:	0000                	unimp
   10f7c:	0000                	unimp
   10f7e:	0000                	unimp
   10f80:	c200                	sw	s0,0(a2)
   10f82:	0001                	nop
   10f84:	0008                	0x8
   10f86:	0001                	nop
   10f88:	7472                	ld	s0,312(sp)
   10f8a:	665f 6572 0065      	0x656572665f
   10f90:	6466                	ld	s0,88(sp)
   10f92:	705f 7475 0000      	0x7475705f
   10f98:	0001                	nop
   10f9a:	0000                	unimp
   10f9c:	0000                	unimp
   10f9e:	0000                	unimp
   10fa0:	0fa0                	addi	s0,sp,984
   10fa2:	0001                	nop
   10fa4:	0000                	unimp
   10fa6:	0000                	unimp
   10fa8:	0fa0                	addi	s0,sp,984
   10faa:	0001                	nop
   10fac:	0000                	unimp
   10fae:	0000                	unimp
   10fb0:	00e8                	addi	a0,sp,76
   10fb2:	0000                	unimp
   10fb4:	0000                	unimp
   10fb6:	0000                	unimp
   10fb8:	0002                	c.slli64	zero
   10fba:	0000                	unimp
   10fbc:	0000                	unimp
   10fbe:	0000                	unimp
   10fc0:	0fc0                	addi	s0,sp,980
   10fc2:	0001                	nop
   10fc4:	0000                	unimp
   10fc6:	0000                	unimp
   10fc8:	0fc0                	addi	s0,sp,980
   10fca:	0001                	nop
   10fcc:	0000                	unimp
   10fce:	0000                	unimp
   10fd0:	0040                	addi	s0,sp,4
   10fd2:	0000                	unimp
   10fd4:	0000                	unimp
   10fd6:	0000                	unimp
   10fd8:	00000003          	lb	zero,0(zero) # 0x0
   10fdc:	0000                	unimp
   10fde:	0000                	unimp
   10fe0:	0fe0                	addi	s0,sp,988
   10fe2:	0001                	nop
   10fe4:	0000                	unimp
   10fe6:	0000                	unimp
   10fe8:	0fe0                	addi	s0,sp,988
   10fea:	0001                	nop
   10fec:	0000                	unimp
   10fee:	0000                	unimp
   10ff0:	0048                	addi	a0,sp,4
   10ff2:	0000                	unimp
   10ff4:	0000                	unimp
   10ff6:	0000                	unimp
   10ff8:	0004                	0x4
   10ffa:	0000                	unimp
   10ffc:	0000                	unimp
   10ffe:	0000                	unimp
   11000:	1000                	addi	s0,sp,32
   11002:	0001                	nop
   11004:	0000                	unimp
   11006:	0000                	unimp
   11008:	1000                	addi	s0,sp,32
   1100a:	0001                	nop
   1100c:	0000                	unimp
   1100e:	0000                	unimp
   11010:	0040                	addi	s0,sp,4
   11012:	0000                	unimp
   11014:	0000                	unimp
   11016:	0000                	unimp
   11018:	0005                	c.nop	1
   1101a:	0000                	unimp
   1101c:	0000                	unimp
   1101e:	0000                	unimp
   11020:	1020                	addi	s0,sp,40
   11022:	0001                	nop
   11024:	0000                	unimp
   11026:	0000                	unimp
   11028:	1020                	addi	s0,sp,40
   1102a:	0001                	nop
   1102c:	0000                	unimp
   1102e:	0000                	unimp
   11030:	0058                	addi	a4,sp,4
   11032:	0000                	unimp
   11034:	0000                	unimp
   11036:	0000                	unimp
   11038:	0006                	c.slli	zero,0x1
   1103a:	0000                	unimp
   1103c:	0000                	unimp
   1103e:	0000                	unimp
   11040:	1040                	addi	s0,sp,36
   11042:	0001                	nop
   11044:	0000                	unimp
   11046:	0000                	unimp
   11048:	1040                	addi	s0,sp,36
   1104a:	0001                	nop
   1104c:	0000                	unimp
   1104e:	0000                	unimp
   11050:	0070                	addi	a2,sp,12
   11052:	0000                	unimp
   11054:	0000                	unimp
   11056:	0000                	unimp
   11058:	0008                	0x8
   1105a:	0000                	unimp
   1105c:	0000                	unimp
   1105e:	0000                	unimp
   11060:	1060                	addi	s0,sp,44
   11062:	0001                	nop
   11064:	0000                	unimp
   11066:	0000                	unimp
   11068:	1060                	addi	s0,sp,44
   1106a:	0001                	nop
   1106c:	0000                	unimp
   1106e:	0000                	unimp
   11070:	0068                	addi	a0,sp,12
   11072:	0000                	unimp
   11074:	0000                	unimp
   11076:	0000                	unimp
   11078:	0009                	c.nop	2
   1107a:	0000                	unimp
   1107c:	0000                	unimp
   1107e:	0000                	unimp
   11080:	1080                	addi	s0,sp,96
   11082:	0001                	nop
   11084:	0000                	unimp
   11086:	0000                	unimp
   11088:	1080                	addi	s0,sp,96
   1108a:	0001                	nop
   1108c:	0000                	unimp
   1108e:	0000                	unimp
   11090:	0080                	addi	s0,sp,64
   11092:	0000                	unimp
   11094:	0000                	unimp
   11096:	0000                	unimp
   11098:	000a                	c.slli	zero,0x2
   1109a:	0000                	unimp
   1109c:	0000                	unimp
   1109e:	0000                	unimp
   110a0:	10a0                	addi	s0,sp,104
   110a2:	0001                	nop
   110a4:	0000                	unimp
   110a6:	0000                	unimp
   110a8:	10a0                	addi	s0,sp,104
   110aa:	0001                	nop
   110ac:	0000                	unimp
   110ae:	0000                	unimp
   110b0:	0050                	addi	a2,sp,4
   110b2:	0000                	unimp
   110b4:	0000                	unimp
   110b6:	0000                	unimp
   110b8:	10b8                	addi	a4,sp,104
   110ba:	0001                	nop
   110bc:	0000                	unimp
   110be:	0000                	unimp
   110c0:	10b8                	addi	a4,sp,104
   110c2:	0001                	nop
   110c4:	0000                	unimp
   110c6:	0000                	unimp
   110c8:	0000002f          	0x2f
	...
   111c8:	01              	Address 0x00000000000111c8 is out of bounds.

